(i__main__
Instancia
p0
(dp1
S'Fp'
p2
(lp3
(lp4
S'f1'
p5
aS'f2'
p6
aS'f7'
p7
aS'f9'
p8
aS'f11'
p9
aS'f12'
p10
aS'f13'
p11
aS'f17'
p12
aS'f19'
p13
aS'f20'
p14
aS'f21'
p15
aS'f22'
p16
aS'f25'
p17
aa(lp18
S'f1'
p19
aS'f2'
p20
aS'f3'
p21
aS'f6'
p22
aS'f8'
p23
aS'f9'
p24
aS'f11'
p25
aS'f12'
p26
aS'f13'
p27
aS'f14'
p28
aS'f16'
p29
aS'f17'
p30
aS'f18'
p31
aS'f20'
p32
aS'f21'
p33
aS'f23'
p34
aS'f25'
p35
aa(lp36
S'f1'
p37
aS'f2'
p38
aS'f3'
p39
aS'f6'
p40
aS'f7'
p41
aS'f8'
p42
aS'f9'
p43
aS'f10'
p44
aS'f13'
p45
aS'f14'
p46
aS'f16'
p47
aS'f17'
p48
aS'f18'
p49
aS'f20'
p50
aS'f21'
p51
aa(lp52
S'f1'
p53
aS'f2'
p54
aS'f6'
p55
aS'f7'
p56
aS'f8'
p57
aS'f12'
p58
aS'f16'
p59
aS'f17'
p60
aS'f18'
p61
aS'f19'
p62
aS'f20'
p63
aS'f21'
p64
aS'f23'
p65
aS'f25'
p66
aa(lp67
S'f1'
p68
aS'f11'
p69
aS'f12'
p70
aS'f17'
p71
aS'f18'
p72
aS'f20'
p73
aS'f21'
p74
aS'f23'
p75
aS'f24'
p76
aS'f25'
p77
aa(lp78
S'f1'
p79
aS'f2'
p80
aS'f3'
p81
aS'f4'
p82
aS'f7'
p83
aS'f8'
p84
aS'f9'
p85
aS'f11'
p86
aS'f12'
p87
aS'f13'
p88
aS'f15'
p89
aS'f17'
p90
aS'f18'
p91
aS'f20'
p92
aS'f21'
p93
aS'f22'
p94
aS'f23'
p95
aS'f25'
p96
aa(lp97
S'f1'
p98
aS'f2'
p99
aS'f3'
p100
aS'f8'
p101
aS'f9'
p102
aS'f11'
p103
aS'f12'
p104
aS'f15'
p105
aS'f17'
p106
aS'f19'
p107
aS'f20'
p108
aS'f21'
p109
aS'f23'
p110
aa(lp111
S'f1'
p112
aS'f2'
p113
aS'f3'
p114
aS'f5'
p115
aS'f8'
p116
aS'f9'
p117
aS'f11'
p118
aS'f12'
p119
aS'f14'
p120
aS'f15'
p121
aS'f17'
p122
aS'f18'
p123
aS'f19'
p124
aS'f20'
p125
aS'f21'
p126
aS'f22'
p127
aS'f23'
p128
aS'f24'
p129
aS'f25'
p130
aa(lp131
S'f1'
p132
aS'f3'
p133
aS'f7'
p134
aS'f8'
p135
aS'f9'
p136
aS'f12'
p137
aS'f15'
p138
aS'f17'
p139
aS'f21'
p140
aS'f25'
p141
aa(lp142
S'f1'
p143
aS'f2'
p144
aS'f6'
p145
aS'f8'
p146
aS'f11'
p147
aS'f12'
p148
aS'f15'
p149
aS'f16'
p150
aS'f17'
p151
aS'f18'
p152
aS'f19'
p153
aS'f20'
p154
aS'f21'
p155
aS'f22'
p156
aS'f23'
p157
aS'f24'
p158
aS'f25'
p159
aa(lp160
S'f1'
p161
aS'f2'
p162
aS'f6'
p163
aS'f7'
p164
aS'f8'
p165
aS'f9'
p166
aS'f11'
p167
aS'f12'
p168
aS'f14'
p169
aS'f15'
p170
aS'f16'
p171
aS'f17'
p172
aS'f21'
p173
aS'f23'
p174
aS'f25'
p175
aa(lp176
S'f1'
p177
aS'f2'
p178
aS'f3'
p179
aS'f5'
p180
aS'f7'
p181
aS'f8'
p182
aS'f9'
p183
aS'f11'
p184
aS'f12'
p185
aS'f13'
p186
aS'f14'
p187
aS'f15'
p188
aS'f17'
p189
aS'f18'
p190
aS'f19'
p191
aS'f20'
p192
aS'f21'
p193
aS'f24'
p194
aS'f25'
p195
aa(lp196
S'f1'
p197
aS'f2'
p198
aS'f3'
p199
aS'f5'
p200
aS'f6'
p201
aS'f7'
p202
aS'f8'
p203
aS'f11'
p204
aS'f12'
p205
aS'f14'
p206
aS'f16'
p207
aS'f19'
p208
aS'f21'
p209
aS'f23'
p210
aS'f24'
p211
aa(lp212
S'f1'
p213
aS'f2'
p214
aS'f3'
p215
aS'f6'
p216
aS'f8'
p217
aS'f9'
p218
aS'f12'
p219
aS'f14'
p220
aS'f15'
p221
aS'f17'
p222
aS'f19'
p223
aS'f20'
p224
aS'f21'
p225
aS'f23'
p226
aS'f25'
p227
aa(lp228
S'f1'
p229
aS'f2'
p230
aS'f3'
p231
aS'f6'
p232
aS'f7'
p233
aS'f8'
p234
aS'f12'
p235
aS'f14'
p236
aS'f15'
p237
aS'f16'
p238
aS'f17'
p239
aS'f18'
p240
aS'f19'
p241
aS'f20'
p242
aS'f21'
p243
aS'f22'
p244
aa(lp245
S'f1'
p246
aS'f2'
p247
aS'f3'
p248
aS'f6'
p249
aS'f7'
p250
aS'f8'
p251
aS'f9'
p252
aS'f11'
p253
aS'f12'
p254
aS'f14'
p255
aS'f15'
p256
aS'f16'
p257
aS'f17'
p258
aS'f19'
p259
aS'f21'
p260
aS'f22'
p261
aS'f23'
p262
aS'f24'
p263
aS'f25'
p264
aa(lp265
S'f1'
p266
aS'f6'
p267
aS'f7'
p268
aS'f8'
p269
aS'f9'
p270
aS'f11'
p271
aS'f12'
p272
aS'f13'
p273
aS'f14'
p274
aS'f17'
p275
aS'f18'
p276
aS'f19'
p277
aS'f20'
p278
aS'f21'
p279
aS'f25'
p280
aa(lp281
S'f1'
p282
aS'f2'
p283
aS'f4'
p284
aS'f6'
p285
aS'f8'
p286
aS'f11'
p287
aS'f12'
p288
aS'f13'
p289
aS'f14'
p290
aS'f15'
p291
aS'f17'
p292
aS'f19'
p293
aS'f20'
p294
aS'f21'
p295
aS'f24'
p296
aS'f25'
p297
aa(lp298
S'f1'
p299
aS'f3'
p300
aS'f8'
p301
aS'f9'
p302
aS'f11'
p303
aS'f12'
p304
aS'f13'
p305
aS'f17'
p306
aS'f19'
p307
aS'f20'
p308
aS'f21'
p309
aS'f23'
p310
aS'f25'
p311
aa(lp312
S'f1'
p313
aS'f2'
p314
aS'f8'
p315
aS'f9'
p316
aS'f11'
p317
aS'f12'
p318
aS'f14'
p319
aS'f16'
p320
aS'f17'
p321
aS'f20'
p322
aS'f21'
p323
aS'f22'
p324
aS'f24'
p325
aa(lp326
S'f1'
p327
aS'f2'
p328
aS'f3'
p329
aS'f6'
p330
aS'f8'
p331
aS'f9'
p332
aS'f11'
p333
aS'f12'
p334
aS'f14'
p335
aS'f17'
p336
aS'f19'
p337
aS'f20'
p338
aS'f23'
p339
aa(lp340
S'f1'
p341
aS'f2'
p342
aS'f6'
p343
aS'f7'
p344
aS'f8'
p345
aS'f9'
p346
aS'f11'
p347
aS'f12'
p348
aS'f13'
p349
aS'f14'
p350
aS'f15'
p351
aS'f16'
p352
aS'f17'
p353
aS'f21'
p354
aS'f23'
p355
aS'f24'
p356
aS'f25'
p357
aa(lp358
S'f1'
p359
aS'f2'
p360
aS'f3'
p361
aS'f7'
p362
aS'f9'
p363
aS'f11'
p364
aS'f14'
p365
aS'f15'
p366
aS'f16'
p367
aS'f17'
p368
aS'f19'
p369
aS'f20'
p370
aS'f21'
p371
aS'f23'
p372
aS'f25'
p373
aa(lp374
S'f1'
p375
aS'f2'
p376
aS'f3'
p377
aS'f8'
p378
aS'f12'
p379
aS'f13'
p380
aS'f14'
p381
aS'f15'
p382
aS'f16'
p383
aS'f17'
p384
aS'f20'
p385
aS'f21'
p386
aS'f25'
p387
aa(lp388
S'f1'
p389
aS'f2'
p390
aS'f6'
p391
aS'f8'
p392
aS'f9'
p393
aS'f11'
p394
aS'f12'
p395
aS'f14'
p396
aS'f15'
p397
aS'f16'
p398
aS'f17'
p399
aS'f18'
p400
aS'f20'
p401
aS'f21'
p402
aS'f24'
p403
aS'f25'
p404
aa(lp405
S'f1'
p406
aS'f3'
p407
aS'f5'
p408
aS'f7'
p409
aS'f8'
p410
aS'f9'
p411
aS'f10'
p412
aS'f11'
p413
aS'f12'
p414
aS'f17'
p415
aS'f18'
p416
aS'f19'
p417
aS'f21'
p418
aS'f23'
p419
aS'f25'
p420
aa(lp421
S'f1'
p422
aS'f2'
p423
aS'f3'
p424
aS'f5'
p425
aS'f6'
p426
aS'f8'
p427
aS'f9'
p428
aS'f11'
p429
aS'f12'
p430
aS'f13'
p431
aS'f14'
p432
aS'f15'
p433
aS'f16'
p434
aS'f17'
p435
aS'f19'
p436
aS'f20'
p437
aS'f21'
p438
aa(lp439
S'f1'
p440
aS'f2'
p441
aS'f3'
p442
aS'f8'
p443
aS'f9'
p444
aS'f11'
p445
aS'f15'
p446
aS'f16'
p447
aS'f17'
p448
aS'f19'
p449
aS'f21'
p450
aS'f23'
p451
aS'f24'
p452
aS'f25'
p453
aa(lp454
S'f2'
p455
aS'f3'
p456
aS'f5'
p457
aS'f6'
p458
aS'f7'
p459
aS'f8'
p460
aS'f9'
p461
aS'f11'
p462
aS'f12'
p463
aS'f13'
p464
aS'f15'
p465
aS'f17'
p466
aS'f20'
p467
aS'f21'
p468
aS'f22'
p469
aS'f23'
p470
aS'f25'
p471
aa(lp472
S'f1'
p473
aS'f2'
p474
aS'f3'
p475
aS'f4'
p476
aS'f5'
p477
aS'f7'
p478
aS'f8'
p479
aS'f9'
p480
aS'f12'
p481
aS'f13'
p482
aS'f14'
p483
aS'f15'
p484
aS'f16'
p485
aS'f19'
p486
aS'f20'
p487
aS'f21'
p488
aS'f23'
p489
aS'f25'
p490
aasS'LM'
p491
(lp492
(lp493
I20
aI15
aS'.'
p494
ag494
ag494
ag494
aI6
ag494
aI62
ag494
aI31
aI0
aI12
ag494
ag494
ag494
aI62
ag494
aI0
aI5
aI21
aI30
ag494
ag494
aI0
aa(lp495
I0
aI12
aI6
ag494
ag494
aI20
ag494
aI8
aI3
ag494
aI5
aI6
aI10
aI10
ag494
aI6
aI5
aI0
ag494
aI30
aI5
ag494
aI4
ag494
aI60
aa(lp496
I54
aI36
aI0
ag494
ag494
aI36
aI0
aI12
aI9
aI0
ag494
ag494
aI12
aI12
ag494
aI18
aI24
aI45
ag494
aI18
aI36
ag494
ag494
ag494
ag494
aa(lp497
I10
aI0
ag494
ag494
ag494
aI51
aI17
aI35
ag494
ag494
ag494
aI0
ag494
ag494
ag494
aI0
aI0
aI21
aI0
aI7
aI14
ag494
aI11
ag494
aI35
aa(lp498
I0
ag494
ag494
ag494
ag494
ag494
ag494
ag494
ag494
ag494
aI7
aI7
ag494
ag494
ag494
ag494
aI43
aI0
ag494
aI14
aI14
ag494
aI14
aI0
aI0
aa(lp499
I0
aI9
aI28
aI9
ag494
ag494
aI0
aI56
aI28
ag494
aI0
aI4
aI14
ag494
aI0
ag494
aI12
aI10
ag494
aI0
aI9
aI4
aI0
ag494
aI28
aa(lp500
I4
aI4
aI0
ag494
ag494
ag494
ag494
aI5
aI3
ag494
aI2
aI22
ag494
ag494
aI0
ag494
aI11
ag494
aI5
aI1
aI0
ag494
aI6
ag494
ag494
aa(lp501
I0
aI16
aI17
ag494
aI22
ag494
ag494
aI10
aI102
ag494
aI0
aI0
ag494
aI15
aI70
ag494
aI16
aI44
aI105
aI11
aI17
aI0
aI0
aI34
aI0
aa(lp502
I6
ag494
aI5
ag494
ag494
ag494
aI18
aI5
aI5
ag494
ag494
aI25
ag494
ag494
aI25
ag494
aI6
ag494
ag494
ag494
aI12
ag494
ag494
ag494
aI0
aa(lp503
I0
aI8
ag494
ag494
ag494
aI38
ag494
aI36
ag494
ag494
aI3
aI24
ag494
ag494
aI19
aI0
aI8
aI0
aI3
aI8
aI19
aI12
aI0
aI3
aI3
aa(lp504
I20
aI3
ag494
ag494
ag494
aI6
aI40
aI100
aI5
ag494
aI20
aI10
ag494
aI60
aI6
aI0
aI40
ag494
ag494
ag494
aI6
ag494
aI8
ag494
aI6
aa(lp505
I0
aI0
aI15
ag494
aI5
ag494
aI93
aI14
aI14
ag494
aI5
aI30
aI7
aI10
aI0
ag494
aI30
aI5
aI14
aI0
aI62
ag494
ag494
aI30
aI124
aa(lp506
I10
aI12
aI40
ag494
aI6
aI20
aI4
aI12
ag494
ag494
aI6
aI12
ag494
aI40
ag494
aI24
ag494
ag494
aI20
ag494
aI40
ag494
aI12
aI10
ag494
aa(lp507
I22
aI5
aI5
ag494
ag494
aI14
ag494
aI22
aI44
ag494
ag494
aI20
ag494
aI0
aI10
ag494
aI0
ag494
aI7
aI16
aI10
ag494
aI22
ag494
aI22
aa(lp508
I26
aI4
aI16
ag494
ag494
aI8
aI20
aI0
ag494
ag494
ag494
aI0
ag494
aI16
aI0
aI13
aI18
aI26
aI5
aI25
aI8
aI16
ag494
ag494
ag494
aa(lp509
I3
aI15
aI4
ag494
ag494
aI10
aI3
aI0
aI25
ag494
aI15
aI10
ag494
aI30
aI25
aI2
aI9
ag494
aI5
ag494
aI4
aI7
aI21
aI7
aI14
aa(lp510
I4
ag494
ag494
ag494
ag494
aI8
aI6
aI11
aI0
ag494
aI44
aI4
aI44
aI3
ag494
ag494
aI22
aI3
aI0
aI8
aI22
ag494
ag494
ag494
aI0
aa(lp511
I16
aI0
ag494
aI0
ag494
aI2
ag494
aI0
ag494
ag494
aI10
aI10
aI4
aI51
aI2
ag494
aI4
ag494
aI0
aI0
aI2
ag494
ag494
aI0
aI4
aa(lp512
I6
ag494
aI0
ag494
ag494
ag494
ag494
aI14
aI10
ag494
aI7
aI30
aI10
ag494
ag494
ag494
aI5
ag494
aI18
aI15
aI30
ag494
aI14
ag494
aI30
aa(lp513
I4
aI10
ag494
ag494
ag494
ag494
ag494
aI10
aI0
ag494
aI4
aI5
ag494
aI4
ag494
aI18
aI0
ag494
ag494
aI4
aI13
aI16
ag494
aI8
ag494
aa(lp514
I0
aI5
aI0
ag494
ag494
aI27
ag494
aI10
aI0
ag494
aI4
aI54
ag494
aI26
ag494
ag494
aI0
ag494
aI0
aI27
ag494
ag494
aI9
ag494
ag494
aa(lp515
I4
aI0
ag494
ag494
ag494
aI25
aI25
aI0
aI8
ag494
aI5
aI18
aI6
aI8
aI16
aI25
aI0
ag494
ag494
ag494
aI16
ag494
aI0
aI12
aI0
aa(lp516
I13
aI38
aI38
ag494
ag494
ag494
aI38
ag494
aI0
ag494
aI78
ag494
ag494
aI18
aI0
aI39
aI7
ag494
aI6
aI0
aI0
ag494
aI0
ag494
aI38
aa(lp517
I12
aI3
aI4
ag494
ag494
ag494
ag494
aI0
ag494
ag494
ag494
aI0
aI45
aI18
aI54
aI18
aI12
ag494
ag494
aI0
aI4
ag494
ag494
ag494
aI4
aa(lp518
I10
aI5
ag494
ag494
ag494
aI0
ag494
aI0
aI5
ag494
aI12
aI0
ag494
aI0
aI0
aI8
aI56
aI84
ag494
aI0
aI0
ag494
ag494
aI0
aI16
aa(lp519
I13
ag494
aI45
ag494
aI18
ag494
aI5
aI0
aI13
aI9
aI0
aI9
ag494
ag494
ag494
ag494
aI9
aI12
aI0
ag494
aI15
ag494
aI0
ag494
aI12
aa(lp520
I3
aI3
aI15
ag494
aI14
aI14
ag494
aI6
aI5
ag494
aI6
aI14
aI14
aI3
aI6
aI15
aI35
ag494
aI4
aI3
aI10
ag494
ag494
ag494
ag494
aa(lp521
I32
aI0
aI22
ag494
ag494
ag494
ag494
aI5
aI12
ag494
aI16
ag494
ag494
ag494
aI24
aI15
aI18
ag494
aI24
ag494
aI0
ag494
aI11
aI0
aI0
aa(lp522
g494
aI4
aI6
ag494
aI6
aI0
aI0
aI10
aI12
ag494
aI26
aI52
aI8
ag494
aI8
ag494
aI20
ag494
ag494
aI30
aI16
aI13
aI0
ag494
aI24
aa(lp523
I120
aI14
aI30
aI0
aI150
ag494
aI10
aI30
aI0
ag494
ag494
aI0
aI30
aI30
aI14
aI20
ag494
ag494
aI20
aI28
aI0
ag494
aI75
ag494
aI0
aasS'D'
p524
(lp525
cnumpy.core.multiarray
_reconstruct
p526
(cnumpy
ndarray
p527
(I0
tp528
S'b'
p529
tp530
Rp531
(I1
(I6
tp532
cnumpy
dtype
p533
(S'i8'
p534
I0
I1
tp535
Rp536
(I3
S'<'
p537
NNNI-1
I-1
I0
tp538
bI00
S'\xc4\x00\x00\x00\x00\x00\x00\x00\xd4\x00\x00\x00\x00\x00\x00\x00V\x00\x00\x00\x00\x00\x00\x00\xcc\x00\x00\x00\x00\x00\x00\x00T\x00\x00\x00\x00\x00\x00\x00\x9c\x00\x00\x00\x00\x00\x00\x00'
p539
tp540
bag526
(g527
(I0
tp541
g529
tp542
Rp543
(I1
(I6
tp544
g536
I00
S'\x05\x00\x00\x00\x00\x00\x00\x00\x91\x00\x00\x00\x00\x00\x00\x00\x8e\x00\x00\x00\x00\x00\x00\x00!\x00\x00\x00\x00\x00\x00\x00N\x00\x00\x00\x00\x00\x00\x00\xd3\x00\x00\x00\x00\x00\x00\x00'
p545
tp546
bag526
(g527
(I0
tp547
g529
tp548
Rp549
(I1
(I6
tp550
g536
I00
S'K\x00\x00\x00\x00\x00\x00\x00\xf0\x00\x00\x00\x00\x00\x00\x00\x03\x01\x00\x00\x00\x00\x00\x00\x05\x01\x00\x00\x00\x00\x00\x00\x83\x00\x00\x00\x00\x00\x00\x00{\x00\x00\x00\x00\x00\x00\x00'
p551
tp552
bag526
(g527
(I0
tp553
g529
tp554
Rp555
(I1
(I6
tp556
g536
I00
S'\xd2\x00\x00\x00\x00\x00\x00\x00\xce\x00\x00\x00\x00\x00\x00\x00\x02\x01\x00\x00\x00\x00\x00\x00\xd7\x00\x00\x00\x00\x00\x00\x00\xad\x00\x00\x00\x00\x00\x00\x00\x04\x00\x00\x00\x00\x00\x00\x00'
p557
tp558
bag526
(g527
(I0
tp559
g529
tp560
Rp561
(I1
(I6
tp562
g536
I00
S'\xd5\x00\x00\x00\x00\x00\x00\x00w\x00\x00\x00\x00\x00\x00\x00\x1d\x01\x00\x00\x00\x00\x00\x00\x17\x01\x00\x00\x00\x00\x00\x00\xb4\x00\x00\x00\x00\x00\x00\x00\xf2\x00\x00\x00\x00\x00\x00\x00'
p563
tp564
bag526
(g527
(I0
tp565
g529
tp566
Rp567
(I1
(I6
tp568
g536
I00
S'\x8c\x00\x00\x00\x00\x00\x00\x00!\x00\x00\x00\x00\x00\x00\x00\xc1\x00\x00\x00\x00\x00\x00\x00_\x00\x00\x00\x00\x00\x00\x00\x9e\x00\x00\x00\x00\x00\x00\x00\xf5\x00\x00\x00\x00\x00\x00\x00'
p569
tp570
bag526
(g527
(I0
tp571
g529
tp572
Rp573
(I1
(I6
tp574
g536
I00
S'\x0f\x00\x00\x00\x00\x00\x00\x00\x16\x00\x00\x00\x00\x00\x00\x00,\x00\x00\x00\x00\x00\x00\x00@\x00\x00\x00\x00\x00\x00\x00\x89\x00\x00\x00\x00\x00\x00\x008\x00\x00\x00\x00\x00\x00\x00'
p575
tp576
bag526
(g527
(I0
tp577
g529
tp578
Rp579
(I1
(I6
tp580
g536
I00
S'\xc7\x00\x00\x00\x00\x00\x00\x00M\x00\x00\x00\x00\x00\x00\x00\xed\x00\x00\x00\x00\x00\x00\x00\xdb\x00\x00\x00\x00\x00\x00\x00\x8f\x00\x00\x00\x00\x00\x00\x00\xb2\x00\x00\x00\x00\x00\x00\x00'
p581
tp582
bag526
(g527
(I0
tp583
g529
tp584
Rp585
(I1
(I6
tp586
g536
I00
S'X\x00\x00\x00\x00\x00\x00\x00\xd4\x00\x00\x00\x00\x00\x00\x00\x0b\x01\x00\x00\x00\x00\x00\x00O\x00\x00\x00\x00\x00\x00\x00o\x00\x00\x00\x00\x00\x00\x00\x08\x00\x00\x00\x00\x00\x00\x00'
p587
tp588
bag526
(g527
(I0
tp589
g529
tp590
Rp591
(I1
(I6
tp592
g536
I00
S'\x96\x00\x00\x00\x00\x00\x00\x00\\\x00\x00\x00\x00\x00\x00\x00\x9b\x00\x00\x00\x00\x00\x00\x00B\x00\x00\x00\x00\x00\x00\x004\x00\x00\x00\x00\x00\x00\x008\x00\x00\x00\x00\x00\x00\x00'
p593
tp594
bag526
(g527
(I0
tp595
g529
tp596
Rp597
(I1
(I6
tp598
g536
I00
S'E\x00\x00\x00\x00\x00\x00\x00O\x00\x00\x00\x00\x00\x00\x00U\x00\x00\x00\x00\x00\x00\x00_\x00\x00\x00\x00\x00\x00\x00\xac\x00\x00\x00\x00\x00\x00\x00e\x00\x00\x00\x00\x00\x00\x00'
p599
tp600
bag526
(g527
(I0
tp601
g529
tp602
Rp603
(I1
(I6
tp604
g536
I00
S'i\x00\x00\x00\x00\x00\x00\x00~\x00\x00\x00\x00\x00\x00\x00\x0b\x01\x00\x00\x00\x00\x00\x00\xa1\x00\x00\x00\x00\x00\x00\x00\x83\x00\x00\x00\x00\x00\x00\x00\x9a\x00\x00\x00\x00\x00\x00\x00'
p605
tp606
bag526
(g527
(I0
tp607
g529
tp608
Rp609
(I1
(I6
tp610
g536
I00
S')\x00\x00\x00\x00\x00\x00\x004\x00\x00\x00\x00\x00\x00\x00\xbc\x00\x00\x00\x00\x00\x00\x003\x00\x00\x00\x00\x00\x00\x00(\x00\x00\x00\x00\x00\x00\x00\xe9\x00\x00\x00\x00\x00\x00\x00'
p611
tp612
bag526
(g527
(I0
tp613
g529
tp614
Rp615
(I1
(I6
tp616
g536
I00
S'\xc2\x00\x00\x00\x00\x00\x00\x00G\x00\x00\x00\x00\x00\x00\x00f\x00\x00\x00\x00\x00\x00\x00\xc3\x00\x00\x00\x00\x00\x00\x00A\x00\x00\x00\x00\x00\x00\x006\x00\x00\x00\x00\x00\x00\x00'
p617
tp618
bag526
(g527
(I0
tp619
g529
tp620
Rp621
(I1
(I6
tp622
g536
I00
S'\x8c\x00\x00\x00\x00\x00\x00\x00\x8a\x00\x00\x00\x00\x00\x00\x00\xa9\x00\x00\x00\x00\x00\x00\x00o\x00\x00\x00\x00\x00\x00\x00C\x00\x00\x00\x00\x00\x00\x00\xb0\x00\x00\x00\x00\x00\x00\x00'
p623
tp624
bag526
(g527
(I0
tp625
g529
tp626
Rp627
(I1
(I6
tp628
g536
I00
S'n\x00\x00\x00\x00\x00\x00\x00\x05\x00\x00\x00\x00\x00\x00\x00B\x00\x00\x00\x00\x00\x00\x00v\x00\x00\x00\x00\x00\x00\x00 \x00\x00\x00\x00\x00\x00\x00|\x00\x00\x00\x00\x00\x00\x00'
p629
tp630
bag526
(g527
(I0
tp631
g529
tp632
Rp633
(I1
(I6
tp634
g536
I00
S'\xab\x00\x00\x00\x00\x00\x00\x00\xba\x00\x00\x00\x00\x00\x00\x00\x1b\x00\x00\x00\x00\x00\x00\x003\x00\x00\x00\x00\x00\x00\x00D\x00\x00\x00\x00\x00\x00\x00\xa7\x00\x00\x00\x00\x00\x00\x00'
p635
tp636
bag526
(g527
(I0
tp637
g529
tp638
Rp639
(I1
(I6
tp640
g536
I00
S'\x16\x00\x00\x00\x00\x00\x00\x00\x8b\x00\x00\x00\x00\x00\x00\x00\xaa\x00\x00\x00\x00\x00\x00\x00A\x00\x00\x00\x00\x00\x00\x00(\x00\x00\x00\x00\x00\x00\x00V\x00\x00\x00\x00\x00\x00\x00'
p641
tp642
bag526
(g527
(I0
tp643
g529
tp644
Rp645
(I1
(I6
tp646
g536
I00
S'\xea\x00\x00\x00\x00\x00\x00\x00\x82\x00\x00\x00\x00\x00\x00\x00\x88\x00\x00\x00\x00\x00\x00\x00\x95\x00\x00\x00\x00\x00\x00\x00\x10\x00\x00\x00\x00\x00\x00\x00\x05\x01\x00\x00\x00\x00\x00\x00'
p647
tp648
bag526
(g527
(I0
tp649
g529
tp650
Rp651
(I1
(I6
tp652
g536
I00
S'\xb5\x00\x00\x00\x00\x00\x00\x00t\x00\x00\x00\x00\x00\x00\x00\xba\x00\x00\x00\x00\x00\x00\x00L\x00\x00\x00\x00\x00\x00\x00u\x00\x00\x00\x00\x00\x00\x00\x9a\x00\x00\x00\x00\x00\x00\x00'
p653
tp654
bag526
(g527
(I0
tp655
g529
tp656
Rp657
(I1
(I6
tp658
g536
I00
S'\xd2\x00\x00\x00\x00\x00\x00\x00\x18\x00\x00\x00\x00\x00\x00\x00\x17\x00\x00\x00\x00\x00\x00\x00p\x00\x00\x00\x00\x00\x00\x00\xe3\x00\x00\x00\x00\x00\x00\x00\xe9\x00\x00\x00\x00\x00\x00\x00'
p659
tp660
bag526
(g527
(I0
tp661
g529
tp662
Rp663
(I1
(I6
tp664
g536
I00
S'v\x00\x00\x00\x00\x00\x00\x00&\x00\x00\x00\x00\x00\x00\x00\xf1\x00\x00\x00\x00\x00\x00\x00u\x00\x00\x00\x00\x00\x00\x00i\x00\x00\x00\x00\x00\x00\x00\x8a\x00\x00\x00\x00\x00\x00\x00'
p665
tp666
bag526
(g527
(I0
tp667
g529
tp668
Rp669
(I1
(I6
tp670
g536
I00
S'\xa1\x00\x00\x00\x00\x00\x00\x00\xfe\x00\x00\x00\x00\x00\x00\x00\xec\x00\x00\x00\x00\x00\x00\x00\xac\x00\x00\x00\x00\x00\x00\x00\xdd\x00\x00\x00\x00\x00\x00\x00\x80\x00\x00\x00\x00\x00\x00\x00'
p671
tp672
bag526
(g527
(I0
tp673
g529
tp674
Rp675
(I1
(I6
tp676
g536
I00
S'\x9e\x00\x00\x00\x00\x00\x00\x00W\x00\x00\x00\x00\x00\x00\x00+\x00\x00\x00\x00\x00\x00\x00\x19\x00\x00\x00\x00\x00\x00\x00o\x00\x00\x00\x00\x00\x00\x00t\x00\x00\x00\x00\x00\x00\x00'
p677
tp678
bag526
(g527
(I0
tp679
g529
tp680
Rp681
(I1
(I6
tp682
g536
I00
S't\x00\x00\x00\x00\x00\x00\x00\xdc\x00\x00\x00\x00\x00\x00\x00\x83\x00\x00\x00\x00\x00\x00\x00\xcf\x00\x00\x00\x00\x00\x00\x00\xa5\x00\x00\x00\x00\x00\x00\x00\x1a\x00\x00\x00\x00\x00\x00\x00'
p683
tp684
bag526
(g527
(I0
tp685
g529
tp686
Rp687
(I1
(I6
tp688
g536
I00
S'\xbc\x00\x00\x00\x00\x00\x00\x00\x96\x00\x00\x00\x00\x00\x00\x00~\x00\x00\x00\x00\x00\x00\x003\x00\x00\x00\x00\x00\x00\x00\xa4\x00\x00\x00\x00\x00\x00\x00\x93\x00\x00\x00\x00\x00\x00\x00'
p689
tp690
bag526
(g527
(I0
tp691
g529
tp692
Rp693
(I1
(I6
tp694
g536
I00
S'\x18\x00\x00\x00\x00\x00\x00\x00\x05\x00\x00\x00\x00\x00\x00\x00V\x00\x00\x00\x00\x00\x00\x00p\x00\x00\x00\x00\x00\x00\x00\x85\x00\x00\x00\x00\x00\x00\x00p\x00\x00\x00\x00\x00\x00\x00'
p695
tp696
bag526
(g527
(I0
tp697
g529
tp698
Rp699
(I1
(I6
tp700
g536
I00
S'\xd0\x00\x00\x00\x00\x00\x00\x00\x9b\x00\x00\x00\x00\x00\x00\x00\xda\x00\x00\x00\x00\x00\x00\x003\x00\x00\x00\x00\x00\x00\x00\xd8\x00\x00\x00\x00\x00\x00\x00\xa9\x00\x00\x00\x00\x00\x00\x00'
p701
tp702
bag526
(g527
(I0
tp703
g529
tp704
Rp705
(I1
(I6
tp706
g536
I00
S'\xce\x00\x00\x00\x00\x00\x00\x00#\x00\x00\x00\x00\x00\x00\x00\x89\x00\x00\x00\x00\x00\x00\x00t\x00\x00\x00\x00\x00\x00\x00C\x00\x00\x00\x00\x00\x00\x00\xf6\x00\x00\x00\x00\x00\x00\x00'
p707
tp708
bag526
(g527
(I0
tp709
g529
tp710
Rp711
(I1
(I6
tp712
g536
I00
S'\xd9\x00\x00\x00\x00\x00\x00\x00\xc8\x00\x00\x00\x00\x00\x00\x00;\x00\x00\x00\x00\x00\x00\x00m\x00\x00\x00\x00\x00\x00\x00\xa3\x00\x00\x00\x00\x00\x00\x00\xa1\x00\x00\x00\x00\x00\x00\x00'
p713
tp714
basS'F'
p715
(lp716
S'f1'
p717
aS'f2'
p718
aS'f3'
p719
aS'f4'
p720
aS'f5'
p721
aS'f6'
p722
aS'f7'
p723
aS'f8'
p724
aS'f9'
p725
aS'f10'
p726
aS'f11'
p727
aS'f12'
p728
aS'f13'
p729
aS'f14'
p730
aS'f15'
p731
aS'f16'
p732
aS'f17'
p733
aS'f18'
p734
aS'f19'
p735
aS'f20'
p736
aS'f21'
p737
aS'f22'
p738
aS'f23'
p739
aS'f24'
p740
aS'f25'
p741
asS's0'
p742
(lp743
I0
aI0
aI0
aI0
aI0
aI0
aI0
aI0
aI0
aI0
aI0
aI0
aI0
aI0
aI0
aI0
aI0
aI0
aI0
aI0
aI0
aI0
aI0
aI0
aI0
aI0
aI0
aI0
aI0
aI0
asS'lambd'
p744
(lp745
F0.0011818541817650526
aF0.00120779396431265
aF0.0011460585608011554
aF0.0011316079898644276
aF0.001182480035860175
aF0.001202632188907182
aF0.0011154695386055194
aF0.001166956683037007
aF0.001149598896818963
aF0.0011685904652787836
aF0.0011419900296440362
aF0.0011627334836550414
aF0.0011839345154145478
aF0.0011544192717949909
aF0.0011966325654032312
aF0.0011334228702220036
aF0.001127084587714574
aF0.0011903888704512238
aF0.0011598867039944924
aF0.0011309198007537044
aF0.0011991462924114933
aF0.001178439957216685
aF0.0011847905409581598
aF0.0011691542242969726
aF0.0011610049070615068
aF0.001178437074004081
aF0.0011377531196854905
aF0.0011457660684390406
aF0.0011440848344323842
aF0.0011289360507017703
asS'n'
p746
I6
sS'P'
p747
(lp748
S'P1'
p749
aS'P2'
p750
aS'P3'
p751
aS'P4'
p752
aS'P5'
p753
aS'P6'
p754
aS'P7'
p755
aS'P8'
p756
aS'P9'
p757
aS'P10'
p758
aS'P11'
p759
aS'P12'
p760
aS'P13'
p761
aS'P14'
p762
aS'P15'
p763
aS'P16'
p764
aS'P17'
p765
aS'P18'
p766
aS'P19'
p767
aS'P20'
p768
aS'P21'
p769
aS'P22'
p770
aS'P23'
p771
aS'P24'
p772
aS'P25'
p773
aS'P26'
p774
aS'P27'
p775
aS'P28'
p776
aS'P29'
p777
aS'P30'
p778
asS'LT'
p779
(lp780
(lp781
I3
aI2
ag494
ag494
ag494
ag494
aI1
ag494
aI0
ag494
aI2
aI0
aI1
ag494
ag494
ag494
aI0
ag494
aI0
aI0
aI2
aI1
ag494
ag494
aI2
aa(lp782
I0
aI1
aI0
ag494
ag494
aI0
ag494
aI1
aI1
ag494
aI1
aI1
aI1
aI0
ag494
aI1
aI1
aI2
ag494
aI0
aI1
ag494
aI2
ag494
aI2
aa(lp783
I2
aI1
aI1
ag494
ag494
aI2
aI0
aI2
aI1
aI1
ag494
ag494
aI1
aI3
ag494
aI2
aI1
aI0
ag494
aI2
aI0
ag494
ag494
ag494
ag494
aa(lp784
I0
aI1
ag494
ag494
ag494
aI0
aI1
aI3
ag494
ag494
ag494
aI0
ag494
ag494
ag494
aI1
aI3
aI0
aI1
aI2
aI1
ag494
aI0
ag494
aI1
aa(lp785
I0
ag494
ag494
ag494
ag494
ag494
ag494
ag494
ag494
ag494
aI0
aI0
ag494
ag494
ag494
ag494
aI2
aI2
ag494
aI0
aI2
ag494
aI1
aI0
aI0
aa(lp786
I2
aI0
aI2
aI1
ag494
ag494
aI1
aI1
aI0
ag494
aI0
aI2
aI0
ag494
aI3
ag494
aI1
aI0
ag494
aI0
aI0
aI0
aI0
ag494
aI0
aa(lp787
I1
aI4
aI1
ag494
ag494
ag494
ag494
aI1
aI2
ag494
aI2
aI1
ag494
ag494
aI0
ag494
aI3
ag494
aI2
aI1
aI0
ag494
aI1
ag494
ag494
aa(lp788
I0
aI1
aI1
ag494
aI1
ag494
ag494
aI1
aI4
ag494
aI1
aI0
ag494
aI1
aI0
ag494
aI0
aI0
aI1
aI1
aI2
aI1
aI0
aI2
aI0
aa(lp789
I2
ag494
aI0
ag494
ag494
ag494
aI1
aI2
aI0
ag494
ag494
aI1
ag494
ag494
aI1
ag494
aI1
ag494
ag494
ag494
aI3
ag494
ag494
ag494
aI0
aa(lp790
I1
aI0
ag494
ag494
ag494
aI1
ag494
aI4
ag494
ag494
aI0
aI1
ag494
ag494
aI1
aI2
aI0
aI3
aI0
aI2
aI0
aI1
aI1
aI0
aI0
aa(lp791
I1
aI0
ag494
ag494
ag494
aI3
aI0
aI0
aI4
ag494
aI1
aI1
ag494
aI2
aI2
aI0
aI2
ag494
ag494
ag494
aI1
ag494
aI1
ag494
aI0
aa(lp792
I0
aI2
aI0
ag494
aI0
ag494
aI0
aI0
aI0
ag494
aI0
aI1
aI1
aI1
aI2
ag494
aI2
aI0
aI0
aI1
aI2
ag494
ag494
aI0
aI0
aa(lp793
I1
aI1
aI1
ag494
aI1
aI0
aI0
aI2
ag494
ag494
aI2
aI1
ag494
aI0
ag494
aI1
ag494
ag494
aI0
ag494
aI0
ag494
aI2
aI1
ag494
aa(lp794
I0
aI1
aI1
ag494
ag494
aI2
ag494
aI2
aI2
ag494
ag494
aI0
ag494
aI1
aI1
ag494
aI0
ag494
aI0
aI0
aI0
ag494
aI0
ag494
aI1
aa(lp795
I2
aI1
aI1
ag494
ag494
aI2
aI2
aI1
ag494
ag494
ag494
aI2
ag494
aI1
aI0
aI4
aI1
aI3
aI0
aI1
aI1
aI1
ag494
ag494
ag494
aa(lp796
I0
aI0
aI0
ag494
ag494
aI1
aI2
aI0
aI0
ag494
aI0
aI2
ag494
aI0
aI1
aI2
aI2
ag494
aI1
ag494
aI1
aI0
aI1
aI0
aI0
aa(lp797
I1
ag494
ag494
ag494
ag494
aI2
aI0
aI1
aI1
ag494
aI2
aI0
aI0
aI0
ag494
ag494
aI1
aI0
aI0
aI2
aI2
ag494
ag494
ag494
aI0
aa(lp798
I2
aI0
ag494
aI0
ag494
aI1
ag494
aI0
ag494
ag494
aI2
aI0
aI1
aI2
aI0
ag494
aI2
ag494
aI3
aI0
aI2
ag494
ag494
aI0
aI1
aa(lp799
I0
ag494
aI0
ag494
ag494
ag494
ag494
aI3
aI2
ag494
aI0
aI0
aI2
ag494
ag494
ag494
aI2
ag494
aI1
aI0
aI1
ag494
aI1
ag494
aI0
aa(lp800
I1
aI2
ag494
ag494
ag494
ag494
ag494
aI0
aI3
ag494
aI1
aI0
ag494
aI3
ag494
aI0
aI1
ag494
ag494
aI2
aI2
aI1
ag494
aI0
ag494
aa(lp801
I0
aI3
aI2
ag494
ag494
aI0
ag494
aI0
aI1
ag494
aI3
aI0
ag494
aI0
ag494
ag494
aI0
ag494
aI0
aI0
ag494
ag494
aI0
ag494
ag494
aa(lp802
I1
aI1
ag494
ag494
ag494
aI2
aI2
aI1
aI1
ag494
aI2
aI0
aI1
aI0
aI0
aI1
aI1
ag494
ag494
ag494
aI0
ag494
aI0
aI2
aI1
aa(lp803
I1
aI2
aI1
ag494
ag494
ag494
aI2
ag494
aI1
ag494
aI1
ag494
ag494
aI3
aI1
aI0
aI0
ag494
aI1
aI0
aI3
ag494
aI2
ag494
aI0
aa(lp804
I0
aI0
aI0
ag494
ag494
ag494
ag494
aI0
ag494
ag494
ag494
aI1
aI2
aI3
aI0
aI0
aI0
ag494
ag494
aI2
aI1
ag494
ag494
ag494
aI1
aa(lp805
I3
aI1
ag494
ag494
ag494
aI2
ag494
aI1
aI2
ag494
aI1
aI0
ag494
aI1
aI1
aI3
aI0
aI1
ag494
aI0
aI1
ag494
ag494
aI1
aI2
aa(lp806
I0
ag494
aI1
ag494
aI2
ag494
aI1
aI1
aI1
aI2
aI1
aI2
ag494
ag494
ag494
ag494
aI3
aI1
aI2
ag494
aI1
ag494
aI3
ag494
aI1
aa(lp807
I0
aI0
aI1
ag494
aI1
aI0
ag494
aI2
aI0
ag494
aI0
aI1
aI0
aI1
aI2
aI0
aI1
ag494
aI2
aI1
aI0
ag494
ag494
ag494
ag494
aa(lp808
I1
aI1
aI1
ag494
ag494
ag494
ag494
aI1
aI1
ag494
aI3
ag494
ag494
ag494
aI1
aI0
aI1
ag494
aI2
ag494
aI0
ag494
aI0
aI1
aI2
aa(lp809
g494
aI4
aI1
ag494
aI0
aI2
aI2
aI1
aI1
ag494
aI2
aI0
aI0
ag494
aI1
ag494
aI1
ag494
ag494
aI2
aI2
aI0
aI0
ag494
aI1
aa(lp810
I3
aI1
aI0
aI0
aI0
ag494
aI1
aI0
aI0
ag494
ag494
aI1
aI0
aI1
aI0
aI2
ag494
ag494
aI0
aI0
aI2
ag494
aI0
ag494
aI2
aasS'beta'
p811
(lp812
(lp813
cnumpy.core.multiarray
scalar
p814
(g536
S'\x1e\x00\x00\x00\x00\x00\x00\x00'
p815
tp816
Rp817
ag814
(g536
S'\n\x00\x00\x00\x00\x00\x00\x00'
p818
tp819
Rp820
ag494
ag494
ag494
ag494
ag814
(g536
S'\x19\x00\x00\x00\x00\x00\x00\x00'
p821
tp822
Rp823
ag494
ag814
(g536
S'\x05\x00\x00\x00\x00\x00\x00\x00'
p824
tp825
Rp826
ag494
ag814
(g536
S'\x05\x00\x00\x00\x00\x00\x00\x00'
p827
tp828
Rp829
ag814
(g536
S'\x19\x00\x00\x00\x00\x00\x00\x00'
p830
tp831
Rp832
ag814
(g536
S'\x19\x00\x00\x00\x00\x00\x00\x00'
p833
tp834
Rp835
ag494
ag494
ag494
ag814
(g536
S'\x05\x00\x00\x00\x00\x00\x00\x00'
p836
tp837
Rp838
ag494
ag814
(g536
S'\x19\x00\x00\x00\x00\x00\x00\x00'
p839
tp840
Rp841
ag814
(g536
S'\x1e\x00\x00\x00\x00\x00\x00\x00'
p842
tp843
Rp844
ag814
(g536
S'\x14\x00\x00\x00\x00\x00\x00\x00'
p845
tp846
Rp847
ag814
(g536
S'\x0f\x00\x00\x00\x00\x00\x00\x00'
p848
tp849
Rp850
ag494
ag494
ag814
(g536
S'\x0f\x00\x00\x00\x00\x00\x00\x00'
p851
tp852
Rp853
aa(lp854
g814
(g536
S'\x19\x00\x00\x00\x00\x00\x00\x00'
p855
tp856
Rp857
ag814
(g536
S'\x19\x00\x00\x00\x00\x00\x00\x00'
p858
tp859
Rp860
ag814
(g536
S'\x1e\x00\x00\x00\x00\x00\x00\x00'
p861
tp862
Rp863
ag494
ag494
ag814
(g536
S'\n\x00\x00\x00\x00\x00\x00\x00'
p864
tp865
Rp866
ag494
ag814
(g536
S'\x19\x00\x00\x00\x00\x00\x00\x00'
p867
tp868
Rp869
ag814
(g536
S'\x1e\x00\x00\x00\x00\x00\x00\x00'
p870
tp871
Rp872
ag494
ag814
(g536
S'\x14\x00\x00\x00\x00\x00\x00\x00'
p873
tp874
Rp875
ag814
(g536
S'\x0f\x00\x00\x00\x00\x00\x00\x00'
p876
tp877
Rp878
ag814
(g536
S'\n\x00\x00\x00\x00\x00\x00\x00'
p879
tp880
Rp881
ag814
(g536
S'\x14\x00\x00\x00\x00\x00\x00\x00'
p882
tp883
Rp884
ag494
ag814
(g536
S'\x1e\x00\x00\x00\x00\x00\x00\x00'
p885
tp886
Rp887
ag814
(g536
S'\x14\x00\x00\x00\x00\x00\x00\x00'
p888
tp889
Rp890
ag814
(g536
S'\x19\x00\x00\x00\x00\x00\x00\x00'
p891
tp892
Rp893
ag494
ag814
(g536
S'\n\x00\x00\x00\x00\x00\x00\x00'
p894
tp895
Rp896
ag814
(g536
S'\x14\x00\x00\x00\x00\x00\x00\x00'
p897
tp898
Rp899
ag494
ag814
(g536
S'\x19\x00\x00\x00\x00\x00\x00\x00'
p900
tp901
Rp902
ag494
ag814
(g536
S'\x05\x00\x00\x00\x00\x00\x00\x00'
p903
tp904
Rp905
aa(lp906
g814
(g536
S'\n\x00\x00\x00\x00\x00\x00\x00'
p907
tp908
Rp909
ag814
(g536
S'\x05\x00\x00\x00\x00\x00\x00\x00'
p910
tp911
Rp912
ag814
(g536
S'\n\x00\x00\x00\x00\x00\x00\x00'
p913
tp914
Rp915
ag494
ag494
ag814
(g536
S'\n\x00\x00\x00\x00\x00\x00\x00'
p916
tp917
Rp918
ag814
(g536
S'\x19\x00\x00\x00\x00\x00\x00\x00'
p919
tp920
Rp921
ag814
(g536
S'\x1e\x00\x00\x00\x00\x00\x00\x00'
p922
tp923
Rp924
ag814
(g536
S'\x14\x00\x00\x00\x00\x00\x00\x00'
p925
tp926
Rp927
ag814
(g536
S'\x14\x00\x00\x00\x00\x00\x00\x00'
p928
tp929
Rp930
ag494
ag494
ag814
(g536
S'\x0f\x00\x00\x00\x00\x00\x00\x00'
p931
tp932
Rp933
ag814
(g536
S'\x0f\x00\x00\x00\x00\x00\x00\x00'
p934
tp935
Rp936
ag494
ag814
(g536
S'\n\x00\x00\x00\x00\x00\x00\x00'
p937
tp938
Rp939
ag814
(g536
S'\x0f\x00\x00\x00\x00\x00\x00\x00'
p940
tp941
Rp942
ag814
(g536
S'\x14\x00\x00\x00\x00\x00\x00\x00'
p943
tp944
Rp945
ag494
ag814
(g536
S'\n\x00\x00\x00\x00\x00\x00\x00'
p946
tp947
Rp948
ag814
(g536
S'\x05\x00\x00\x00\x00\x00\x00\x00'
p949
tp950
Rp951
ag494
ag494
ag494
ag494
aa(lp952
g814
(g536
S'\x1e\x00\x00\x00\x00\x00\x00\x00'
p953
tp954
Rp955
ag814
(g536
S'\x19\x00\x00\x00\x00\x00\x00\x00'
p956
tp957
Rp958
ag494
ag494
ag494
ag814
(g536
S'\n\x00\x00\x00\x00\x00\x00\x00'
p959
tp960
Rp961
ag814
(g536
S'\n\x00\x00\x00\x00\x00\x00\x00'
p962
tp963
Rp964
ag814
(g536
S'\x05\x00\x00\x00\x00\x00\x00\x00'
p965
tp966
Rp967
ag494
ag494
ag494
ag814
(g536
S'\x19\x00\x00\x00\x00\x00\x00\x00'
p968
tp969
Rp970
ag494
ag494
ag494
ag814
(g536
S'\n\x00\x00\x00\x00\x00\x00\x00'
p971
tp972
Rp973
ag814
(g536
S'\x05\x00\x00\x00\x00\x00\x00\x00'
p974
tp975
Rp976
ag814
(g536
S'\x19\x00\x00\x00\x00\x00\x00\x00'
p977
tp978
Rp979
ag814
(g536
S'\x05\x00\x00\x00\x00\x00\x00\x00'
p980
tp981
Rp982
ag814
(g536
S'\x19\x00\x00\x00\x00\x00\x00\x00'
p983
tp984
Rp985
ag814
(g536
S'\x19\x00\x00\x00\x00\x00\x00\x00'
p986
tp987
Rp988
ag494
ag814
(g536
S'\x0f\x00\x00\x00\x00\x00\x00\x00'
p989
tp990
Rp991
ag494
ag814
(g536
S'\x05\x00\x00\x00\x00\x00\x00\x00'
p992
tp993
Rp994
aa(lp995
g814
(g536
S'\x05\x00\x00\x00\x00\x00\x00\x00'
p996
tp997
Rp998
ag494
ag494
ag494
ag494
ag494
ag494
ag494
ag494
ag494
ag814
(g536
S'\x1e\x00\x00\x00\x00\x00\x00\x00'
p999
tp1000
Rp1001
ag814
(g536
S'\x1e\x00\x00\x00\x00\x00\x00\x00'
p1002
tp1003
Rp1004
ag494
ag494
ag494
ag494
ag814
(g536
S'\x05\x00\x00\x00\x00\x00\x00\x00'
p1005
tp1006
Rp1007
ag814
(g536
S'\x0f\x00\x00\x00\x00\x00\x00\x00'
p1008
tp1009
Rp1010
ag494
ag814
(g536
S'\x0f\x00\x00\x00\x00\x00\x00\x00'
p1011
tp1012
Rp1013
ag814
(g536
S'\x0f\x00\x00\x00\x00\x00\x00\x00'
p1014
tp1015
Rp1016
ag494
ag814
(g536
S'\x1e\x00\x00\x00\x00\x00\x00\x00'
p1017
tp1018
Rp1019
ag814
(g536
S'\x05\x00\x00\x00\x00\x00\x00\x00'
p1020
tp1021
Rp1022
ag814
(g536
S'\x1e\x00\x00\x00\x00\x00\x00\x00'
p1023
tp1024
Rp1025
aa(lp1026
g814
(g536
S'\x14\x00\x00\x00\x00\x00\x00\x00'
p1027
tp1028
Rp1029
ag814
(g536
S'\x0f\x00\x00\x00\x00\x00\x00\x00'
p1030
tp1031
Rp1032
ag814
(g536
S'\x05\x00\x00\x00\x00\x00\x00\x00'
p1033
tp1034
Rp1035
ag814
(g536
S'\x0f\x00\x00\x00\x00\x00\x00\x00'
p1036
tp1037
Rp1038
ag494
ag494
ag814
(g536
S'\x14\x00\x00\x00\x00\x00\x00\x00'
p1039
tp1040
Rp1041
ag814
(g536
S'\x05\x00\x00\x00\x00\x00\x00\x00'
p1042
tp1043
Rp1044
ag814
(g536
S'\n\x00\x00\x00\x00\x00\x00\x00'
p1045
tp1046
Rp1047
ag494
ag814
(g536
S'\x0f\x00\x00\x00\x00\x00\x00\x00'
p1048
tp1049
Rp1050
ag814
(g536
S'\x1e\x00\x00\x00\x00\x00\x00\x00'
p1051
tp1052
Rp1053
ag814
(g536
S'\x14\x00\x00\x00\x00\x00\x00\x00'
p1054
tp1055
Rp1056
ag494
ag814
(g536
S'\n\x00\x00\x00\x00\x00\x00\x00'
p1057
tp1058
Rp1059
ag494
ag814
(g536
S'\x1e\x00\x00\x00\x00\x00\x00\x00'
p1060
tp1061
Rp1062
ag814
(g536
S'\x19\x00\x00\x00\x00\x00\x00\x00'
p1063
tp1064
Rp1065
ag494
ag814
(g536
S'\x19\x00\x00\x00\x00\x00\x00\x00'
p1066
tp1067
Rp1068
ag814
(g536
S'\x0f\x00\x00\x00\x00\x00\x00\x00'
p1069
tp1070
Rp1071
ag814
(g536
S'\x1e\x00\x00\x00\x00\x00\x00\x00'
p1072
tp1073
Rp1074
ag814
(g536
S'\x1e\x00\x00\x00\x00\x00\x00\x00'
p1075
tp1076
Rp1077
ag494
ag814
(g536
S'\n\x00\x00\x00\x00\x00\x00\x00'
p1078
tp1079
Rp1080
aa(lp1081
g814
(g536
S'\x19\x00\x00\x00\x00\x00\x00\x00'
p1082
tp1083
Rp1084
ag814
(g536
S'\x19\x00\x00\x00\x00\x00\x00\x00'
p1085
tp1086
Rp1087
ag814
(g536
S'\x05\x00\x00\x00\x00\x00\x00\x00'
p1088
tp1089
Rp1090
ag494
ag494
ag494
ag494
ag814
(g536
S'\n\x00\x00\x00\x00\x00\x00\x00'
p1091
tp1092
Rp1093
ag814
(g536
S'\x0f\x00\x00\x00\x00\x00\x00\x00'
p1094
tp1095
Rp1096
ag494
ag814
(g536
S'\x14\x00\x00\x00\x00\x00\x00\x00'
p1097
tp1098
Rp1099
ag814
(g536
S'\x05\x00\x00\x00\x00\x00\x00\x00'
p1100
tp1101
Rp1102
ag494
ag494
ag814
(g536
S'\x14\x00\x00\x00\x00\x00\x00\x00'
p1103
tp1104
Rp1105
ag494
ag814
(g536
S'\x05\x00\x00\x00\x00\x00\x00\x00'
p1106
tp1107
Rp1108
ag494
ag814
(g536
S'\n\x00\x00\x00\x00\x00\x00\x00'
p1109
tp1110
Rp1111
ag814
(g536
S'\x1e\x00\x00\x00\x00\x00\x00\x00'
p1112
tp1113
Rp1114
ag814
(g536
S'\x19\x00\x00\x00\x00\x00\x00\x00'
p1115
tp1116
Rp1117
ag494
ag814
(g536
S'\x0f\x00\x00\x00\x00\x00\x00\x00'
p1118
tp1119
Rp1120
ag494
ag494
aa(lp1121
g814
(g536
S'\x19\x00\x00\x00\x00\x00\x00\x00'
p1122
tp1123
Rp1124
ag814
(g536
S'\x14\x00\x00\x00\x00\x00\x00\x00'
p1125
tp1126
Rp1127
ag814
(g536
S'\n\x00\x00\x00\x00\x00\x00\x00'
p1128
tp1129
Rp1130
ag494
ag814
(g536
S'\x0f\x00\x00\x00\x00\x00\x00\x00'
p1131
tp1132
Rp1133
ag494
ag494
ag814
(g536
S'\x1e\x00\x00\x00\x00\x00\x00\x00'
p1134
tp1135
Rp1136
ag814
(g536
S'\n\x00\x00\x00\x00\x00\x00\x00'
p1137
tp1138
Rp1139
ag494
ag814
(g536
S'\x1e\x00\x00\x00\x00\x00\x00\x00'
p1140
tp1141
Rp1142
ag814
(g536
S'\x0f\x00\x00\x00\x00\x00\x00\x00'
p1143
tp1144
Rp1145
ag494
ag814
(g536
S'\x1e\x00\x00\x00\x00\x00\x00\x00'
p1146
tp1147
Rp1148
ag814
(g536
S'\x05\x00\x00\x00\x00\x00\x00\x00'
p1149
tp1150
Rp1151
ag494
ag814
(g536
S'\x14\x00\x00\x00\x00\x00\x00\x00'
p1152
tp1153
Rp1154
ag814
(g536
S'\x0f\x00\x00\x00\x00\x00\x00\x00'
p1155
tp1156
Rp1157
ag814
(g536
S'\x05\x00\x00\x00\x00\x00\x00\x00'
p1158
tp1159
Rp1160
ag814
(g536
S'\x0f\x00\x00\x00\x00\x00\x00\x00'
p1161
tp1162
Rp1163
ag814
(g536
S'\n\x00\x00\x00\x00\x00\x00\x00'
p1164
tp1165
Rp1166
ag814
(g536
S'\n\x00\x00\x00\x00\x00\x00\x00'
p1167
tp1168
Rp1169
ag814
(g536
S'\n\x00\x00\x00\x00\x00\x00\x00'
p1170
tp1171
Rp1172
ag814
(g536
S'\n\x00\x00\x00\x00\x00\x00\x00'
p1173
tp1174
Rp1175
ag814
(g536
S'\x1e\x00\x00\x00\x00\x00\x00\x00'
p1176
tp1177
Rp1178
aa(lp1179
g814
(g536
S'\x14\x00\x00\x00\x00\x00\x00\x00'
p1180
tp1181
Rp1182
ag494
ag814
(g536
S'\x19\x00\x00\x00\x00\x00\x00\x00'
p1183
tp1184
Rp1185
ag494
ag494
ag494
ag814
(g536
S'\x14\x00\x00\x00\x00\x00\x00\x00'
p1186
tp1187
Rp1188
ag814
(g536
S'\x19\x00\x00\x00\x00\x00\x00\x00'
p1189
tp1190
Rp1191
ag814
(g536
S'\x19\x00\x00\x00\x00\x00\x00\x00'
p1192
tp1193
Rp1194
ag494
ag494
ag814
(g536
S'\x05\x00\x00\x00\x00\x00\x00\x00'
p1195
tp1196
Rp1197
ag494
ag494
ag814
(g536
S'\x05\x00\x00\x00\x00\x00\x00\x00'
p1198
tp1199
Rp1200
ag494
ag814
(g536
S'\x14\x00\x00\x00\x00\x00\x00\x00'
p1201
tp1202
Rp1203
ag494
ag494
ag494
ag814
(g536
S'\x14\x00\x00\x00\x00\x00\x00\x00'
p1204
tp1205
Rp1206
ag494
ag494
ag494
ag814
(g536
S'\n\x00\x00\x00\x00\x00\x00\x00'
p1207
tp1208
Rp1209
aa(lp1210
g814
(g536
S'\x14\x00\x00\x00\x00\x00\x00\x00'
p1211
tp1212
Rp1213
ag814
(g536
S'\x14\x00\x00\x00\x00\x00\x00\x00'
p1214
tp1215
Rp1216
ag494
ag494
ag494
ag814
(g536
S'\x05\x00\x00\x00\x00\x00\x00\x00'
p1217
tp1218
Rp1219
ag494
ag814
(g536
S'\n\x00\x00\x00\x00\x00\x00\x00'
p1220
tp1221
Rp1222
ag494
ag494
ag814
(g536
S'\x19\x00\x00\x00\x00\x00\x00\x00'
p1223
tp1224
Rp1225
ag814
(g536
S'\x0f\x00\x00\x00\x00\x00\x00\x00'
p1226
tp1227
Rp1228
ag494
ag494
ag814
(g536
S'\x05\x00\x00\x00\x00\x00\x00\x00'
p1229
tp1230
Rp1231
ag814
(g536
S'\x1e\x00\x00\x00\x00\x00\x00\x00'
p1232
tp1233
Rp1234
ag814
(g536
S'\x14\x00\x00\x00\x00\x00\x00\x00'
p1235
tp1236
Rp1237
ag814
(g536
S'\n\x00\x00\x00\x00\x00\x00\x00'
p1238
tp1239
Rp1240
ag814
(g536
S'\x19\x00\x00\x00\x00\x00\x00\x00'
p1241
tp1242
Rp1243
ag814
(g536
S'\x14\x00\x00\x00\x00\x00\x00\x00'
p1244
tp1245
Rp1246
ag814
(g536
S'\x05\x00\x00\x00\x00\x00\x00\x00'
p1247
tp1248
Rp1249
ag814
(g536
S'\x0f\x00\x00\x00\x00\x00\x00\x00'
p1250
tp1251
Rp1252
ag814
(g536
S'\x0f\x00\x00\x00\x00\x00\x00\x00'
p1253
tp1254
Rp1255
ag814
(g536
S'\x1e\x00\x00\x00\x00\x00\x00\x00'
p1256
tp1257
Rp1258
ag814
(g536
S'\x1e\x00\x00\x00\x00\x00\x00\x00'
p1259
tp1260
Rp1261
aa(lp1262
g814
(g536
S'\n\x00\x00\x00\x00\x00\x00\x00'
p1263
tp1264
Rp1265
ag814
(g536
S'\x1e\x00\x00\x00\x00\x00\x00\x00'
p1266
tp1267
Rp1268
ag494
ag494
ag494
ag814
(g536
S'\x0f\x00\x00\x00\x00\x00\x00\x00'
p1269
tp1270
Rp1271
ag814
(g536
S'\x05\x00\x00\x00\x00\x00\x00\x00'
p1272
tp1273
Rp1274
ag814
(g536
S'\x05\x00\x00\x00\x00\x00\x00\x00'
p1275
tp1276
Rp1277
ag814
(g536
S'\x14\x00\x00\x00\x00\x00\x00\x00'
p1278
tp1279
Rp1280
ag494
ag814
(g536
S'\n\x00\x00\x00\x00\x00\x00\x00'
p1281
tp1282
Rp1283
ag814
(g536
S'\x14\x00\x00\x00\x00\x00\x00\x00'
p1284
tp1285
Rp1286
ag494
ag814
(g536
S'\x05\x00\x00\x00\x00\x00\x00\x00'
p1287
tp1288
Rp1289
ag814
(g536
S'\x0f\x00\x00\x00\x00\x00\x00\x00'
p1290
tp1291
Rp1292
ag814
(g536
S'\x19\x00\x00\x00\x00\x00\x00\x00'
p1293
tp1294
Rp1295
ag814
(g536
S'\x05\x00\x00\x00\x00\x00\x00\x00'
p1296
tp1297
Rp1298
ag494
ag494
ag494
ag814
(g536
S'\x0f\x00\x00\x00\x00\x00\x00\x00'
p1299
tp1300
Rp1301
ag494
ag814
(g536
S'\x19\x00\x00\x00\x00\x00\x00\x00'
p1302
tp1303
Rp1304
ag494
ag814
(g536
S'\x1e\x00\x00\x00\x00\x00\x00\x00'
p1305
tp1306
Rp1307
aa(lp1308
g814
(g536
S'\n\x00\x00\x00\x00\x00\x00\x00'
p1309
tp1310
Rp1311
ag814
(g536
S'\x0f\x00\x00\x00\x00\x00\x00\x00'
p1312
tp1313
Rp1314
ag814
(g536
S'\x1e\x00\x00\x00\x00\x00\x00\x00'
p1315
tp1316
Rp1317
ag494
ag814
(g536
S'\x1e\x00\x00\x00\x00\x00\x00\x00'
p1318
tp1319
Rp1320
ag494
ag814
(g536
S'\x05\x00\x00\x00\x00\x00\x00\x00'
p1321
tp1322
Rp1323
ag814
(g536
S'\x14\x00\x00\x00\x00\x00\x00\x00'
p1324
tp1325
Rp1326
ag814
(g536
S'\x14\x00\x00\x00\x00\x00\x00\x00'
p1327
tp1328
Rp1329
ag494
ag814
(g536
S'\x1e\x00\x00\x00\x00\x00\x00\x00'
p1330
tp1331
Rp1332
ag814
(g536
S'\n\x00\x00\x00\x00\x00\x00\x00'
p1333
tp1334
Rp1335
ag814
(g536
S'\x14\x00\x00\x00\x00\x00\x00\x00'
p1336
tp1337
Rp1338
ag814
(g536
S'\x1e\x00\x00\x00\x00\x00\x00\x00'
p1339
tp1340
Rp1341
ag814
(g536
S'\x1e\x00\x00\x00\x00\x00\x00\x00'
p1342
tp1343
Rp1344
ag494
ag814
(g536
S'\n\x00\x00\x00\x00\x00\x00\x00'
p1345
tp1346
Rp1347
ag814
(g536
S'\x1e\x00\x00\x00\x00\x00\x00\x00'
p1348
tp1349
Rp1350
ag814
(g536
S'\x14\x00\x00\x00\x00\x00\x00\x00'
p1351
tp1352
Rp1353
ag814
(g536
S'\x19\x00\x00\x00\x00\x00\x00\x00'
p1354
tp1355
Rp1356
ag814
(g536
S'\x05\x00\x00\x00\x00\x00\x00\x00'
p1357
tp1358
Rp1359
ag494
ag494
ag814
(g536
S'\n\x00\x00\x00\x00\x00\x00\x00'
p1360
tp1361
Rp1362
ag814
(g536
S'\x05\x00\x00\x00\x00\x00\x00\x00'
p1363
tp1364
Rp1365
aa(lp1366
g814
(g536
S'\x14\x00\x00\x00\x00\x00\x00\x00'
p1367
tp1368
Rp1369
ag814
(g536
S'\x1e\x00\x00\x00\x00\x00\x00\x00'
p1370
tp1371
Rp1372
ag814
(g536
S'\x05\x00\x00\x00\x00\x00\x00\x00'
p1373
tp1374
Rp1375
ag494
ag814
(g536
S'\x1e\x00\x00\x00\x00\x00\x00\x00'
p1376
tp1377
Rp1378
ag814
(g536
S'\x05\x00\x00\x00\x00\x00\x00\x00'
p1379
tp1380
Rp1381
ag814
(g536
S'\x19\x00\x00\x00\x00\x00\x00\x00'
p1382
tp1383
Rp1384
ag814
(g536
S'\x19\x00\x00\x00\x00\x00\x00\x00'
p1385
tp1386
Rp1387
ag494
ag494
ag814
(g536
S'\x1e\x00\x00\x00\x00\x00\x00\x00'
p1388
tp1389
Rp1390
ag814
(g536
S'\x19\x00\x00\x00\x00\x00\x00\x00'
p1391
tp1392
Rp1393
ag494
ag814
(g536
S'\n\x00\x00\x00\x00\x00\x00\x00'
p1394
tp1395
Rp1396
ag494
ag814
(g536
S'\x0f\x00\x00\x00\x00\x00\x00\x00'
p1397
tp1398
Rp1399
ag494
ag494
ag814
(g536
S'\n\x00\x00\x00\x00\x00\x00\x00'
p1400
tp1401
Rp1402
ag494
ag814
(g536
S'\x05\x00\x00\x00\x00\x00\x00\x00'
p1403
tp1404
Rp1405
ag494
ag814
(g536
S'\x0f\x00\x00\x00\x00\x00\x00\x00'
p1406
tp1407
Rp1408
ag814
(g536
S'\x14\x00\x00\x00\x00\x00\x00\x00'
p1409
tp1410
Rp1411
ag494
aa(lp1412
g814
(g536
S'\x05\x00\x00\x00\x00\x00\x00\x00'
p1413
tp1414
Rp1415
ag814
(g536
S'\x14\x00\x00\x00\x00\x00\x00\x00'
p1416
tp1417
Rp1418
ag814
(g536
S'\x14\x00\x00\x00\x00\x00\x00\x00'
p1419
tp1420
Rp1421
ag494
ag494
ag814
(g536
S'\x0f\x00\x00\x00\x00\x00\x00\x00'
p1422
tp1423
Rp1424
ag494
ag814
(g536
S'\n\x00\x00\x00\x00\x00\x00\x00'
p1425
tp1426
Rp1427
ag814
(g536
S'\x05\x00\x00\x00\x00\x00\x00\x00'
p1428
tp1429
Rp1430
ag494
ag494
ag814
(g536
S'\x14\x00\x00\x00\x00\x00\x00\x00'
p1431
tp1432
Rp1433
ag494
ag814
(g536
S'\x0f\x00\x00\x00\x00\x00\x00\x00'
p1434
tp1435
Rp1436
ag814
(g536
S'\x14\x00\x00\x00\x00\x00\x00\x00'
p1437
tp1438
Rp1439
ag494
ag814
(g536
S'\n\x00\x00\x00\x00\x00\x00\x00'
p1440
tp1441
Rp1442
ag494
ag814
(g536
S'\x0f\x00\x00\x00\x00\x00\x00\x00'
p1443
tp1444
Rp1445
ag814
(g536
S'\x19\x00\x00\x00\x00\x00\x00\x00'
p1446
tp1447
Rp1448
ag814
(g536
S'\x14\x00\x00\x00\x00\x00\x00\x00'
p1449
tp1450
Rp1451
ag494
ag814
(g536
S'\n\x00\x00\x00\x00\x00\x00\x00'
p1452
tp1453
Rp1454
ag494
ag814
(g536
S'\x05\x00\x00\x00\x00\x00\x00\x00'
p1455
tp1456
Rp1457
aa(lp1458
g814
(g536
S'\n\x00\x00\x00\x00\x00\x00\x00'
p1459
tp1460
Rp1461
ag814
(g536
S'\x1e\x00\x00\x00\x00\x00\x00\x00'
p1462
tp1463
Rp1464
ag814
(g536
S'\x0f\x00\x00\x00\x00\x00\x00\x00'
p1465
tp1466
Rp1467
ag494
ag494
ag814
(g536
S'\x1e\x00\x00\x00\x00\x00\x00\x00'
p1468
tp1469
Rp1470
ag814
(g536
S'\x19\x00\x00\x00\x00\x00\x00\x00'
p1471
tp1472
Rp1473
ag814
(g536
S'\x05\x00\x00\x00\x00\x00\x00\x00'
p1474
tp1475
Rp1476
ag494
ag494
ag494
ag814
(g536
S'\x1e\x00\x00\x00\x00\x00\x00\x00'
p1477
tp1478
Rp1479
ag494
ag814
(g536
S'\x1e\x00\x00\x00\x00\x00\x00\x00'
p1480
tp1481
Rp1482
ag814
(g536
S'\x19\x00\x00\x00\x00\x00\x00\x00'
p1483
tp1484
Rp1485
ag814
(g536
S'\n\x00\x00\x00\x00\x00\x00\x00'
p1486
tp1487
Rp1488
ag814
(g536
S'\x14\x00\x00\x00\x00\x00\x00\x00'
p1489
tp1490
Rp1491
ag814
(g536
S'\n\x00\x00\x00\x00\x00\x00\x00'
p1492
tp1493
Rp1494
ag814
(g536
S'\x19\x00\x00\x00\x00\x00\x00\x00'
p1495
tp1496
Rp1497
ag814
(g536
S'\x19\x00\x00\x00\x00\x00\x00\x00'
p1498
tp1499
Rp1500
ag814
(g536
S'\x0f\x00\x00\x00\x00\x00\x00\x00'
p1501
tp1502
Rp1503
ag814
(g536
S'\x1e\x00\x00\x00\x00\x00\x00\x00'
p1504
tp1505
Rp1506
ag494
ag494
ag494
aa(lp1507
g814
(g536
S'\x19\x00\x00\x00\x00\x00\x00\x00'
p1508
tp1509
Rp1510
ag814
(g536
S'\x05\x00\x00\x00\x00\x00\x00\x00'
p1511
tp1512
Rp1513
ag814
(g536
S'\x1e\x00\x00\x00\x00\x00\x00\x00'
p1514
tp1515
Rp1516
ag494
ag494
ag814
(g536
S'\x0f\x00\x00\x00\x00\x00\x00\x00'
p1517
tp1518
Rp1519
ag814
(g536
S'\x14\x00\x00\x00\x00\x00\x00\x00'
p1520
tp1521
Rp1522
ag814
(g536
S'\x1e\x00\x00\x00\x00\x00\x00\x00'
p1523
tp1524
Rp1525
ag814
(g536
S'\x0f\x00\x00\x00\x00\x00\x00\x00'
p1526
tp1527
Rp1528
ag494
ag814
(g536
S'\x05\x00\x00\x00\x00\x00\x00\x00'
p1529
tp1530
Rp1531
ag814
(g536
S'\x0f\x00\x00\x00\x00\x00\x00\x00'
p1532
tp1533
Rp1534
ag494
ag814
(g536
S'\x05\x00\x00\x00\x00\x00\x00\x00'
p1535
tp1536
Rp1537
ag814
(g536
S'\x0f\x00\x00\x00\x00\x00\x00\x00'
p1538
tp1539
Rp1540
ag814
(g536
S'\x1e\x00\x00\x00\x00\x00\x00\x00'
p1541
tp1542
Rp1543
ag814
(g536
S'\x14\x00\x00\x00\x00\x00\x00\x00'
p1544
tp1545
Rp1546
ag494
ag814
(g536
S'\x0f\x00\x00\x00\x00\x00\x00\x00'
p1547
tp1548
Rp1549
ag494
ag814
(g536
S'\x1e\x00\x00\x00\x00\x00\x00\x00'
p1550
tp1551
Rp1552
ag814
(g536
S'\n\x00\x00\x00\x00\x00\x00\x00'
p1553
tp1554
Rp1555
ag814
(g536
S'\n\x00\x00\x00\x00\x00\x00\x00'
p1556
tp1557
Rp1558
ag814
(g536
S'\n\x00\x00\x00\x00\x00\x00\x00'
p1559
tp1560
Rp1561
ag814
(g536
S'\n\x00\x00\x00\x00\x00\x00\x00'
p1562
tp1563
Rp1564
aa(lp1565
g814
(g536
S'\x19\x00\x00\x00\x00\x00\x00\x00'
p1566
tp1567
Rp1568
ag494
ag494
ag494
ag494
ag814
(g536
S'\x19\x00\x00\x00\x00\x00\x00\x00'
p1569
tp1570
Rp1571
ag814
(g536
S'\x1e\x00\x00\x00\x00\x00\x00\x00'
p1572
tp1573
Rp1574
ag814
(g536
S'\n\x00\x00\x00\x00\x00\x00\x00'
p1575
tp1576
Rp1577
ag814
(g536
S'\x14\x00\x00\x00\x00\x00\x00\x00'
p1578
tp1579
Rp1580
ag494
ag814
(g536
S'\x05\x00\x00\x00\x00\x00\x00\x00'
p1581
tp1582
Rp1583
ag814
(g536
S'\x19\x00\x00\x00\x00\x00\x00\x00'
p1584
tp1585
Rp1586
ag814
(g536
S'\x05\x00\x00\x00\x00\x00\x00\x00'
p1587
tp1588
Rp1589
ag814
(g536
S'\x1e\x00\x00\x00\x00\x00\x00\x00'
p1590
tp1591
Rp1592
ag494
ag494
ag814
(g536
S'\x05\x00\x00\x00\x00\x00\x00\x00'
p1593
tp1594
Rp1595
ag814
(g536
S'\x1e\x00\x00\x00\x00\x00\x00\x00'
p1596
tp1597
Rp1598
ag814
(g536
S'\n\x00\x00\x00\x00\x00\x00\x00'
p1599
tp1600
Rp1601
ag814
(g536
S'\x19\x00\x00\x00\x00\x00\x00\x00'
p1602
tp1603
Rp1604
ag814
(g536
S'\n\x00\x00\x00\x00\x00\x00\x00'
p1605
tp1606
Rp1607
ag494
ag494
ag494
ag814
(g536
S'\x19\x00\x00\x00\x00\x00\x00\x00'
p1608
tp1609
Rp1610
aa(lp1611
g814
(g536
S'\n\x00\x00\x00\x00\x00\x00\x00'
p1612
tp1613
Rp1614
ag814
(g536
S'\n\x00\x00\x00\x00\x00\x00\x00'
p1615
tp1616
Rp1617
ag494
ag814
(g536
S'\x05\x00\x00\x00\x00\x00\x00\x00'
p1618
tp1619
Rp1620
ag494
ag814
(g536
S'\x1e\x00\x00\x00\x00\x00\x00\x00'
p1621
tp1622
Rp1623
ag494
ag814
(g536
S'\x1e\x00\x00\x00\x00\x00\x00\x00'
p1624
tp1625
Rp1626
ag494
ag494
ag814
(g536
S'\x0f\x00\x00\x00\x00\x00\x00\x00'
p1627
tp1628
Rp1629
ag814
(g536
S'\x0f\x00\x00\x00\x00\x00\x00\x00'
p1630
tp1631
Rp1632
ag814
(g536
S'\x1e\x00\x00\x00\x00\x00\x00\x00'
p1633
tp1634
Rp1635
ag814
(g536
S'\x05\x00\x00\x00\x00\x00\x00\x00'
p1636
tp1637
Rp1638
ag814
(g536
S'\x1e\x00\x00\x00\x00\x00\x00\x00'
p1639
tp1640
Rp1641
ag494
ag814
(g536
S'\x14\x00\x00\x00\x00\x00\x00\x00'
p1642
tp1643
Rp1644
ag494
ag814
(g536
S'\x1e\x00\x00\x00\x00\x00\x00\x00'
p1645
tp1646
Rp1647
ag814
(g536
S'\x14\x00\x00\x00\x00\x00\x00\x00'
p1648
tp1649
Rp1650
ag814
(g536
S'\x1e\x00\x00\x00\x00\x00\x00\x00'
p1651
tp1652
Rp1653
ag494
ag494
ag814
(g536
S'\x19\x00\x00\x00\x00\x00\x00\x00'
p1654
tp1655
Rp1656
ag814
(g536
S'\x14\x00\x00\x00\x00\x00\x00\x00'
p1657
tp1658
Rp1659
aa(lp1660
g814
(g536
S'\x19\x00\x00\x00\x00\x00\x00\x00'
p1661
tp1662
Rp1663
ag494
ag814
(g536
S'\x05\x00\x00\x00\x00\x00\x00\x00'
p1664
tp1665
Rp1666
ag494
ag494
ag494
ag494
ag814
(g536
S'\x14\x00\x00\x00\x00\x00\x00\x00'
p1667
tp1668
Rp1669
ag814
(g536
S'\x1e\x00\x00\x00\x00\x00\x00\x00'
p1670
tp1671
Rp1672
ag494
ag814
(g536
S'\x14\x00\x00\x00\x00\x00\x00\x00'
p1673
tp1674
Rp1675
ag814
(g536
S'\x05\x00\x00\x00\x00\x00\x00\x00'
p1676
tp1677
Rp1678
ag814
(g536
S'\x1e\x00\x00\x00\x00\x00\x00\x00'
p1679
tp1680
Rp1681
ag494
ag494
ag494
ag814
(g536
S'\x1e\x00\x00\x00\x00\x00\x00\x00'
p1682
tp1683
Rp1684
ag494
ag814
(g536
S'\x19\x00\x00\x00\x00\x00\x00\x00'
p1685
tp1686
Rp1687
ag814
(g536
S'\n\x00\x00\x00\x00\x00\x00\x00'
p1688
tp1689
Rp1690
ag814
(g536
S'\n\x00\x00\x00\x00\x00\x00\x00'
p1691
tp1692
Rp1693
ag494
ag814
(g536
S'\x14\x00\x00\x00\x00\x00\x00\x00'
p1694
tp1695
Rp1696
ag494
ag814
(g536
S'\x05\x00\x00\x00\x00\x00\x00\x00'
p1697
tp1698
Rp1699
aa(lp1700
g814
(g536
S'\x1e\x00\x00\x00\x00\x00\x00\x00'
p1701
tp1702
Rp1703
ag814
(g536
S'\x19\x00\x00\x00\x00\x00\x00\x00'
p1704
tp1705
Rp1706
ag494
ag494
ag494
ag494
ag494
ag814
(g536
S'\x19\x00\x00\x00\x00\x00\x00\x00'
p1707
tp1708
Rp1709
ag814
(g536
S'\x19\x00\x00\x00\x00\x00\x00\x00'
p1710
tp1711
Rp1712
ag494
ag814
(g536
S'\x1e\x00\x00\x00\x00\x00\x00\x00'
p1713
tp1714
Rp1715
ag814
(g536
S'\x19\x00\x00\x00\x00\x00\x00\x00'
p1716
tp1717
Rp1718
ag494
ag814
(g536
S'\x1e\x00\x00\x00\x00\x00\x00\x00'
p1719
tp1720
Rp1721
ag494
ag814
(g536
S'\x0f\x00\x00\x00\x00\x00\x00\x00'
p1722
tp1723
Rp1724
ag814
(g536
S'\x05\x00\x00\x00\x00\x00\x00\x00'
p1725
tp1726
Rp1727
ag494
ag494
ag814
(g536
S'\x1e\x00\x00\x00\x00\x00\x00\x00'
p1728
tp1729
Rp1730
ag814
(g536
S'\n\x00\x00\x00\x00\x00\x00\x00'
p1731
tp1732
Rp1733
ag814
(g536
S'\x1e\x00\x00\x00\x00\x00\x00\x00'
p1734
tp1735
Rp1736
ag494
ag814
(g536
S'\x1e\x00\x00\x00\x00\x00\x00\x00'
p1737
tp1738
Rp1739
ag494
aa(lp1740
g814
(g536
S'\x14\x00\x00\x00\x00\x00\x00\x00'
p1741
tp1742
Rp1743
ag814
(g536
S'\x19\x00\x00\x00\x00\x00\x00\x00'
p1744
tp1745
Rp1746
ag814
(g536
S'\x1e\x00\x00\x00\x00\x00\x00\x00'
p1747
tp1748
Rp1749
ag494
ag494
ag814
(g536
S'\x05\x00\x00\x00\x00\x00\x00\x00'
p1750
tp1751
Rp1752
ag494
ag814
(g536
S'\x19\x00\x00\x00\x00\x00\x00\x00'
p1753
tp1754
Rp1755
ag814
(g536
S'\x05\x00\x00\x00\x00\x00\x00\x00'
p1756
tp1757
Rp1758
ag494
ag814
(g536
S'\x1e\x00\x00\x00\x00\x00\x00\x00'
p1759
tp1760
Rp1761
ag814
(g536
S'\x05\x00\x00\x00\x00\x00\x00\x00'
p1762
tp1763
Rp1764
ag494
ag814
(g536
S'\n\x00\x00\x00\x00\x00\x00\x00'
p1765
tp1766
Rp1767
ag494
ag494
ag814
(g536
S'\x19\x00\x00\x00\x00\x00\x00\x00'
p1768
tp1769
Rp1770
ag494
ag814
(g536
S'\n\x00\x00\x00\x00\x00\x00\x00'
p1771
tp1772
Rp1773
ag814
(g536
S'\x05\x00\x00\x00\x00\x00\x00\x00'
p1774
tp1775
Rp1776
ag494
ag494
ag814
(g536
S'\x0f\x00\x00\x00\x00\x00\x00\x00'
p1777
tp1778
Rp1779
ag494
ag494
aa(lp1780
g814
(g536
S'\x1e\x00\x00\x00\x00\x00\x00\x00'
p1781
tp1782
Rp1783
ag814
(g536
S'\x14\x00\x00\x00\x00\x00\x00\x00'
p1784
tp1785
Rp1786
ag494
ag494
ag494
ag814
(g536
S'\x05\x00\x00\x00\x00\x00\x00\x00'
p1787
tp1788
Rp1789
ag814
(g536
S'\x05\x00\x00\x00\x00\x00\x00\x00'
p1790
tp1791
Rp1792
ag814
(g536
S'\x1e\x00\x00\x00\x00\x00\x00\x00'
p1793
tp1794
Rp1795
ag814
(g536
S'\x0f\x00\x00\x00\x00\x00\x00\x00'
p1796
tp1797
Rp1798
ag494
ag814
(g536
S'\x19\x00\x00\x00\x00\x00\x00\x00'
p1799
tp1800
Rp1801
ag814
(g536
S'\x14\x00\x00\x00\x00\x00\x00\x00'
p1802
tp1803
Rp1804
ag814
(g536
S'\x14\x00\x00\x00\x00\x00\x00\x00'
p1805
tp1806
Rp1807
ag814
(g536
S'\x1e\x00\x00\x00\x00\x00\x00\x00'
p1808
tp1809
Rp1810
ag814
(g536
S'\x0f\x00\x00\x00\x00\x00\x00\x00'
p1811
tp1812
Rp1813
ag814
(g536
S'\x05\x00\x00\x00\x00\x00\x00\x00'
p1814
tp1815
Rp1816
ag814
(g536
S'\x1e\x00\x00\x00\x00\x00\x00\x00'
p1817
tp1818
Rp1819
ag494
ag494
ag494
ag814
(g536
S'\x0f\x00\x00\x00\x00\x00\x00\x00'
p1820
tp1821
Rp1822
ag494
ag814
(g536
S'\x0f\x00\x00\x00\x00\x00\x00\x00'
p1823
tp1824
Rp1825
ag814
(g536
S'\n\x00\x00\x00\x00\x00\x00\x00'
p1826
tp1827
Rp1828
ag814
(g536
S'\x05\x00\x00\x00\x00\x00\x00\x00'
p1829
tp1830
Rp1831
aa(lp1832
g814
(g536
S'\x0f\x00\x00\x00\x00\x00\x00\x00'
p1833
tp1834
Rp1835
ag814
(g536
S'\n\x00\x00\x00\x00\x00\x00\x00'
p1836
tp1837
Rp1838
ag814
(g536
S'\n\x00\x00\x00\x00\x00\x00\x00'
p1839
tp1840
Rp1841
ag494
ag494
ag494
ag814
(g536
S'\n\x00\x00\x00\x00\x00\x00\x00'
p1842
tp1843
Rp1844
ag494
ag814
(g536
S'\x1e\x00\x00\x00\x00\x00\x00\x00'
p1845
tp1846
Rp1847
ag494
ag814
(g536
S'\x05\x00\x00\x00\x00\x00\x00\x00'
p1848
tp1849
Rp1850
ag494
ag494
ag814
(g536
S'\x14\x00\x00\x00\x00\x00\x00\x00'
p1851
tp1852
Rp1853
ag814
(g536
S'\x14\x00\x00\x00\x00\x00\x00\x00'
p1854
tp1855
Rp1856
ag814
(g536
S'\x05\x00\x00\x00\x00\x00\x00\x00'
p1857
tp1858
Rp1859
ag814
(g536
S'\x19\x00\x00\x00\x00\x00\x00\x00'
p1860
tp1861
Rp1862
ag494
ag814
(g536
S'\x1e\x00\x00\x00\x00\x00\x00\x00'
p1863
tp1864
Rp1865
ag814
(g536
S'\x14\x00\x00\x00\x00\x00\x00\x00'
p1866
tp1867
Rp1868
ag814
(g536
S'\x05\x00\x00\x00\x00\x00\x00\x00'
p1869
tp1870
Rp1871
ag494
ag814
(g536
S'\x0f\x00\x00\x00\x00\x00\x00\x00'
p1872
tp1873
Rp1874
ag494
ag814
(g536
S'\n\x00\x00\x00\x00\x00\x00\x00'
p1875
tp1876
Rp1877
aa(lp1878
g814
(g536
S'\x19\x00\x00\x00\x00\x00\x00\x00'
p1879
tp1880
Rp1881
ag814
(g536
S'\x1e\x00\x00\x00\x00\x00\x00\x00'
p1882
tp1883
Rp1884
ag814
(g536
S'\x14\x00\x00\x00\x00\x00\x00\x00'
p1885
tp1886
Rp1887
ag494
ag494
ag494
ag494
ag814
(g536
S'\x14\x00\x00\x00\x00\x00\x00\x00'
p1888
tp1889
Rp1890
ag494
ag494
ag494
ag814
(g536
S'\n\x00\x00\x00\x00\x00\x00\x00'
p1891
tp1892
Rp1893
ag814
(g536
S'\n\x00\x00\x00\x00\x00\x00\x00'
p1894
tp1895
Rp1896
ag814
(g536
S'\x05\x00\x00\x00\x00\x00\x00\x00'
p1897
tp1898
Rp1899
ag814
(g536
S'\x05\x00\x00\x00\x00\x00\x00\x00'
p1900
tp1901
Rp1902
ag814
(g536
S'\n\x00\x00\x00\x00\x00\x00\x00'
p1903
tp1904
Rp1905
ag814
(g536
S'\x0f\x00\x00\x00\x00\x00\x00\x00'
p1906
tp1907
Rp1908
ag494
ag494
ag814
(g536
S'\x05\x00\x00\x00\x00\x00\x00\x00'
p1909
tp1910
Rp1911
ag814
(g536
S'\x14\x00\x00\x00\x00\x00\x00\x00'
p1912
tp1913
Rp1914
ag494
ag494
ag494
ag814
(g536
S'\x14\x00\x00\x00\x00\x00\x00\x00'
p1915
tp1916
Rp1917
aa(lp1918
g814
(g536
S'\x19\x00\x00\x00\x00\x00\x00\x00'
p1919
tp1920
Rp1921
ag814
(g536
S'\x19\x00\x00\x00\x00\x00\x00\x00'
p1922
tp1923
Rp1924
ag494
ag494
ag494
ag814
(g536
S'\x0f\x00\x00\x00\x00\x00\x00\x00'
p1925
tp1926
Rp1927
ag494
ag814
(g536
S'\x19\x00\x00\x00\x00\x00\x00\x00'
p1928
tp1929
Rp1930
ag814
(g536
S'\x19\x00\x00\x00\x00\x00\x00\x00'
p1931
tp1932
Rp1933
ag494
ag814
(g536
S'\x1e\x00\x00\x00\x00\x00\x00\x00'
p1934
tp1935
Rp1936
ag814
(g536
S'\x19\x00\x00\x00\x00\x00\x00\x00'
p1937
tp1938
Rp1939
ag494
ag814
(g536
S'\x05\x00\x00\x00\x00\x00\x00\x00'
p1940
tp1941
Rp1942
ag814
(g536
S'\x05\x00\x00\x00\x00\x00\x00\x00'
p1943
tp1944
Rp1945
ag814
(g536
S'\x1e\x00\x00\x00\x00\x00\x00\x00'
p1946
tp1947
Rp1948
ag814
(g536
S'\x05\x00\x00\x00\x00\x00\x00\x00'
p1949
tp1950
Rp1951
ag814
(g536
S'\x05\x00\x00\x00\x00\x00\x00\x00'
p1952
tp1953
Rp1954
ag494
ag814
(g536
S'\x14\x00\x00\x00\x00\x00\x00\x00'
p1955
tp1956
Rp1957
ag814
(g536
S'\n\x00\x00\x00\x00\x00\x00\x00'
p1958
tp1959
Rp1960
ag494
ag494
ag814
(g536
S'\x1e\x00\x00\x00\x00\x00\x00\x00'
p1961
tp1962
Rp1963
ag814
(g536
S'\x1e\x00\x00\x00\x00\x00\x00\x00'
p1964
tp1965
Rp1966
aa(lp1967
g814
(g536
S'\n\x00\x00\x00\x00\x00\x00\x00'
p1968
tp1969
Rp1970
ag494
ag814
(g536
S'\x0f\x00\x00\x00\x00\x00\x00\x00'
p1971
tp1972
Rp1973
ag494
ag814
(g536
S'\x0f\x00\x00\x00\x00\x00\x00\x00'
p1974
tp1975
Rp1976
ag494
ag814
(g536
S'\x19\x00\x00\x00\x00\x00\x00\x00'
p1977
tp1978
Rp1979
ag814
(g536
S'\x1e\x00\x00\x00\x00\x00\x00\x00'
p1980
tp1981
Rp1982
ag814
(g536
S'\n\x00\x00\x00\x00\x00\x00\x00'
p1983
tp1984
Rp1985
ag814
(g536
S'\x0f\x00\x00\x00\x00\x00\x00\x00'
p1986
tp1987
Rp1988
ag814
(g536
S'\x05\x00\x00\x00\x00\x00\x00\x00'
p1989
tp1990
Rp1991
ag814
(g536
S'\x0f\x00\x00\x00\x00\x00\x00\x00'
p1992
tp1993
Rp1994
ag494
ag494
ag494
ag494
ag814
(g536
S'\x0f\x00\x00\x00\x00\x00\x00\x00'
p1995
tp1996
Rp1997
ag814
(g536
S'\x1e\x00\x00\x00\x00\x00\x00\x00'
p1998
tp1999
Rp2000
ag814
(g536
S'\n\x00\x00\x00\x00\x00\x00\x00'
p2001
tp2002
Rp2003
ag494
ag814
(g536
S'\x19\x00\x00\x00\x00\x00\x00\x00'
p2004
tp2005
Rp2006
ag494
ag814
(g536
S'\x05\x00\x00\x00\x00\x00\x00\x00'
p2007
tp2008
Rp2009
ag494
ag814
(g536
S'\x1e\x00\x00\x00\x00\x00\x00\x00'
p2010
tp2011
Rp2012
aa(lp2013
g814
(g536
S'\x14\x00\x00\x00\x00\x00\x00\x00'
p2014
tp2015
Rp2016
ag814
(g536
S'\x14\x00\x00\x00\x00\x00\x00\x00'
p2017
tp2018
Rp2019
ag814
(g536
S'\x05\x00\x00\x00\x00\x00\x00\x00'
p2020
tp2021
Rp2022
ag494
ag814
(g536
S'\n\x00\x00\x00\x00\x00\x00\x00'
p2023
tp2024
Rp2025
ag814
(g536
S'\n\x00\x00\x00\x00\x00\x00\x00'
p2026
tp2027
Rp2028
ag494
ag814
(g536
S'\x14\x00\x00\x00\x00\x00\x00\x00'
p2029
tp2030
Rp2031
ag814
(g536
S'\x0f\x00\x00\x00\x00\x00\x00\x00'
p2032
tp2033
Rp2034
ag494
ag814
(g536
S'\x19\x00\x00\x00\x00\x00\x00\x00'
p2035
tp2036
Rp2037
ag814
(g536
S'\n\x00\x00\x00\x00\x00\x00\x00'
p2038
tp2039
Rp2040
ag814
(g536
S'\n\x00\x00\x00\x00\x00\x00\x00'
p2041
tp2042
Rp2043
ag814
(g536
S'\x19\x00\x00\x00\x00\x00\x00\x00'
p2044
tp2045
Rp2046
ag814
(g536
S'\x19\x00\x00\x00\x00\x00\x00\x00'
p2047
tp2048
Rp2049
ag814
(g536
S'\x05\x00\x00\x00\x00\x00\x00\x00'
p2050
tp2051
Rp2052
ag814
(g536
S'\n\x00\x00\x00\x00\x00\x00\x00'
p2053
tp2054
Rp2055
ag494
ag814
(g536
S'\x1e\x00\x00\x00\x00\x00\x00\x00'
p2056
tp2057
Rp2058
ag814
(g536
S'\x14\x00\x00\x00\x00\x00\x00\x00'
p2059
tp2060
Rp2061
ag814
(g536
S'\x0f\x00\x00\x00\x00\x00\x00\x00'
p2062
tp2063
Rp2064
ag494
ag494
ag494
ag494
aa(lp2065
g814
(g536
S'\n\x00\x00\x00\x00\x00\x00\x00'
p2066
tp2067
Rp2068
ag814
(g536
S'\n\x00\x00\x00\x00\x00\x00\x00'
p2069
tp2070
Rp2071
ag814
(g536
S'\x0f\x00\x00\x00\x00\x00\x00\x00'
p2072
tp2073
Rp2074
ag494
ag494
ag494
ag494
ag814
(g536
S'\x1e\x00\x00\x00\x00\x00\x00\x00'
p2075
tp2076
Rp2077
ag814
(g536
S'\x19\x00\x00\x00\x00\x00\x00\x00'
p2078
tp2079
Rp2080
ag494
ag814
(g536
S'\x14\x00\x00\x00\x00\x00\x00\x00'
p2081
tp2082
Rp2083
ag494
ag494
ag494
ag814
(g536
S'\x14\x00\x00\x00\x00\x00\x00\x00'
p2084
tp2085
Rp2086
ag814
(g536
S'\x1e\x00\x00\x00\x00\x00\x00\x00'
p2087
tp2088
Rp2089
ag814
(g536
S'\x19\x00\x00\x00\x00\x00\x00\x00'
p2090
tp2091
Rp2092
ag494
ag814
(g536
S'\x14\x00\x00\x00\x00\x00\x00\x00'
p2093
tp2094
Rp2095
ag494
ag814
(g536
S'\x14\x00\x00\x00\x00\x00\x00\x00'
p2096
tp2097
Rp2098
ag494
ag814
(g536
S'\x0f\x00\x00\x00\x00\x00\x00\x00'
p2099
tp2100
Rp2101
ag814
(g536
S'\x1e\x00\x00\x00\x00\x00\x00\x00'
p2102
tp2103
Rp2104
ag814
(g536
S'\x0f\x00\x00\x00\x00\x00\x00\x00'
p2105
tp2106
Rp2107
aa(lp2108
g494
ag814
(g536
S'\x1e\x00\x00\x00\x00\x00\x00\x00'
p2109
tp2110
Rp2111
ag814
(g536
S'\x14\x00\x00\x00\x00\x00\x00\x00'
p2112
tp2113
Rp2114
ag494
ag814
(g536
S'\x14\x00\x00\x00\x00\x00\x00\x00'
p2115
tp2116
Rp2117
ag814
(g536
S'\x19\x00\x00\x00\x00\x00\x00\x00'
p2118
tp2119
Rp2120
ag814
(g536
S'\x05\x00\x00\x00\x00\x00\x00\x00'
p2121
tp2122
Rp2123
ag814
(g536
S'\x19\x00\x00\x00\x00\x00\x00\x00'
p2124
tp2125
Rp2126
ag814
(g536
S'\x1e\x00\x00\x00\x00\x00\x00\x00'
p2127
tp2128
Rp2129
ag494
ag814
(g536
S'\x05\x00\x00\x00\x00\x00\x00\x00'
p2130
tp2131
Rp2132
ag814
(g536
S'\x05\x00\x00\x00\x00\x00\x00\x00'
p2133
tp2134
Rp2135
ag814
(g536
S'\x0f\x00\x00\x00\x00\x00\x00\x00'
p2136
tp2137
Rp2138
ag494
ag814
(g536
S'\x1e\x00\x00\x00\x00\x00\x00\x00'
p2139
tp2140
Rp2141
ag494
ag814
(g536
S'\x19\x00\x00\x00\x00\x00\x00\x00'
p2142
tp2143
Rp2144
ag494
ag494
ag814
(g536
S'\x14\x00\x00\x00\x00\x00\x00\x00'
p2145
tp2146
Rp2147
ag814
(g536
S'\x0f\x00\x00\x00\x00\x00\x00\x00'
p2148
tp2149
Rp2150
ag814
(g536
S'\n\x00\x00\x00\x00\x00\x00\x00'
p2151
tp2152
Rp2153
ag814
(g536
S'\n\x00\x00\x00\x00\x00\x00\x00'
p2154
tp2155
Rp2156
ag494
ag814
(g536
S'\x0f\x00\x00\x00\x00\x00\x00\x00'
p2157
tp2158
Rp2159
aa(lp2160
g814
(g536
S'\x05\x00\x00\x00\x00\x00\x00\x00'
p2161
tp2162
Rp2163
ag814
(g536
S'\x14\x00\x00\x00\x00\x00\x00\x00'
p2164
tp2165
Rp2166
ag814
(g536
S'\x05\x00\x00\x00\x00\x00\x00\x00'
p2167
tp2168
Rp2169
ag814
(g536
S'\x19\x00\x00\x00\x00\x00\x00\x00'
p2170
tp2171
Rp2172
ag814
(g536
S'\x05\x00\x00\x00\x00\x00\x00\x00'
p2173
tp2174
Rp2175
ag494
ag814
(g536
S'\x0f\x00\x00\x00\x00\x00\x00\x00'
p2176
tp2177
Rp2178
ag814
(g536
S'\n\x00\x00\x00\x00\x00\x00\x00'
p2179
tp2180
Rp2181
ag814
(g536
S'\n\x00\x00\x00\x00\x00\x00\x00'
p2182
tp2183
Rp2184
ag494
ag494
ag814
(g536
S'\x1e\x00\x00\x00\x00\x00\x00\x00'
p2185
tp2186
Rp2187
ag814
(g536
S'\n\x00\x00\x00\x00\x00\x00\x00'
p2188
tp2189
Rp2190
ag814
(g536
S'\x05\x00\x00\x00\x00\x00\x00\x00'
p2191
tp2192
Rp2193
ag814
(g536
S'\x14\x00\x00\x00\x00\x00\x00\x00'
p2194
tp2195
Rp2196
ag814
(g536
S'\x0f\x00\x00\x00\x00\x00\x00\x00'
p2197
tp2198
Rp2199
ag494
ag494
ag814
(g536
S'\x0f\x00\x00\x00\x00\x00\x00\x00'
p2200
tp2201
Rp2202
ag814
(g536
S'\x14\x00\x00\x00\x00\x00\x00\x00'
p2203
tp2204
Rp2205
ag814
(g536
S'\x1e\x00\x00\x00\x00\x00\x00\x00'
p2206
tp2207
Rp2208
ag494
ag814
(g536
S'\n\x00\x00\x00\x00\x00\x00\x00'
p2209
tp2210
Rp2211
ag494
ag814
(g536
S'\x19\x00\x00\x00\x00\x00\x00\x00'
p2212
tp2213
Rp2214
aasS'Pf'
p2215
(lp2216
(lp2217
g814
(g533
(S'S2'
p2218
I0
I1
tp2219
Rp2220
(I3
S'|'
p2221
NNNI2
I1
I0
tp2222
bS'P7'
p2223
tp2224
Rp2225
ag814
(g533
(S'S3'
p2226
I0
I1
tp2227
Rp2228
(I3
S'|'
p2229
NNNI3
I1
I0
tp2230
bS'P17'
p2231
tp2232
Rp2233
ag814
(g533
(S'S3'
p2234
I0
I1
tp2235
Rp2236
(I3
S'|'
p2237
NNNI3
I1
I0
tp2238
bS'P20'
p2239
tp2240
Rp2241
ag814
(g533
(S'S3'
p2242
I0
I1
tp2243
Rp2244
(I3
S'|'
p2245
NNNI3
I1
I0
tp2246
bS'P26'
p2247
tp2248
Rp2249
ag814
(g533
(S'S3'
p2250
I0
I1
tp2251
Rp2252
(I3
S'|'
p2253
NNNI3
I1
I0
tp2254
bS'P14'
p2255
tp2256
Rp2257
ag814
(g533
(S'S2'
p2258
I0
I1
tp2259
Rp2260
(I3
S'|'
p2261
NNNI2
I1
I0
tp2262
bS'P4'
p2263
tp2264
Rp2265
ag814
(g533
(S'S2'
p2266
I0
I1
tp2267
Rp2268
(I3
S'|'
p2269
NNNI2
I1
I0
tp2270
bS'P9'
p2271
tp2272
Rp2273
ag814
(g533
(S'S3'
p2274
I0
I1
tp2275
Rp2276
(I3
S'|'
p2277
NNNI3
I1
I0
tp2278
bS'P18'
p2279
tp2280
Rp2281
ag814
(g533
(S'S2'
p2282
I0
I1
tp2283
Rp2284
(I3
S'|'
p2285
NNNI2
I1
I0
tp2286
bS'P3'
p2287
tp2288
Rp2289
ag814
(g533
(S'S3'
p2290
I0
I1
tp2291
Rp2292
(I3
S'|'
p2293
NNNI3
I1
I0
tp2294
bS'P19'
p2295
tp2296
Rp2297
ag814
(g533
(S'S3'
p2298
I0
I1
tp2299
Rp2300
(I3
S'|'
p2301
NNNI3
I1
I0
tp2302
bS'P13'
p2303
tp2304
Rp2305
ag814
(g533
(S'S3'
p2306
I0
I1
tp2307
Rp2308
(I3
S'|'
p2309
NNNI3
I1
I0
tp2310
bS'P25'
p2311
tp2312
Rp2313
ag814
(g533
(S'S3'
p2314
I0
I1
tp2315
Rp2316
(I3
S'|'
p2317
NNNI3
I1
I0
tp2318
bS'P22'
p2319
tp2320
Rp2321
ag814
(g533
(S'S3'
p2322
I0
I1
tp2323
Rp2324
(I3
S'|'
p2325
NNNI3
I1
I0
tp2326
bS'P28'
p2327
tp2328
Rp2329
ag814
(g533
(S'S3'
p2330
I0
I1
tp2331
Rp2332
(I3
S'|'
p2333
NNNI3
I1
I0
tp2334
bS'P12'
p2335
tp2336
Rp2337
ag814
(g533
(S'S3'
p2338
I0
I1
tp2339
Rp2340
(I3
S'|'
p2341
NNNI3
I1
I0
tp2342
bS'P23'
p2343
tp2344
Rp2345
ag814
(g533
(S'S2'
p2346
I0
I1
tp2347
Rp2348
(I3
S'|'
p2349
NNNI2
I1
I0
tp2350
bS'P5'
p2351
tp2352
Rp2353
ag814
(g533
(S'S3'
p2354
I0
I1
tp2355
Rp2356
(I3
S'|'
p2357
NNNI3
I1
I0
tp2358
bS'P11'
p2359
tp2360
Rp2361
ag814
(g533
(S'S2'
p2362
I0
I1
tp2363
Rp2364
(I3
S'|'
p2365
NNNI2
I1
I0
tp2366
bS'P2'
p2367
tp2368
Rp2369
ag814
(g533
(S'S2'
p2370
I0
I1
tp2371
Rp2372
(I3
S'|'
p2373
NNNI2
I1
I0
tp2374
bS'P6'
p2375
tp2376
Rp2377
ag814
(g533
(S'S3'
p2378
I0
I1
tp2379
Rp2380
(I3
S'|'
p2381
NNNI3
I1
I0
tp2382
bS'P30'
p2383
tp2384
Rp2385
ag814
(g533
(S'S3'
p2386
I0
I1
tp2387
Rp2388
(I3
S'|'
p2389
NNNI3
I1
I0
tp2390
bS'P24'
p2391
tp2392
Rp2393
ag814
(g533
(S'S3'
p2394
I0
I1
tp2395
Rp2396
(I3
S'|'
p2397
NNNI3
I1
I0
tp2398
bS'P16'
p2399
tp2400
Rp2401
ag814
(g533
(S'S3'
p2402
I0
I1
tp2403
Rp2404
(I3
S'|'
p2405
NNNI3
I1
I0
tp2406
bS'P15'
p2407
tp2408
Rp2409
ag814
(g533
(S'S3'
p2410
I0
I1
tp2411
Rp2412
(I3
S'|'
p2413
NNNI3
I1
I0
tp2414
bS'P10'
p2415
tp2416
Rp2417
ag814
(g533
(S'S2'
p2418
I0
I1
tp2419
Rp2420
(I3
S'|'
p2421
NNNI2
I1
I0
tp2422
bS'P1'
p2423
tp2424
Rp2425
ag814
(g533
(S'S2'
p2426
I0
I1
tp2427
Rp2428
(I3
S'|'
p2429
NNNI2
I1
I0
tp2430
bS'P8'
p2431
tp2432
Rp2433
ag814
(g533
(S'S3'
p2434
I0
I1
tp2435
Rp2436
(I3
S'|'
p2437
NNNI3
I1
I0
tp2438
bS'P21'
p2439
tp2440
Rp2441
ag814
(g533
(S'S3'
p2442
I0
I1
tp2443
Rp2444
(I3
S'|'
p2445
NNNI3
I1
I0
tp2446
bS'P27'
p2447
tp2448
Rp2449
aa(lp2450
g814
(g533
(S'S3'
p2451
I0
I1
tp2452
Rp2453
(I3
S'|'
p2454
NNNI3
I1
I0
tp2455
bS'P25'
p2456
tp2457
Rp2458
ag814
(g533
(S'S2'
p2459
I0
I1
tp2460
Rp2461
(I3
S'|'
p2462
NNNI2
I1
I0
tp2463
bS'P2'
p2464
tp2465
Rp2466
ag814
(g533
(S'S2'
p2467
I0
I1
tp2468
Rp2469
(I3
S'|'
p2470
NNNI2
I1
I0
tp2471
bS'P4'
p2472
tp2473
Rp2474
ag814
(g533
(S'S3'
p2475
I0
I1
tp2476
Rp2477
(I3
S'|'
p2478
NNNI3
I1
I0
tp2479
bS'P30'
p2480
tp2481
Rp2482
ag814
(g533
(S'S2'
p2483
I0
I1
tp2484
Rp2485
(I3
S'|'
p2486
NNNI2
I1
I0
tp2487
bS'P8'
p2488
tp2489
Rp2490
ag814
(g533
(S'S3'
p2491
I0
I1
tp2492
Rp2493
(I3
S'|'
p2494
NNNI3
I1
I0
tp2495
bS'P10'
p2496
tp2497
Rp2498
ag814
(g533
(S'S2'
p2499
I0
I1
tp2500
Rp2501
(I3
S'|'
p2502
NNNI2
I1
I0
tp2503
bS'P7'
p2504
tp2505
Rp2506
ag814
(g533
(S'S3'
p2507
I0
I1
tp2508
Rp2509
(I3
S'|'
p2510
NNNI3
I1
I0
tp2511
bS'P15'
p2512
tp2513
Rp2514
ag814
(g533
(S'S3'
p2515
I0
I1
tp2516
Rp2517
(I3
S'|'
p2518
NNNI3
I1
I0
tp2519
bS'P29'
p2520
tp2521
Rp2522
ag814
(g533
(S'S3'
p2523
I0
I1
tp2524
Rp2525
(I3
S'|'
p2526
NNNI3
I1
I0
tp2527
bS'P12'
p2528
tp2529
Rp2530
ag814
(g533
(S'S3'
p2531
I0
I1
tp2532
Rp2533
(I3
S'|'
p2534
NNNI3
I1
I0
tp2535
bS'P21'
p2536
tp2537
Rp2538
ag814
(g533
(S'S3'
p2539
I0
I1
tp2540
Rp2541
(I3
S'|'
p2542
NNNI3
I1
I0
tp2543
bS'P22'
p2544
tp2545
Rp2546
ag814
(g533
(S'S3'
p2547
I0
I1
tp2548
Rp2549
(I3
S'|'
p2550
NNNI3
I1
I0
tp2551
bS'P24'
p2552
tp2553
Rp2554
ag814
(g533
(S'S3'
p2555
I0
I1
tp2556
Rp2557
(I3
S'|'
p2558
NNNI3
I1
I0
tp2559
bS'P11'
p2560
tp2561
Rp2562
ag814
(g533
(S'S3'
p2563
I0
I1
tp2564
Rp2565
(I3
S'|'
p2566
NNNI3
I1
I0
tp2567
bS'P28'
p2568
tp2569
Rp2570
ag814
(g533
(S'S3'
p2571
I0
I1
tp2572
Rp2573
(I3
S'|'
p2574
NNNI3
I1
I0
tp2575
bS'P18'
p2576
tp2577
Rp2578
ag814
(g533
(S'S3'
p2579
I0
I1
tp2580
Rp2581
(I3
S'|'
p2582
NNNI3
I1
I0
tp2583
bS'P27'
p2584
tp2585
Rp2586
ag814
(g533
(S'S2'
p2587
I0
I1
tp2588
Rp2589
(I3
S'|'
p2590
NNNI2
I1
I0
tp2591
bS'P3'
p2592
tp2593
Rp2594
ag814
(g533
(S'S3'
p2595
I0
I1
tp2596
Rp2597
(I3
S'|'
p2598
NNNI3
I1
I0
tp2599
bS'P16'
p2600
tp2601
Rp2602
ag814
(g533
(S'S3'
p2603
I0
I1
tp2604
Rp2605
(I3
S'|'
p2606
NNNI3
I1
I0
tp2607
bS'P13'
p2608
tp2609
Rp2610
ag814
(g533
(S'S3'
p2611
I0
I1
tp2612
Rp2613
(I3
S'|'
p2614
NNNI3
I1
I0
tp2615
bS'P23'
p2616
tp2617
Rp2618
ag814
(g533
(S'S3'
p2619
I0
I1
tp2620
Rp2621
(I3
S'|'
p2622
NNNI3
I1
I0
tp2623
bS'P14'
p2624
tp2625
Rp2626
ag814
(g533
(S'S2'
p2627
I0
I1
tp2628
Rp2629
(I3
S'|'
p2630
NNNI2
I1
I0
tp2631
bS'P6'
p2632
tp2633
Rp2634
ag814
(g533
(S'S3'
p2635
I0
I1
tp2636
Rp2637
(I3
S'|'
p2638
NNNI3
I1
I0
tp2639
bS'P20'
p2640
tp2641
Rp2642
ag814
(g533
(S'S2'
p2643
I0
I1
tp2644
Rp2645
(I3
S'|'
p2646
NNNI2
I1
I0
tp2647
bS'P1'
p2648
tp2649
Rp2650
aa(lp2651
g814
(g533
(S'S2'
p2652
I0
I1
tp2653
Rp2654
(I3
S'|'
p2655
NNNI2
I1
I0
tp2656
bS'P8'
p2657
tp2658
Rp2659
ag814
(g533
(S'S3'
p2660
I0
I1
tp2661
Rp2662
(I3
S'|'
p2663
NNNI3
I1
I0
tp2664
bS'P24'
p2665
tp2666
Rp2667
ag814
(g533
(S'S3'
p2668
I0
I1
tp2669
Rp2670
(I3
S'|'
p2671
NNNI3
I1
I0
tp2672
bS'P29'
p2673
tp2674
Rp2675
ag814
(g533
(S'S3'
p2676
I0
I1
tp2677
Rp2678
(I3
S'|'
p2679
NNNI3
I1
I0
tp2680
bS'P28'
p2681
tp2682
Rp2683
ag814
(g533
(S'S3'
p2684
I0
I1
tp2685
Rp2686
(I3
S'|'
p2687
NNNI3
I1
I0
tp2688
bS'P27'
p2689
tp2690
Rp2691
ag814
(g533
(S'S3'
p2692
I0
I1
tp2693
Rp2694
(I3
S'|'
p2695
NNNI3
I1
I0
tp2696
bS'P26'
p2697
tp2698
Rp2699
ag814
(g533
(S'S3'
p2700
I0
I1
tp2701
Rp2702
(I3
S'|'
p2703
NNNI3
I1
I0
tp2704
bS'P13'
p2705
tp2706
Rp2707
ag814
(g533
(S'S3'
p2708
I0
I1
tp2709
Rp2710
(I3
S'|'
p2711
NNNI3
I1
I0
tp2712
bS'P21'
p2713
tp2714
Rp2715
ag814
(g533
(S'S2'
p2716
I0
I1
tp2717
Rp2718
(I3
S'|'
p2719
NNNI2
I1
I0
tp2720
bS'P6'
p2721
tp2722
Rp2723
ag814
(g533
(S'S3'
p2724
I0
I1
tp2725
Rp2726
(I3
S'|'
p2727
NNNI3
I1
I0
tp2728
bS'P30'
p2729
tp2730
Rp2731
ag814
(g533
(S'S2'
p2732
I0
I1
tp2733
Rp2734
(I3
S'|'
p2735
NNNI2
I1
I0
tp2736
bS'P7'
p2737
tp2738
Rp2739
ag814
(g533
(S'S3'
p2740
I0
I1
tp2741
Rp2742
(I3
S'|'
p2743
NNNI3
I1
I0
tp2744
bS'P15'
p2745
tp2746
Rp2747
ag814
(g533
(S'S3'
p2748
I0
I1
tp2749
Rp2750
(I3
S'|'
p2751
NNNI3
I1
I0
tp2752
bS'P12'
p2753
tp2754
Rp2755
ag814
(g533
(S'S3'
p2756
I0
I1
tp2757
Rp2758
(I3
S'|'
p2759
NNNI3
I1
I0
tp2760
bS'P23'
p2761
tp2762
Rp2763
ag814
(g533
(S'S3'
p2764
I0
I1
tp2765
Rp2766
(I3
S'|'
p2767
NNNI3
I1
I0
tp2768
bS'P16'
p2769
tp2770
Rp2771
ag814
(g533
(S'S2'
p2772
I0
I1
tp2773
Rp2774
(I3
S'|'
p2775
NNNI2
I1
I0
tp2776
bS'P9'
p2777
tp2778
Rp2779
ag814
(g533
(S'S3'
p2780
I0
I1
tp2781
Rp2782
(I3
S'|'
p2783
NNNI3
I1
I0
tp2784
bS'P19'
p2785
tp2786
Rp2787
ag814
(g533
(S'S2'
p2788
I0
I1
tp2789
Rp2790
(I3
S'|'
p2791
NNNI2
I1
I0
tp2792
bS'P2'
p2793
tp2794
Rp2795
ag814
(g533
(S'S2'
p2796
I0
I1
tp2797
Rp2798
(I3
S'|'
p2799
NNNI2
I1
I0
tp2800
bS'P3'
p2801
tp2802
Rp2803
ag814
(g533
(S'S3'
p2804
I0
I1
tp2805
Rp2806
(I3
S'|'
p2807
NNNI3
I1
I0
tp2808
bS'P14'
p2809
tp2810
Rp2811
aa(lp2812
g814
(g533
(S'S2'
p2813
I0
I1
tp2814
Rp2815
(I3
S'|'
p2816
NNNI2
I1
I0
tp2817
bS'P6'
p2818
tp2819
Rp2820
ag814
(g533
(S'S3'
p2821
I0
I1
tp2822
Rp2823
(I3
S'|'
p2824
NNNI3
I1
I0
tp2825
bS'P18'
p2826
tp2827
Rp2828
ag814
(g533
(S'S3'
p2829
I0
I1
tp2830
Rp2831
(I3
S'|'
p2832
NNNI3
I1
I0
tp2833
bS'P30'
p2834
tp2835
Rp2836
aa(lp2837
g814
(g533
(S'S3'
p2838
I0
I1
tp2839
Rp2840
(I3
S'|'
p2841
NNNI3
I1
I0
tp2842
bS'P27'
p2843
tp2844
Rp2845
ag814
(g533
(S'S3'
p2846
I0
I1
tp2847
Rp2848
(I3
S'|'
p2849
NNNI3
I1
I0
tp2850
bS'P26'
p2851
tp2852
Rp2853
ag814
(g533
(S'S3'
p2854
I0
I1
tp2855
Rp2856
(I3
S'|'
p2857
NNNI3
I1
I0
tp2858
bS'P12'
p2859
tp2860
Rp2861
ag814
(g533
(S'S3'
p2862
I0
I1
tp2863
Rp2864
(I3
S'|'
p2865
NNNI3
I1
I0
tp2866
bS'P30'
p2867
tp2868
Rp2869
ag814
(g533
(S'S3'
p2870
I0
I1
tp2871
Rp2872
(I3
S'|'
p2873
NNNI3
I1
I0
tp2874
bS'P13'
p2875
tp2876
Rp2877
ag814
(g533
(S'S3'
p2878
I0
I1
tp2879
Rp2880
(I3
S'|'
p2881
NNNI3
I1
I0
tp2882
bS'P29'
p2883
tp2884
Rp2885
ag814
(g533
(S'S2'
p2886
I0
I1
tp2887
Rp2888
(I3
S'|'
p2889
NNNI2
I1
I0
tp2890
bS'P8'
p2891
tp2892
Rp2893
aa(lp2894
g814
(g533
(S'S3'
p2895
I0
I1
tp2896
Rp2897
(I3
S'|'
p2898
NNNI3
I1
I0
tp2899
bS'P16'
p2900
tp2901
Rp2902
ag814
(g533
(S'S3'
p2903
I0
I1
tp2904
Rp2905
(I3
S'|'
p2906
NNNI3
I1
I0
tp2907
bS'P17'
p2908
tp2909
Rp2910
ag814
(g533
(S'S3'
p2911
I0
I1
tp2912
Rp2913
(I3
S'|'
p2914
NNNI3
I1
I0
tp2915
bS'P15'
p2916
tp2917
Rp2918
ag814
(g533
(S'S2'
p2919
I0
I1
tp2920
Rp2921
(I3
S'|'
p2922
NNNI2
I1
I0
tp2923
bS'P4'
p2924
tp2925
Rp2926
ag814
(g533
(S'S3'
p2927
I0
I1
tp2928
Rp2929
(I3
S'|'
p2930
NNNI3
I1
I0
tp2931
bS'P10'
p2932
tp2933
Rp2934
ag814
(g533
(S'S2'
p2935
I0
I1
tp2936
Rp2937
(I3
S'|'
p2938
NNNI2
I1
I0
tp2939
bS'P2'
p2940
tp2941
Rp2942
ag814
(g533
(S'S3'
p2943
I0
I1
tp2944
Rp2945
(I3
S'|'
p2946
NNNI3
I1
I0
tp2947
bS'P18'
p2948
tp2949
Rp2950
ag814
(g533
(S'S3'
p2951
I0
I1
tp2952
Rp2953
(I3
S'|'
p2954
NNNI3
I1
I0
tp2955
bS'P27'
p2956
tp2957
Rp2958
ag814
(g533
(S'S3'
p2959
I0
I1
tp2960
Rp2961
(I3
S'|'
p2962
NNNI3
I1
I0
tp2963
bS'P22'
p2964
tp2965
Rp2966
ag814
(g533
(S'S3'
p2967
I0
I1
tp2968
Rp2969
(I3
S'|'
p2970
NNNI3
I1
I0
tp2971
bS'P29'
p2972
tp2973
Rp2974
ag814
(g533
(S'S3'
p2975
I0
I1
tp2976
Rp2977
(I3
S'|'
p2978
NNNI3
I1
I0
tp2979
bS'P13'
p2980
tp2981
Rp2982
ag814
(g533
(S'S2'
p2983
I0
I1
tp2984
Rp2985
(I3
S'|'
p2986
NNNI2
I1
I0
tp2987
bS'P3'
p2988
tp2989
Rp2990
ag814
(g533
(S'S3'
p2991
I0
I1
tp2992
Rp2993
(I3
S'|'
p2994
NNNI3
I1
I0
tp2995
bS'P21'
p2996
tp2997
Rp2998
ag814
(g533
(S'S3'
p2999
I0
I1
tp3000
Rp3001
(I3
S'|'
p3002
NNNI3
I1
I0
tp3003
bS'P25'
p3004
tp3005
Rp3006
ag814
(g533
(S'S3'
p3007
I0
I1
tp3008
Rp3009
(I3
S'|'
p3010
NNNI3
I1
I0
tp3011
bS'P14'
p3012
tp3013
Rp3014
ag814
(g533
(S'S3'
p3015
I0
I1
tp3016
Rp3017
(I3
S'|'
p3018
NNNI3
I1
I0
tp3019
bS'P11'
p3020
tp3021
Rp3022
aa(lp3023
g814
(g533
(S'S3'
p3024
I0
I1
tp3025
Rp3026
(I3
S'|'
p3027
NNNI3
I1
I0
tp3028
bS'P13'
p3029
tp3030
Rp3031
ag814
(g533
(S'S2'
p3032
I0
I1
tp3033
Rp3034
(I3
S'|'
p3035
NNNI2
I1
I0
tp3036
bS'P9'
p3037
tp3038
Rp3039
ag814
(g533
(S'S3'
p3040
I0
I1
tp3041
Rp3042
(I3
S'|'
p3043
NNNI3
I1
I0
tp3044
bS'P29'
p3045
tp3046
Rp3047
ag814
(g533
(S'S3'
p3048
I0
I1
tp3049
Rp3050
(I3
S'|'
p3051
NNNI3
I1
I0
tp3052
bS'P22'
p3053
tp3054
Rp3055
ag814
(g533
(S'S2'
p3056
I0
I1
tp3057
Rp3058
(I3
S'|'
p3059
NNNI2
I1
I0
tp3060
bS'P4'
p3061
tp3062
Rp3063
ag814
(g533
(S'S2'
p3064
I0
I1
tp3065
Rp3066
(I3
S'|'
p3067
NNNI2
I1
I0
tp3068
bS'P6'
p3069
tp3070
Rp3071
ag814
(g533
(S'S3'
p3072
I0
I1
tp3073
Rp3074
(I3
S'|'
p3075
NNNI3
I1
I0
tp3076
bS'P12'
p3077
tp3078
Rp3079
ag814
(g533
(S'S3'
p3080
I0
I1
tp3081
Rp3082
(I3
S'|'
p3083
NNNI3
I1
I0
tp3084
bS'P30'
p3085
tp3086
Rp3087
ag814
(g533
(S'S3'
p3088
I0
I1
tp3089
Rp3090
(I3
S'|'
p3091
NNNI3
I1
I0
tp3092
bS'P26'
p3093
tp3094
Rp3095
ag814
(g533
(S'S3'
p3096
I0
I1
tp3097
Rp3098
(I3
S'|'
p3099
NNNI3
I1
I0
tp3100
bS'P17'
p3101
tp3102
Rp3103
ag814
(g533
(S'S3'
p3104
I0
I1
tp3105
Rp3106
(I3
S'|'
p3107
NNNI3
I1
I0
tp3108
bS'P15'
p3109
tp3110
Rp3111
ag814
(g533
(S'S3'
p3112
I0
I1
tp3113
Rp3114
(I3
S'|'
p3115
NNNI3
I1
I0
tp3116
bS'P23'
p3117
tp3118
Rp3119
ag814
(g533
(S'S2'
p3120
I0
I1
tp3121
Rp3122
(I3
S'|'
p3123
NNNI2
I1
I0
tp3124
bS'P3'
p3125
tp3126
Rp3127
ag814
(g533
(S'S3'
p3128
I0
I1
tp3129
Rp3130
(I3
S'|'
p3131
NNNI3
I1
I0
tp3132
bS'P16'
p3133
tp3134
Rp3135
ag814
(g533
(S'S2'
p3136
I0
I1
tp3137
Rp3138
(I3
S'|'
p3139
NNNI2
I1
I0
tp3140
bS'P1'
p3141
tp3142
Rp3143
ag814
(g533
(S'S3'
p3144
I0
I1
tp3145
Rp3146
(I3
S'|'
p3147
NNNI3
I1
I0
tp3148
bS'P11'
p3149
tp3150
Rp3151
aa(lp3152
g814
(g533
(S'S3'
p3153
I0
I1
tp3154
Rp3155
(I3
S'|'
p3156
NNNI3
I1
I0
tp3157
bS'P20'
p3158
tp3159
Rp3160
ag814
(g533
(S'S3'
p3161
I0
I1
tp3162
Rp3163
(I3
S'|'
p3164
NNNI3
I1
I0
tp3165
bS'P28'
p3166
tp3167
Rp3168
ag814
(g533
(S'S3'
p3169
I0
I1
tp3170
Rp3171
(I3
S'|'
p3172
NNNI3
I1
I0
tp3173
bS'P24'
p3174
tp3175
Rp3176
ag814
(g533
(S'S3'
p3177
I0
I1
tp3178
Rp3179
(I3
S'|'
p3180
NNNI3
I1
I0
tp3181
bS'P19'
p3182
tp3183
Rp3184
ag814
(g533
(S'S3'
p3185
I0
I1
tp3186
Rp3187
(I3
S'|'
p3188
NNNI3
I1
I0
tp3189
bS'P21'
p3190
tp3191
Rp3192
ag814
(g533
(S'S3'
p3193
I0
I1
tp3194
Rp3195
(I3
S'|'
p3196
NNNI3
I1
I0
tp3197
bS'P16'
p3198
tp3199
Rp3200
ag814
(g533
(S'S2'
p3201
I0
I1
tp3202
Rp3203
(I3
S'|'
p3204
NNNI2
I1
I0
tp3205
bS'P8'
p3206
tp3207
Rp3208
ag814
(g533
(S'S2'
p3209
I0
I1
tp3210
Rp3211
(I3
S'|'
p3212
NNNI2
I1
I0
tp3213
bS'P6'
p3214
tp3215
Rp3216
ag814
(g533
(S'S3'
p3217
I0
I1
tp3218
Rp3219
(I3
S'|'
p3220
NNNI3
I1
I0
tp3221
bS'P30'
p3222
tp3223
Rp3224
ag814
(g533
(S'S3'
p3225
I0
I1
tp3226
Rp3227
(I3
S'|'
p3228
NNNI3
I1
I0
tp3229
bS'P11'
p3230
tp3231
Rp3232
ag814
(g533
(S'S3'
p3233
I0
I1
tp3234
Rp3235
(I3
S'|'
p3236
NNNI3
I1
I0
tp3237
bS'P17'
p3238
tp3239
Rp3240
ag814
(g533
(S'S3'
p3241
I0
I1
tp3242
Rp3243
(I3
S'|'
p3244
NNNI3
I1
I0
tp3245
bS'P12'
p3246
tp3247
Rp3248
ag814
(g533
(S'S3'
p3249
I0
I1
tp3250
Rp3251
(I3
S'|'
p3252
NNNI3
I1
I0
tp3253
bS'P13'
p3254
tp3255
Rp3256
ag814
(g533
(S'S3'
p3257
I0
I1
tp3258
Rp3259
(I3
S'|'
p3260
NNNI3
I1
I0
tp3261
bS'P14'
p3262
tp3263
Rp3264
ag814
(g533
(S'S3'
p3265
I0
I1
tp3266
Rp3267
(I3
S'|'
p3268
NNNI3
I1
I0
tp3269
bS'P27'
p3270
tp3271
Rp3272
ag814
(g533
(S'S3'
p3273
I0
I1
tp3274
Rp3275
(I3
S'|'
p3276
NNNI3
I1
I0
tp3277
bS'P10'
p3278
tp3279
Rp3280
ag814
(g533
(S'S2'
p3281
I0
I1
tp3282
Rp3283
(I3
S'|'
p3284
NNNI2
I1
I0
tp3285
bS'P7'
p3286
tp3287
Rp3288
ag814
(g533
(S'S3'
p3289
I0
I1
tp3290
Rp3291
(I3
S'|'
p3292
NNNI3
I1
I0
tp3293
bS'P25'
p3294
tp3295
Rp3296
ag814
(g533
(S'S2'
p3297
I0
I1
tp3298
Rp3299
(I3
S'|'
p3300
NNNI2
I1
I0
tp3301
bS'P9'
p3302
tp3303
Rp3304
ag814
(g533
(S'S3'
p3305
I0
I1
tp3306
Rp3307
(I3
S'|'
p3308
NNNI3
I1
I0
tp3309
bS'P22'
p3310
tp3311
Rp3312
ag814
(g533
(S'S3'
p3313
I0
I1
tp3314
Rp3315
(I3
S'|'
p3316
NNNI3
I1
I0
tp3317
bS'P18'
p3318
tp3319
Rp3320
ag814
(g533
(S'S3'
p3321
I0
I1
tp3322
Rp3323
(I3
S'|'
p3324
NNNI3
I1
I0
tp3325
bS'P29'
p3326
tp3327
Rp3328
ag814
(g533
(S'S2'
p3329
I0
I1
tp3330
Rp3331
(I3
S'|'
p3332
NNNI2
I1
I0
tp3333
bS'P4'
p3334
tp3335
Rp3336
ag814
(g533
(S'S2'
p3337
I0
I1
tp3338
Rp3339
(I3
S'|'
p3340
NNNI2
I1
I0
tp3341
bS'P2'
p3342
tp3343
Rp3344
ag814
(g533
(S'S3'
p3345
I0
I1
tp3346
Rp3347
(I3
S'|'
p3348
NNNI3
I1
I0
tp3349
bS'P26'
p3350
tp3351
Rp3352
ag814
(g533
(S'S2'
p3353
I0
I1
tp3354
Rp3355
(I3
S'|'
p3356
NNNI2
I1
I0
tp3357
bS'P3'
p3358
tp3359
Rp3360
ag814
(g533
(S'S3'
p3361
I0
I1
tp3362
Rp3363
(I3
S'|'
p3364
NNNI3
I1
I0
tp3365
bS'P15'
p3366
tp3367
Rp3368
aa(lp3369
g814
(g533
(S'S3'
p3370
I0
I1
tp3371
Rp3372
(I3
S'|'
p3373
NNNI3
I1
I0
tp3374
bS'P29'
p3375
tp3376
Rp3377
ag814
(g533
(S'S2'
p3378
I0
I1
tp3379
Rp3380
(I3
S'|'
p3381
NNNI2
I1
I0
tp3382
bS'P1'
p3383
tp3384
Rp3385
ag814
(g533
(S'S3'
p3386
I0
I1
tp3387
Rp3388
(I3
S'|'
p3389
NNNI3
I1
I0
tp3390
bS'P14'
p3391
tp3392
Rp3393
ag814
(g533
(S'S2'
p3394
I0
I1
tp3395
Rp3396
(I3
S'|'
p3397
NNNI2
I1
I0
tp3398
bS'P6'
p3399
tp3400
Rp3401
ag814
(g533
(S'S3'
p3402
I0
I1
tp3403
Rp3404
(I3
S'|'
p3405
NNNI3
I1
I0
tp3406
bS'P25'
p3407
tp3408
Rp3409
ag814
(g533
(S'S3'
p3410
I0
I1
tp3411
Rp3412
(I3
S'|'
p3413
NNNI3
I1
I0
tp3414
bS'P21'
p3415
tp3416
Rp3417
ag814
(g533
(S'S3'
p3418
I0
I1
tp3419
Rp3420
(I3
S'|'
p3421
NNNI3
I1
I0
tp3422
bS'P19'
p3423
tp3424
Rp3425
ag814
(g533
(S'S2'
p3426
I0
I1
tp3427
Rp3428
(I3
S'|'
p3429
NNNI2
I1
I0
tp3430
bS'P3'
p3431
tp3432
Rp3433
ag814
(g533
(S'S2'
p3434
I0
I1
tp3435
Rp3436
(I3
S'|'
p3437
NNNI2
I1
I0
tp3438
bS'P9'
p3439
tp3440
Rp3441
ag814
(g533
(S'S3'
p3442
I0
I1
tp3443
Rp3444
(I3
S'|'
p3445
NNNI3
I1
I0
tp3446
bS'P12'
p3447
tp3448
Rp3449
ag814
(g533
(S'S2'
p3450
I0
I1
tp3451
Rp3452
(I3
S'|'
p3453
NNNI2
I1
I0
tp3454
bS'P7'
p3455
tp3456
Rp3457
ag814
(g533
(S'S2'
p3458
I0
I1
tp3459
Rp3460
(I3
S'|'
p3461
NNNI2
I1
I0
tp3462
bS'P8'
p3463
tp3464
Rp3465
ag814
(g533
(S'S3'
p3466
I0
I1
tp3467
Rp3468
(I3
S'|'
p3469
NNNI3
I1
I0
tp3470
bS'P26'
p3471
tp3472
Rp3473
ag814
(g533
(S'S3'
p3474
I0
I1
tp3475
Rp3476
(I3
S'|'
p3477
NNNI3
I1
I0
tp3478
bS'P17'
p3479
tp3480
Rp3481
ag814
(g533
(S'S3'
p3482
I0
I1
tp3483
Rp3484
(I3
S'|'
p3485
NNNI3
I1
I0
tp3486
bS'P22'
p3487
tp3488
Rp3489
ag814
(g533
(S'S3'
p3490
I0
I1
tp3491
Rp3492
(I3
S'|'
p3493
NNNI3
I1
I0
tp3494
bS'P23'
p3495
tp3496
Rp3497
ag814
(g533
(S'S2'
p3498
I0
I1
tp3499
Rp3500
(I3
S'|'
p3501
NNNI2
I1
I0
tp3502
bS'P2'
p3503
tp3504
Rp3505
ag814
(g533
(S'S3'
p3506
I0
I1
tp3507
Rp3508
(I3
S'|'
p3509
NNNI3
I1
I0
tp3510
bS'P20'
p3511
tp3512
Rp3513
ag814
(g533
(S'S3'
p3514
I0
I1
tp3515
Rp3516
(I3
S'|'
p3517
NNNI3
I1
I0
tp3518
bS'P16'
p3519
tp3520
Rp3521
ag814
(g533
(S'S3'
p3522
I0
I1
tp3523
Rp3524
(I3
S'|'
p3525
NNNI3
I1
I0
tp3526
bS'P27'
p3527
tp3528
Rp3529
ag814
(g533
(S'S3'
p3530
I0
I1
tp3531
Rp3532
(I3
S'|'
p3533
NNNI3
I1
I0
tp3534
bS'P30'
p3535
tp3536
Rp3537
ag814
(g533
(S'S3'
p3538
I0
I1
tp3539
Rp3540
(I3
S'|'
p3541
NNNI3
I1
I0
tp3542
bS'P28'
p3543
tp3544
Rp3545
ag814
(g533
(S'S3'
p3546
I0
I1
tp3547
Rp3548
(I3
S'|'
p3549
NNNI3
I1
I0
tp3550
bS'P11'
p3551
tp3552
Rp3553
aa(lp3554
g814
(g533
(S'S3'
p3555
I0
I1
tp3556
Rp3557
(I3
S'|'
p3558
NNNI3
I1
I0
tp3559
bS'P26'
p3560
tp3561
Rp3562
ag814
(g533
(S'S2'
p3563
I0
I1
tp3564
Rp3565
(I3
S'|'
p3566
NNNI2
I1
I0
tp3567
bS'P3'
p3568
tp3569
Rp3570
aa(lp3571
g814
(g533
(S'S3'
p3572
I0
I1
tp3573
Rp3574
(I3
S'|'
p3575
NNNI3
I1
I0
tp3576
bS'P12'
p3577
tp3578
Rp3579
ag814
(g533
(S'S2'
p3580
I0
I1
tp3581
Rp3582
(I3
S'|'
p3583
NNNI2
I1
I0
tp3584
bS'P1'
p3585
tp3586
Rp3587
ag814
(g533
(S'S3'
p3588
I0
I1
tp3589
Rp3590
(I3
S'|'
p3591
NNNI3
I1
I0
tp3592
bS'P25'
p3593
tp3594
Rp3595
ag814
(g533
(S'S3'
p3596
I0
I1
tp3597
Rp3598
(I3
S'|'
p3599
NNNI3
I1
I0
tp3600
bS'P26'
p3601
tp3602
Rp3603
ag814
(g533
(S'S3'
p3604
I0
I1
tp3605
Rp3606
(I3
S'|'
p3607
NNNI3
I1
I0
tp3608
bS'P17'
p3609
tp3610
Rp3611
ag814
(g533
(S'S3'
p3612
I0
I1
tp3613
Rp3614
(I3
S'|'
p3615
NNNI3
I1
I0
tp3616
bS'P20'
p3617
tp3618
Rp3619
ag814
(g533
(S'S2'
p3620
I0
I1
tp3621
Rp3622
(I3
S'|'
p3623
NNNI2
I1
I0
tp3624
bS'P5'
p3625
tp3626
Rp3627
ag814
(g533
(S'S2'
p3628
I0
I1
tp3629
Rp3630
(I3
S'|'
p3631
NNNI2
I1
I0
tp3632
bS'P6'
p3633
tp3634
Rp3635
ag814
(g533
(S'S2'
p3636
I0
I1
tp3637
Rp3638
(I3
S'|'
p3639
NNNI2
I1
I0
tp3640
bS'P8'
p3641
tp3642
Rp3643
ag814
(g533
(S'S3'
p3644
I0
I1
tp3645
Rp3646
(I3
S'|'
p3647
NNNI3
I1
I0
tp3648
bS'P22'
p3649
tp3650
Rp3651
ag814
(g533
(S'S3'
p3652
I0
I1
tp3653
Rp3654
(I3
S'|'
p3655
NNNI3
I1
I0
tp3656
bS'P16'
p3657
tp3658
Rp3659
ag814
(g533
(S'S3'
p3660
I0
I1
tp3661
Rp3662
(I3
S'|'
p3663
NNNI3
I1
I0
tp3664
bS'P13'
p3665
tp3666
Rp3667
ag814
(g533
(S'S2'
p3668
I0
I1
tp3669
Rp3670
(I3
S'|'
p3671
NNNI2
I1
I0
tp3672
bS'P7'
p3673
tp3674
Rp3675
ag814
(g533
(S'S3'
p3676
I0
I1
tp3677
Rp3678
(I3
S'|'
p3679
NNNI3
I1
I0
tp3680
bS'P19'
p3681
tp3682
Rp3683
ag814
(g533
(S'S3'
p3684
I0
I1
tp3685
Rp3686
(I3
S'|'
p3687
NNNI3
I1
I0
tp3688
bS'P29'
p3689
tp3690
Rp3691
ag814
(g533
(S'S3'
p3692
I0
I1
tp3693
Rp3694
(I3
S'|'
p3695
NNNI3
I1
I0
tp3696
bS'P23'
p3697
tp3698
Rp3699
ag814
(g533
(S'S3'
p3700
I0
I1
tp3701
Rp3702
(I3
S'|'
p3703
NNNI3
I1
I0
tp3704
bS'P10'
p3705
tp3706
Rp3707
ag814
(g533
(S'S3'
p3708
I0
I1
tp3709
Rp3710
(I3
S'|'
p3711
NNNI3
I1
I0
tp3712
bS'P21'
p3713
tp3714
Rp3715
ag814
(g533
(S'S3'
p3716
I0
I1
tp3717
Rp3718
(I3
S'|'
p3719
NNNI3
I1
I0
tp3720
bS'P18'
p3721
tp3722
Rp3723
ag814
(g533
(S'S3'
p3724
I0
I1
tp3725
Rp3726
(I3
S'|'
p3727
NNNI3
I1
I0
tp3728
bS'P27'
p3729
tp3730
Rp3731
ag814
(g533
(S'S3'
p3732
I0
I1
tp3733
Rp3734
(I3
S'|'
p3735
NNNI3
I1
I0
tp3736
bS'P11'
p3737
tp3738
Rp3739
ag814
(g533
(S'S3'
p3740
I0
I1
tp3741
Rp3742
(I3
S'|'
p3743
NNNI3
I1
I0
tp3744
bS'P28'
p3745
tp3746
Rp3747
ag814
(g533
(S'S2'
p3748
I0
I1
tp3749
Rp3750
(I3
S'|'
p3751
NNNI2
I1
I0
tp3752
bS'P2'
p3753
tp3754
Rp3755
aa(lp3756
g814
(g533
(S'S3'
p3757
I0
I1
tp3758
Rp3759
(I3
S'|'
p3760
NNNI3
I1
I0
tp3761
bS'P15'
p3762
tp3763
Rp3764
ag814
(g533
(S'S3'
p3765
I0
I1
tp3766
Rp3767
(I3
S'|'
p3768
NNNI3
I1
I0
tp3769
bS'P24'
p3770
tp3771
Rp3772
ag814
(g533
(S'S3'
p3773
I0
I1
tp3774
Rp3775
(I3
S'|'
p3776
NNNI3
I1
I0
tp3777
bS'P18'
p3778
tp3779
Rp3780
ag814
(g533
(S'S2'
p3781
I0
I1
tp3782
Rp3783
(I3
S'|'
p3784
NNNI2
I1
I0
tp3785
bS'P9'
p3786
tp3787
Rp3788
ag814
(g533
(S'S3'
p3789
I0
I1
tp3790
Rp3791
(I3
S'|'
p3792
NNNI3
I1
I0
tp3793
bS'P26'
p3794
tp3795
Rp3796
ag814
(g533
(S'S3'
p3797
I0
I1
tp3798
Rp3799
(I3
S'|'
p3800
NNNI3
I1
I0
tp3801
bS'P16'
p3802
tp3803
Rp3804
ag814
(g533
(S'S2'
p3805
I0
I1
tp3806
Rp3807
(I3
S'|'
p3808
NNNI2
I1
I0
tp3809
bS'P6'
p3810
tp3811
Rp3812
ag814
(g533
(S'S3'
p3813
I0
I1
tp3814
Rp3815
(I3
S'|'
p3816
NNNI3
I1
I0
tp3817
bS'P30'
p3818
tp3819
Rp3820
ag814
(g533
(S'S3'
p3821
I0
I1
tp3822
Rp3823
(I3
S'|'
p3824
NNNI3
I1
I0
tp3825
bS'P27'
p3826
tp3827
Rp3828
ag814
(g533
(S'S3'
p3829
I0
I1
tp3830
Rp3831
(I3
S'|'
p3832
NNNI3
I1
I0
tp3833
bS'P29'
p3834
tp3835
Rp3836
ag814
(g533
(S'S3'
p3837
I0
I1
tp3838
Rp3839
(I3
S'|'
p3840
NNNI3
I1
I0
tp3841
bS'P12'
p3842
tp3843
Rp3844
ag814
(g533
(S'S3'
p3845
I0
I1
tp3846
Rp3847
(I3
S'|'
p3848
NNNI3
I1
I0
tp3849
bS'P10'
p3850
tp3851
Rp3852
ag814
(g533
(S'S3'
p3853
I0
I1
tp3854
Rp3855
(I3
S'|'
p3856
NNNI3
I1
I0
tp3857
bS'P11'
p3858
tp3859
Rp3860
ag814
(g533
(S'S3'
p3861
I0
I1
tp3862
Rp3863
(I3
S'|'
p3864
NNNI3
I1
I0
tp3865
bS'P14'
p3866
tp3867
Rp3868
ag814
(g533
(S'S3'
p3869
I0
I1
tp3870
Rp3871
(I3
S'|'
p3872
NNNI3
I1
I0
tp3873
bS'P13'
p3874
tp3875
Rp3876
ag814
(g533
(S'S2'
p3877
I0
I1
tp3878
Rp3879
(I3
S'|'
p3880
NNNI2
I1
I0
tp3881
bS'P2'
p3882
tp3883
Rp3884
ag814
(g533
(S'S3'
p3885
I0
I1
tp3886
Rp3887
(I3
S'|'
p3888
NNNI3
I1
I0
tp3889
bS'P21'
p3890
tp3891
Rp3892
ag814
(g533
(S'S3'
p3893
I0
I1
tp3894
Rp3895
(I3
S'|'
p3896
NNNI3
I1
I0
tp3897
bS'P17'
p3898
tp3899
Rp3900
ag814
(g533
(S'S2'
p3901
I0
I1
tp3902
Rp3903
(I3
S'|'
p3904
NNNI2
I1
I0
tp3905
bS'P7'
p3906
tp3907
Rp3908
ag814
(g533
(S'S3'
p3909
I0
I1
tp3910
Rp3911
(I3
S'|'
p3912
NNNI3
I1
I0
tp3913
bS'P19'
p3914
tp3915
Rp3916
ag814
(g533
(S'S3'
p3917
I0
I1
tp3918
Rp3919
(I3
S'|'
p3920
NNNI3
I1
I0
tp3921
bS'P25'
p3922
tp3923
Rp3924
ag814
(g533
(S'S2'
p3925
I0
I1
tp3926
Rp3927
(I3
S'|'
p3928
NNNI2
I1
I0
tp3929
bS'P1'
p3930
tp3931
Rp3932
ag814
(g533
(S'S3'
p3933
I0
I1
tp3934
Rp3935
(I3
S'|'
p3936
NNNI3
I1
I0
tp3937
bS'P22'
p3938
tp3939
Rp3940
ag814
(g533
(S'S3'
p3941
I0
I1
tp3942
Rp3943
(I3
S'|'
p3944
NNNI3
I1
I0
tp3945
bS'P20'
p3946
tp3947
Rp3948
ag814
(g533
(S'S2'
p3949
I0
I1
tp3950
Rp3951
(I3
S'|'
p3952
NNNI2
I1
I0
tp3953
bS'P4'
p3954
tp3955
Rp3956
ag814
(g533
(S'S2'
p3957
I0
I1
tp3958
Rp3959
(I3
S'|'
p3960
NNNI2
I1
I0
tp3961
bS'P8'
p3962
tp3963
Rp3964
ag814
(g533
(S'S2'
p3965
I0
I1
tp3966
Rp3967
(I3
S'|'
p3968
NNNI2
I1
I0
tp3969
bS'P5'
p3970
tp3971
Rp3972
aa(lp3973
g814
(g533
(S'S2'
p3974
I0
I1
tp3975
Rp3976
(I3
S'|'
p3977
NNNI2
I1
I0
tp3978
bS'P3'
p3979
tp3980
Rp3981
ag814
(g533
(S'S3'
p3982
I0
I1
tp3983
Rp3984
(I3
S'|'
p3985
NNNI3
I1
I0
tp3986
bS'P18'
p3987
tp3988
Rp3989
ag814
(g533
(S'S2'
p3990
I0
I1
tp3991
Rp3992
(I3
S'|'
p3993
NNNI2
I1
I0
tp3994
bS'P6'
p3995
tp3996
Rp3997
ag814
(g533
(S'S3'
p3998
I0
I1
tp3999
Rp4000
(I3
S'|'
p4001
NNNI3
I1
I0
tp4002
bS'P30'
p4003
tp4004
Rp4005
ag814
(g533
(S'S3'
p4006
I0
I1
tp4007
Rp4008
(I3
S'|'
p4009
NNNI3
I1
I0
tp4010
bS'P27'
p4011
tp4012
Rp4013
ag814
(g533
(S'S3'
p4014
I0
I1
tp4015
Rp4016
(I3
S'|'
p4017
NNNI3
I1
I0
tp4018
bS'P12'
p4019
tp4020
Rp4021
ag814
(g533
(S'S3'
p4022
I0
I1
tp4023
Rp4024
(I3
S'|'
p4025
NNNI3
I1
I0
tp4026
bS'P19'
p4027
tp4028
Rp4029
ag814
(g533
(S'S2'
p4030
I0
I1
tp4031
Rp4032
(I3
S'|'
p4033
NNNI2
I1
I0
tp4034
bS'P1'
p4035
tp4036
Rp4037
ag814
(g533
(S'S2'
p4038
I0
I1
tp4039
Rp4040
(I3
S'|'
p4041
NNNI2
I1
I0
tp4042
bS'P2'
p4043
tp4044
Rp4045
ag814
(g533
(S'S3'
p4046
I0
I1
tp4047
Rp4048
(I3
S'|'
p4049
NNNI3
I1
I0
tp4050
bS'P17'
p4051
tp4052
Rp4053
ag814
(g533
(S'S3'
p4054
I0
I1
tp4055
Rp4056
(I3
S'|'
p4057
NNNI3
I1
I0
tp4058
bS'P22'
p4059
tp4060
Rp4061
ag814
(g533
(S'S3'
p4062
I0
I1
tp4063
Rp4064
(I3
S'|'
p4065
NNNI3
I1
I0
tp4066
bS'P29'
p4067
tp4068
Rp4069
ag814
(g533
(S'S3'
p4070
I0
I1
tp4071
Rp4072
(I3
S'|'
p4073
NNNI3
I1
I0
tp4074
bS'P24'
p4075
tp4076
Rp4077
aa(lp4078
g814
(g533
(S'S3'
p4079
I0
I1
tp4080
Rp4081
(I3
S'|'
p4082
NNNI3
I1
I0
tp4083
bS'P14'
p4084
tp4085
Rp4086
ag814
(g533
(S'S3'
p4087
I0
I1
tp4088
Rp4089
(I3
S'|'
p4090
NNNI3
I1
I0
tp4091
bS'P21'
p4092
tp4093
Rp4094
ag814
(g533
(S'S2'
p4095
I0
I1
tp4096
Rp4097
(I3
S'|'
p4098
NNNI2
I1
I0
tp4099
bS'P3'
p4100
tp4101
Rp4102
ag814
(g533
(S'S3'
p4103
I0
I1
tp4104
Rp4105
(I3
S'|'
p4106
NNNI3
I1
I0
tp4107
bS'P12'
p4108
tp4109
Rp4110
ag814
(g533
(S'S2'
p4111
I0
I1
tp4112
Rp4113
(I3
S'|'
p4114
NNNI2
I1
I0
tp4115
bS'P2'
p4116
tp4117
Rp4118
ag814
(g533
(S'S3'
p4119
I0
I1
tp4120
Rp4121
(I3
S'|'
p4122
NNNI3
I1
I0
tp4123
bS'P11'
p4124
tp4125
Rp4126
ag814
(g533
(S'S3'
p4127
I0
I1
tp4128
Rp4129
(I3
S'|'
p4130
NNNI3
I1
I0
tp4131
bS'P27'
p4132
tp4133
Rp4134
ag814
(g533
(S'S3'
p4135
I0
I1
tp4136
Rp4137
(I3
S'|'
p4138
NNNI3
I1
I0
tp4139
bS'P13'
p4140
tp4141
Rp4142
ag814
(g533
(S'S3'
p4143
I0
I1
tp4144
Rp4145
(I3
S'|'
p4146
NNNI3
I1
I0
tp4147
bS'P24'
p4148
tp4149
Rp4150
ag814
(g533
(S'S3'
p4151
I0
I1
tp4152
Rp4153
(I3
S'|'
p4154
NNNI3
I1
I0
tp4155
bS'P22'
p4156
tp4157
Rp4158
ag814
(g533
(S'S3'
p4159
I0
I1
tp4160
Rp4161
(I3
S'|'
p4162
NNNI3
I1
I0
tp4163
bS'P15'
p4164
tp4165
Rp4166
ag814
(g533
(S'S2'
p4167
I0
I1
tp4168
Rp4169
(I3
S'|'
p4170
NNNI2
I1
I0
tp4171
bS'P8'
p4172
tp4173
Rp4174
ag814
(g533
(S'S3'
p4175
I0
I1
tp4176
Rp4177
(I3
S'|'
p4178
NNNI3
I1
I0
tp4179
bS'P16'
p4180
tp4181
Rp4182
ag814
(g533
(S'S3'
p4183
I0
I1
tp4184
Rp4185
(I3
S'|'
p4186
NNNI3
I1
I0
tp4187
bS'P20'
p4188
tp4189
Rp4190
ag814
(g533
(S'S3'
p4191
I0
I1
tp4192
Rp4193
(I3
S'|'
p4194
NNNI3
I1
I0
tp4195
bS'P25'
p4196
tp4197
Rp4198
ag814
(g533
(S'S3'
p4199
I0
I1
tp4200
Rp4201
(I3
S'|'
p4202
NNNI3
I1
I0
tp4203
bS'P18'
p4204
tp4205
Rp4206
ag814
(g533
(S'S3'
p4207
I0
I1
tp4208
Rp4209
(I3
S'|'
p4210
NNNI3
I1
I0
tp4211
bS'P23'
p4212
tp4213
Rp4214
ag814
(g533
(S'S3'
p4215
I0
I1
tp4216
Rp4217
(I3
S'|'
p4218
NNNI3
I1
I0
tp4219
bS'P17'
p4220
tp4221
Rp4222
ag814
(g533
(S'S3'
p4223
I0
I1
tp4224
Rp4225
(I3
S'|'
p4226
NNNI3
I1
I0
tp4227
bS'P30'
p4228
tp4229
Rp4230
aa(lp4231
g814
(g533
(S'S3'
p4232
I0
I1
tp4233
Rp4234
(I3
S'|'
p4235
NNNI3
I1
I0
tp4236
bS'P10'
p4237
tp4238
Rp4239
ag814
(g533
(S'S3'
p4240
I0
I1
tp4241
Rp4242
(I3
S'|'
p4243
NNNI3
I1
I0
tp4244
bS'P23'
p4245
tp4246
Rp4247
ag814
(g533
(S'S3'
p4248
I0
I1
tp4249
Rp4250
(I3
S'|'
p4251
NNNI3
I1
I0
tp4252
bS'P22'
p4253
tp4254
Rp4255
ag814
(g533
(S'S3'
p4256
I0
I1
tp4257
Rp4258
(I3
S'|'
p4259
NNNI3
I1
I0
tp4260
bS'P25'
p4261
tp4262
Rp4263
ag814
(g533
(S'S3'
p4264
I0
I1
tp4265
Rp4266
(I3
S'|'
p4267
NNNI3
I1
I0
tp4268
bS'P29'
p4269
tp4270
Rp4271
ag814
(g533
(S'S3'
p4272
I0
I1
tp4273
Rp4274
(I3
S'|'
p4275
NNNI3
I1
I0
tp4276
bS'P28'
p4277
tp4278
Rp4279
ag814
(g533
(S'S2'
p4280
I0
I1
tp4281
Rp4282
(I3
S'|'
p4283
NNNI2
I1
I0
tp4284
bS'P7'
p4285
tp4286
Rp4287
ag814
(g533
(S'S2'
p4288
I0
I1
tp4289
Rp4290
(I3
S'|'
p4291
NNNI2
I1
I0
tp4292
bS'P6'
p4293
tp4294
Rp4295
ag814
(g533
(S'S3'
p4296
I0
I1
tp4297
Rp4298
(I3
S'|'
p4299
NNNI3
I1
I0
tp4300
bS'P11'
p4301
tp4302
Rp4303
ag814
(g533
(S'S3'
p4304
I0
I1
tp4305
Rp4306
(I3
S'|'
p4307
NNNI3
I1
I0
tp4308
bS'P24'
p4309
tp4310
Rp4311
ag814
(g533
(S'S2'
p4312
I0
I1
tp4313
Rp4314
(I3
S'|'
p4315
NNNI2
I1
I0
tp4316
bS'P8'
p4317
tp4318
Rp4319
ag814
(g533
(S'S3'
p4320
I0
I1
tp4321
Rp4322
(I3
S'|'
p4323
NNNI3
I1
I0
tp4324
bS'P15'
p4325
tp4326
Rp4327
ag814
(g533
(S'S3'
p4328
I0
I1
tp4329
Rp4330
(I3
S'|'
p4331
NNNI3
I1
I0
tp4332
bS'P27'
p4333
tp4334
Rp4335
ag814
(g533
(S'S3'
p4336
I0
I1
tp4337
Rp4338
(I3
S'|'
p4339
NNNI3
I1
I0
tp4340
bS'P14'
p4341
tp4342
Rp4343
ag814
(g533
(S'S3'
p4344
I0
I1
tp4345
Rp4346
(I3
S'|'
p4347
NNNI3
I1
I0
tp4348
bS'P12'
p4349
tp4350
Rp4351
ag814
(g533
(S'S3'
p4352
I0
I1
tp4353
Rp4354
(I3
S'|'
p4355
NNNI3
I1
I0
tp4356
bS'P16'
p4357
tp4358
Rp4359
ag814
(g533
(S'S3'
p4360
I0
I1
tp4361
Rp4362
(I3
S'|'
p4363
NNNI3
I1
I0
tp4364
bS'P30'
p4365
tp4366
Rp4367
ag814
(g533
(S'S3'
p4368
I0
I1
tp4369
Rp4370
(I3
S'|'
p4371
NNNI3
I1
I0
tp4372
bS'P18'
p4373
tp4374
Rp4375
ag814
(g533
(S'S2'
p4376
I0
I1
tp4377
Rp4378
(I3
S'|'
p4379
NNNI2
I1
I0
tp4380
bS'P9'
p4381
tp4382
Rp4383
aa(lp4384
g814
(g533
(S'S3'
p4385
I0
I1
tp4386
Rp4387
(I3
S'|'
p4388
NNNI3
I1
I0
tp4389
bS'P16'
p4390
tp4391
Rp4392
ag814
(g533
(S'S2'
p4393
I0
I1
tp4394
Rp4395
(I3
S'|'
p4396
NNNI2
I1
I0
tp4397
bS'P3'
p4398
tp4399
Rp4400
ag814
(g533
(S'S3'
p4401
I0
I1
tp4402
Rp4403
(I3
S'|'
p4404
NNNI3
I1
I0
tp4405
bS'P13'
p4406
tp4407
Rp4408
ag814
(g533
(S'S3'
p4409
I0
I1
tp4410
Rp4411
(I3
S'|'
p4412
NNNI3
I1
I0
tp4413
bS'P11'
p4414
tp4415
Rp4416
ag814
(g533
(S'S3'
p4417
I0
I1
tp4418
Rp4419
(I3
S'|'
p4420
NNNI3
I1
I0
tp4421
bS'P27'
p4422
tp4423
Rp4424
ag814
(g533
(S'S3'
p4425
I0
I1
tp4426
Rp4427
(I3
S'|'
p4428
NNNI3
I1
I0
tp4429
bS'P30'
p4430
tp4431
Rp4432
ag814
(g533
(S'S2'
p4433
I0
I1
tp4434
Rp4435
(I3
S'|'
p4436
NNNI2
I1
I0
tp4437
bS'P4'
p4438
tp4439
Rp4440
ag814
(g533
(S'S3'
p4441
I0
I1
tp4442
Rp4443
(I3
S'|'
p4444
NNNI3
I1
I0
tp4445
bS'P20'
p4446
tp4447
Rp4448
ag814
(g533
(S'S3'
p4449
I0
I1
tp4450
Rp4451
(I3
S'|'
p4452
NNNI3
I1
I0
tp4453
bS'P22'
p4454
tp4455
Rp4456
ag814
(g533
(S'S3'
p4457
I0
I1
tp4458
Rp4459
(I3
S'|'
p4460
NNNI3
I1
I0
tp4461
bS'P10'
p4462
tp4463
Rp4464
ag814
(g533
(S'S3'
p4465
I0
I1
tp4466
Rp4467
(I3
S'|'
p4468
NNNI3
I1
I0
tp4469
bS'P15'
p4470
tp4471
Rp4472
ag814
(g533
(S'S3'
p4473
I0
I1
tp4474
Rp4475
(I3
S'|'
p4476
NNNI3
I1
I0
tp4477
bS'P23'
p4478
tp4479
Rp4480
ag814
(g533
(S'S3'
p4481
I0
I1
tp4482
Rp4483
(I3
S'|'
p4484
NNNI3
I1
I0
tp4485
bS'P25'
p4486
tp4487
Rp4488
ag814
(g533
(S'S3'
p4489
I0
I1
tp4490
Rp4491
(I3
S'|'
p4492
NNNI3
I1
I0
tp4493
bS'P24'
p4494
tp4495
Rp4496
ag814
(g533
(S'S3'
p4497
I0
I1
tp4498
Rp4499
(I3
S'|'
p4500
NNNI3
I1
I0
tp4501
bS'P28'
p4502
tp4503
Rp4504
ag814
(g533
(S'S2'
p4505
I0
I1
tp4506
Rp4507
(I3
S'|'
p4508
NNNI2
I1
I0
tp4509
bS'P2'
p4510
tp4511
Rp4512
aa(lp4513
g814
(g533
(S'S3'
p4514
I0
I1
tp4515
Rp4516
(I3
S'|'
p4517
NNNI3
I1
I0
tp4518
bS'P25'
p4519
tp4520
Rp4521
ag814
(g533
(S'S2'
p4522
I0
I1
tp4523
Rp4524
(I3
S'|'
p4525
NNNI2
I1
I0
tp4526
bS'P5'
p4527
tp4528
Rp4529
ag814
(g533
(S'S3'
p4530
I0
I1
tp4531
Rp4532
(I3
S'|'
p4533
NNNI3
I1
I0
tp4534
bS'P17'
p4535
tp4536
Rp4537
ag814
(g533
(S'S3'
p4538
I0
I1
tp4539
Rp4540
(I3
S'|'
p4541
NNNI3
I1
I0
tp4542
bS'P27'
p4543
tp4544
Rp4545
ag814
(g533
(S'S2'
p4546
I0
I1
tp4547
Rp4548
(I3
S'|'
p4549
NNNI2
I1
I0
tp4550
bS'P6'
p4551
tp4552
Rp4553
ag814
(g533
(S'S3'
p4554
I0
I1
tp4555
Rp4556
(I3
S'|'
p4557
NNNI3
I1
I0
tp4558
bS'P12'
p4559
tp4560
Rp4561
ag814
(g533
(S'S3'
p4562
I0
I1
tp4563
Rp4564
(I3
S'|'
p4565
NNNI3
I1
I0
tp4566
bS'P22'
p4567
tp4568
Rp4569
ag814
(g533
(S'S2'
p4570
I0
I1
tp4571
Rp4572
(I3
S'|'
p4573
NNNI2
I1
I0
tp4574
bS'P3'
p4575
tp4576
Rp4577
ag814
(g533
(S'S3'
p4578
I0
I1
tp4579
Rp4580
(I3
S'|'
p4581
NNNI3
I1
I0
tp4582
bS'P11'
p4583
tp4584
Rp4585
ag814
(g533
(S'S3'
p4586
I0
I1
tp4587
Rp4588
(I3
S'|'
p4589
NNNI3
I1
I0
tp4590
bS'P26'
p4591
tp4592
Rp4593
ag814
(g533
(S'S3'
p4594
I0
I1
tp4595
Rp4596
(I3
S'|'
p4597
NNNI3
I1
I0
tp4598
bS'P16'
p4599
tp4600
Rp4601
ag814
(g533
(S'S3'
p4602
I0
I1
tp4603
Rp4604
(I3
S'|'
p4605
NNNI3
I1
I0
tp4606
bS'P20'
p4607
tp4608
Rp4609
ag814
(g533
(S'S2'
p4610
I0
I1
tp4611
Rp4612
(I3
S'|'
p4613
NNNI2
I1
I0
tp4614
bS'P7'
p4615
tp4616
Rp4617
ag814
(g533
(S'S3'
p4618
I0
I1
tp4619
Rp4620
(I3
S'|'
p4621
NNNI3
I1
I0
tp4622
bS'P24'
p4623
tp4624
Rp4625
ag814
(g533
(S'S2'
p4626
I0
I1
tp4627
Rp4628
(I3
S'|'
p4629
NNNI2
I1
I0
tp4630
bS'P8'
p4631
tp4632
Rp4633
ag814
(g533
(S'S2'
p4634
I0
I1
tp4635
Rp4636
(I3
S'|'
p4637
NNNI2
I1
I0
tp4638
bS'P1'
p4639
tp4640
Rp4641
ag814
(g533
(S'S2'
p4642
I0
I1
tp4643
Rp4644
(I3
S'|'
p4645
NNNI2
I1
I0
tp4646
bS'P9'
p4647
tp4648
Rp4649
ag814
(g533
(S'S3'
p4650
I0
I1
tp4651
Rp4652
(I3
S'|'
p4653
NNNI3
I1
I0
tp4654
bS'P15'
p4655
tp4656
Rp4657
ag814
(g533
(S'S3'
p4658
I0
I1
tp4659
Rp4660
(I3
S'|'
p4661
NNNI3
I1
I0
tp4662
bS'P28'
p4663
tp4664
Rp4665
ag814
(g533
(S'S3'
p4666
I0
I1
tp4667
Rp4668
(I3
S'|'
p4669
NNNI3
I1
I0
tp4670
bS'P19'
p4671
tp4672
Rp4673
ag814
(g533
(S'S3'
p4674
I0
I1
tp4675
Rp4676
(I3
S'|'
p4677
NNNI3
I1
I0
tp4678
bS'P23'
p4679
tp4680
Rp4681
ag814
(g533
(S'S3'
p4682
I0
I1
tp4683
Rp4684
(I3
S'|'
p4685
NNNI3
I1
I0
tp4686
bS'P14'
p4687
tp4688
Rp4689
ag814
(g533
(S'S3'
p4690
I0
I1
tp4691
Rp4692
(I3
S'|'
p4693
NNNI3
I1
I0
tp4694
bS'P10'
p4695
tp4696
Rp4697
ag814
(g533
(S'S2'
p4698
I0
I1
tp4699
Rp4700
(I3
S'|'
p4701
NNNI2
I1
I0
tp4702
bS'P2'
p4703
tp4704
Rp4705
ag814
(g533
(S'S3'
p4706
I0
I1
tp4707
Rp4708
(I3
S'|'
p4709
NNNI3
I1
I0
tp4710
bS'P18'
p4711
tp4712
Rp4713
ag814
(g533
(S'S3'
p4714
I0
I1
tp4715
Rp4716
(I3
S'|'
p4717
NNNI3
I1
I0
tp4718
bS'P21'
p4719
tp4720
Rp4721
ag814
(g533
(S'S3'
p4722
I0
I1
tp4723
Rp4724
(I3
S'|'
p4725
NNNI3
I1
I0
tp4726
bS'P29'
p4727
tp4728
Rp4729
ag814
(g533
(S'S2'
p4730
I0
I1
tp4731
Rp4732
(I3
S'|'
p4733
NNNI2
I1
I0
tp4734
bS'P4'
p4735
tp4736
Rp4737
aa(lp4738
g814
(g533
(S'S3'
p4739
I0
I1
tp4740
Rp4741
(I3
S'|'
p4742
NNNI3
I1
I0
tp4743
bS'P26'
p4744
tp4745
Rp4746
ag814
(g533
(S'S3'
p4747
I0
I1
tp4748
Rp4749
(I3
S'|'
p4750
NNNI3
I1
I0
tp4751
bS'P12'
p4752
tp4753
Rp4754
ag814
(g533
(S'S3'
p4755
I0
I1
tp4756
Rp4757
(I3
S'|'
p4758
NNNI3
I1
I0
tp4759
bS'P15'
p4760
tp4761
Rp4762
ag814
(g533
(S'S2'
p4763
I0
I1
tp4764
Rp4765
(I3
S'|'
p4766
NNNI2
I1
I0
tp4767
bS'P4'
p4768
tp4769
Rp4770
ag814
(g533
(S'S2'
p4771
I0
I1
tp4772
Rp4773
(I3
S'|'
p4774
NNNI2
I1
I0
tp4775
bS'P3'
p4776
tp4777
Rp4778
ag814
(g533
(S'S2'
p4779
I0
I1
tp4780
Rp4781
(I3
S'|'
p4782
NNNI2
I1
I0
tp4783
bS'P5'
p4784
tp4785
Rp4786
ag814
(g533
(S'S3'
p4787
I0
I1
tp4788
Rp4789
(I3
S'|'
p4790
NNNI3
I1
I0
tp4791
bS'P17'
p4792
tp4793
Rp4794
ag814
(g533
(S'S3'
p4795
I0
I1
tp4796
Rp4797
(I3
S'|'
p4798
NNNI3
I1
I0
tp4799
bS'P10'
p4800
tp4801
Rp4802
ag814
(g533
(S'S2'
p4803
I0
I1
tp4804
Rp4805
(I3
S'|'
p4806
NNNI2
I1
I0
tp4807
bS'P8'
p4808
tp4809
Rp4810
ag814
(g533
(S'S3'
p4811
I0
I1
tp4812
Rp4813
(I3
S'|'
p4814
NNNI3
I1
I0
tp4815
bS'P25'
p4816
tp4817
Rp4818
ag814
(g533
(S'S2'
p4819
I0
I1
tp4820
Rp4821
(I3
S'|'
p4822
NNNI2
I1
I0
tp4823
bS'P2'
p4824
tp4825
Rp4826
ag814
(g533
(S'S2'
p4827
I0
I1
tp4828
Rp4829
(I3
S'|'
p4830
NNNI2
I1
I0
tp4831
bS'P6'
p4832
tp4833
Rp4834
aa(lp4835
g814
(g533
(S'S3'
p4836
I0
I1
tp4837
Rp4838
(I3
S'|'
p4839
NNNI3
I1
I0
tp4840
bS'P15'
p4841
tp4842
Rp4843
ag814
(g533
(S'S3'
p4844
I0
I1
tp4845
Rp4846
(I3
S'|'
p4847
NNNI3
I1
I0
tp4848
bS'P26'
p4849
tp4850
Rp4851
ag814
(g533
(S'S3'
p4852
I0
I1
tp4853
Rp4854
(I3
S'|'
p4855
NNNI3
I1
I0
tp4856
bS'P10'
p4857
tp4858
Rp4859
ag814
(g533
(S'S3'
p4860
I0
I1
tp4861
Rp4862
(I3
S'|'
p4863
NNNI3
I1
I0
tp4864
bS'P19'
p4865
tp4866
Rp4867
ag814
(g533
(S'S3'
p4868
I0
I1
tp4869
Rp4870
(I3
S'|'
p4871
NNNI3
I1
I0
tp4872
bS'P18'
p4873
tp4874
Rp4875
ag814
(g533
(S'S3'
p4876
I0
I1
tp4877
Rp4878
(I3
S'|'
p4879
NNNI3
I1
I0
tp4880
bS'P16'
p4881
tp4882
Rp4883
ag814
(g533
(S'S2'
p4884
I0
I1
tp4885
Rp4886
(I3
S'|'
p4887
NNNI2
I1
I0
tp4888
bS'P7'
p4889
tp4890
Rp4891
ag814
(g533
(S'S3'
p4892
I0
I1
tp4893
Rp4894
(I3
S'|'
p4895
NNNI3
I1
I0
tp4896
bS'P14'
p4897
tp4898
Rp4899
ag814
(g533
(S'S3'
p4900
I0
I1
tp4901
Rp4902
(I3
S'|'
p4903
NNNI3
I1
I0
tp4904
bS'P21'
p4905
tp4906
Rp4907
ag814
(g533
(S'S3'
p4908
I0
I1
tp4909
Rp4910
(I3
S'|'
p4911
NNNI3
I1
I0
tp4912
bS'P27'
p4913
tp4914
Rp4915
ag814
(g533
(S'S2'
p4916
I0
I1
tp4917
Rp4918
(I3
S'|'
p4919
NNNI2
I1
I0
tp4920
bS'P1'
p4921
tp4922
Rp4923
ag814
(g533
(S'S2'
p4924
I0
I1
tp4925
Rp4926
(I3
S'|'
p4927
NNNI2
I1
I0
tp4928
bS'P4'
p4929
tp4930
Rp4931
ag814
(g533
(S'S3'
p4932
I0
I1
tp4933
Rp4934
(I3
S'|'
p4935
NNNI3
I1
I0
tp4936
bS'P13'
p4937
tp4938
Rp4939
ag814
(g533
(S'S3'
p4940
I0
I1
tp4941
Rp4942
(I3
S'|'
p4943
NNNI3
I1
I0
tp4944
bS'P17'
p4945
tp4946
Rp4947
ag814
(g533
(S'S3'
p4948
I0
I1
tp4949
Rp4950
(I3
S'|'
p4951
NNNI3
I1
I0
tp4952
bS'P12'
p4953
tp4954
Rp4955
ag814
(g533
(S'S3'
p4956
I0
I1
tp4957
Rp4958
(I3
S'|'
p4959
NNNI3
I1
I0
tp4960
bS'P30'
p4961
tp4962
Rp4963
ag814
(g533
(S'S2'
p4964
I0
I1
tp4965
Rp4966
(I3
S'|'
p4967
NNNI2
I1
I0
tp4968
bS'P8'
p4969
tp4970
Rp4971
ag814
(g533
(S'S3'
p4972
I0
I1
tp4973
Rp4974
(I3
S'|'
p4975
NNNI3
I1
I0
tp4976
bS'P28'
p4977
tp4978
Rp4979
ag814
(g533
(S'S3'
p4980
I0
I1
tp4981
Rp4982
(I3
S'|'
p4983
NNNI3
I1
I0
tp4984
bS'P23'
p4985
tp4986
Rp4987
aa(lp4988
g814
(g533
(S'S3'
p4989
I0
I1
tp4990
Rp4991
(I3
S'|'
p4992
NNNI3
I1
I0
tp4993
bS'P25'
p4994
tp4995
Rp4996
ag814
(g533
(S'S3'
p4997
I0
I1
tp4998
Rp4999
(I3
S'|'
p5000
NNNI3
I1
I0
tp5001
bS'P14'
p5002
tp5003
Rp5004
ag814
(g533
(S'S3'
p5005
I0
I1
tp5006
Rp5007
(I3
S'|'
p5008
NNNI3
I1
I0
tp5009
bS'P24'
p5010
tp5011
Rp5012
ag814
(g533
(S'S3'
p5013
I0
I1
tp5014
Rp5015
(I3
S'|'
p5016
NNNI3
I1
I0
tp5017
bS'P20'
p5018
tp5019
Rp5020
ag814
(g533
(S'S3'
p5021
I0
I1
tp5022
Rp5023
(I3
S'|'
p5024
NNNI3
I1
I0
tp5025
bS'P17'
p5026
tp5027
Rp5028
ag814
(g533
(S'S2'
p5029
I0
I1
tp5030
Rp5031
(I3
S'|'
p5032
NNNI2
I1
I0
tp5033
bS'P5'
p5034
tp5035
Rp5036
ag814
(g533
(S'S3'
p5037
I0
I1
tp5038
Rp5039
(I3
S'|'
p5040
NNNI3
I1
I0
tp5041
bS'P15'
p5042
tp5043
Rp5044
ag814
(g533
(S'S2'
p5045
I0
I1
tp5046
Rp5047
(I3
S'|'
p5048
NNNI2
I1
I0
tp5049
bS'P6'
p5050
tp5051
Rp5052
ag814
(g533
(S'S3'
p5053
I0
I1
tp5054
Rp5055
(I3
S'|'
p5056
NNNI3
I1
I0
tp5057
bS'P30'
p5058
tp5059
Rp5060
ag814
(g533
(S'S3'
p5061
I0
I1
tp5062
Rp5063
(I3
S'|'
p5064
NNNI3
I1
I0
tp5065
bS'P27'
p5066
tp5067
Rp5068
ag814
(g533
(S'S2'
p5069
I0
I1
tp5070
Rp5071
(I3
S'|'
p5072
NNNI2
I1
I0
tp5073
bS'P4'
p5074
tp5075
Rp5076
ag814
(g533
(S'S2'
p5077
I0
I1
tp5078
Rp5079
(I3
S'|'
p5080
NNNI2
I1
I0
tp5081
bS'P2'
p5082
tp5083
Rp5084
ag814
(g533
(S'S3'
p5085
I0
I1
tp5086
Rp5087
(I3
S'|'
p5088
NNNI3
I1
I0
tp5089
bS'P18'
p5090
tp5091
Rp5092
ag814
(g533
(S'S3'
p5093
I0
I1
tp5094
Rp5095
(I3
S'|'
p5096
NNNI3
I1
I0
tp5097
bS'P23'
p5098
tp5099
Rp5100
ag814
(g533
(S'S2'
p5101
I0
I1
tp5102
Rp5103
(I3
S'|'
p5104
NNNI2
I1
I0
tp5105
bS'P7'
p5106
tp5107
Rp5108
ag814
(g533
(S'S2'
p5109
I0
I1
tp5110
Rp5111
(I3
S'|'
p5112
NNNI2
I1
I0
tp5113
bS'P1'
p5114
tp5115
Rp5116
ag814
(g533
(S'S3'
p5117
I0
I1
tp5118
Rp5119
(I3
S'|'
p5120
NNNI3
I1
I0
tp5121
bS'P21'
p5122
tp5123
Rp5124
ag814
(g533
(S'S3'
p5125
I0
I1
tp5126
Rp5127
(I3
S'|'
p5128
NNNI3
I1
I0
tp5129
bS'P19'
p5130
tp5131
Rp5132
ag814
(g533
(S'S3'
p5133
I0
I1
tp5134
Rp5135
(I3
S'|'
p5136
NNNI3
I1
I0
tp5137
bS'P12'
p5138
tp5139
Rp5140
ag814
(g533
(S'S3'
p5141
I0
I1
tp5142
Rp5143
(I3
S'|'
p5144
NNNI3
I1
I0
tp5145
bS'P10'
p5146
tp5147
Rp5148
ag814
(g533
(S'S2'
p5149
I0
I1
tp5150
Rp5151
(I3
S'|'
p5152
NNNI2
I1
I0
tp5153
bS'P8'
p5154
tp5155
Rp5156
ag814
(g533
(S'S3'
p5157
I0
I1
tp5158
Rp5159
(I3
S'|'
p5160
NNNI3
I1
I0
tp5161
bS'P29'
p5162
tp5163
Rp5164
ag814
(g533
(S'S2'
p5165
I0
I1
tp5166
Rp5167
(I3
S'|'
p5168
NNNI2
I1
I0
tp5169
bS'P3'
p5170
tp5171
Rp5172
aa(lp5173
g814
(g533
(S'S3'
p5174
I0
I1
tp5175
Rp5176
(I3
S'|'
p5177
NNNI3
I1
I0
tp5178
bS'P24'
p5179
tp5180
Rp5181
ag814
(g533
(S'S3'
p5182
I0
I1
tp5183
Rp5184
(I3
S'|'
p5185
NNNI3
I1
I0
tp5186
bS'P27'
p5187
tp5188
Rp5189
ag814
(g533
(S'S3'
p5190
I0
I1
tp5191
Rp5192
(I3
S'|'
p5193
NNNI3
I1
I0
tp5194
bS'P18'
p5195
tp5196
Rp5197
ag814
(g533
(S'S3'
p5198
I0
I1
tp5199
Rp5200
(I3
S'|'
p5201
NNNI3
I1
I0
tp5202
bS'P25'
p5203
tp5204
Rp5205
ag814
(g533
(S'S3'
p5206
I0
I1
tp5207
Rp5208
(I3
S'|'
p5209
NNNI3
I1
I0
tp5210
bS'P26'
p5211
tp5212
Rp5213
ag814
(g533
(S'S2'
p5214
I0
I1
tp5215
Rp5216
(I3
S'|'
p5217
NNNI2
I1
I0
tp5218
bS'P8'
p5219
tp5220
Rp5221
ag814
(g533
(S'S3'
p5222
I0
I1
tp5223
Rp5224
(I3
S'|'
p5225
NNNI3
I1
I0
tp5226
bS'P30'
p5227
tp5228
Rp5229
ag814
(g533
(S'S3'
p5230
I0
I1
tp5231
Rp5232
(I3
S'|'
p5233
NNNI3
I1
I0
tp5234
bS'P15'
p5235
tp5236
Rp5237
ag814
(g533
(S'S3'
p5238
I0
I1
tp5239
Rp5240
(I3
S'|'
p5241
NNNI3
I1
I0
tp5242
bS'P11'
p5243
tp5244
Rp5245
ag814
(g533
(S'S3'
p5246
I0
I1
tp5247
Rp5248
(I3
S'|'
p5249
NNNI3
I1
I0
tp5250
bS'P14'
p5251
tp5252
Rp5253
ag814
(g533
(S'S2'
p5254
I0
I1
tp5255
Rp5256
(I3
S'|'
p5257
NNNI2
I1
I0
tp5258
bS'P9'
p5259
tp5260
Rp5261
ag814
(g533
(S'S3'
p5262
I0
I1
tp5263
Rp5264
(I3
S'|'
p5265
NNNI3
I1
I0
tp5266
bS'P23'
p5267
tp5268
Rp5269
ag814
(g533
(S'S3'
p5270
I0
I1
tp5271
Rp5272
(I3
S'|'
p5273
NNNI3
I1
I0
tp5274
bS'P13'
p5275
tp5276
Rp5277
ag814
(g533
(S'S3'
p5278
I0
I1
tp5279
Rp5280
(I3
S'|'
p5281
NNNI3
I1
I0
tp5282
bS'P22'
p5283
tp5284
Rp5285
ag814
(g533
(S'S3'
p5286
I0
I1
tp5287
Rp5288
(I3
S'|'
p5289
NNNI3
I1
I0
tp5290
bS'P16'
p5291
tp5292
Rp5293
ag814
(g533
(S'S3'
p5294
I0
I1
tp5295
Rp5296
(I3
S'|'
p5297
NNNI3
I1
I0
tp5298
bS'P19'
p5299
tp5300
Rp5301
ag814
(g533
(S'S2'
p5302
I0
I1
tp5303
Rp5304
(I3
S'|'
p5305
NNNI2
I1
I0
tp5306
bS'P7'
p5307
tp5308
Rp5309
ag814
(g533
(S'S3'
p5310
I0
I1
tp5311
Rp5312
(I3
S'|'
p5313
NNNI3
I1
I0
tp5314
bS'P29'
p5315
tp5316
Rp5317
ag814
(g533
(S'S3'
p5318
I0
I1
tp5319
Rp5320
(I3
S'|'
p5321
NNNI3
I1
I0
tp5322
bS'P10'
p5323
tp5324
Rp5325
ag814
(g533
(S'S2'
p5326
I0
I1
tp5327
Rp5328
(I3
S'|'
p5329
NNNI2
I1
I0
tp5330
bS'P3'
p5331
tp5332
Rp5333
ag814
(g533
(S'S2'
p5334
I0
I1
tp5335
Rp5336
(I3
S'|'
p5337
NNNI2
I1
I0
tp5338
bS'P6'
p5339
tp5340
Rp5341
ag814
(g533
(S'S2'
p5342
I0
I1
tp5343
Rp5344
(I3
S'|'
p5345
NNNI2
I1
I0
tp5346
bS'P1'
p5347
tp5348
Rp5349
ag814
(g533
(S'S2'
p5350
I0
I1
tp5351
Rp5352
(I3
S'|'
p5353
NNNI2
I1
I0
tp5354
bS'P2'
p5355
tp5356
Rp5357
ag814
(g533
(S'S2'
p5358
I0
I1
tp5359
Rp5360
(I3
S'|'
p5361
NNNI2
I1
I0
tp5362
bS'P4'
p5363
tp5364
Rp5365
ag814
(g533
(S'S3'
p5366
I0
I1
tp5367
Rp5368
(I3
S'|'
p5369
NNNI3
I1
I0
tp5370
bS'P28'
p5371
tp5372
Rp5373
ag814
(g533
(S'S2'
p5374
I0
I1
tp5375
Rp5376
(I3
S'|'
p5377
NNNI2
I1
I0
tp5378
bS'P5'
p5379
tp5380
Rp5381
ag814
(g533
(S'S3'
p5382
I0
I1
tp5383
Rp5384
(I3
S'|'
p5385
NNNI3
I1
I0
tp5386
bS'P17'
p5387
tp5388
Rp5389
ag814
(g533
(S'S3'
p5390
I0
I1
tp5391
Rp5392
(I3
S'|'
p5393
NNNI3
I1
I0
tp5394
bS'P12'
p5395
tp5396
Rp5397
ag814
(g533
(S'S3'
p5398
I0
I1
tp5399
Rp5400
(I3
S'|'
p5401
NNNI3
I1
I0
tp5402
bS'P20'
p5403
tp5404
Rp5405
aa(lp5406
g814
(g533
(S'S3'
p5407
I0
I1
tp5408
Rp5409
(I3
S'|'
p5410
NNNI3
I1
I0
tp5411
bS'P29'
p5412
tp5413
Rp5414
ag814
(g533
(S'S3'
p5415
I0
I1
tp5416
Rp5417
(I3
S'|'
p5418
NNNI3
I1
I0
tp5419
bS'P20'
p5420
tp5421
Rp5422
ag814
(g533
(S'S3'
p5423
I0
I1
tp5424
Rp5425
(I3
S'|'
p5426
NNNI3
I1
I0
tp5427
bS'P15'
p5428
tp5429
Rp5430
ag814
(g533
(S'S3'
p5431
I0
I1
tp5432
Rp5433
(I3
S'|'
p5434
NNNI3
I1
I0
tp5435
bS'P10'
p5436
tp5437
Rp5438
ag814
(g533
(S'S2'
p5439
I0
I1
tp5440
Rp5441
(I3
S'|'
p5442
NNNI2
I1
I0
tp5443
bS'P6'
p5444
tp5445
Rp5446
ag814
(g533
(S'S2'
p5447
I0
I1
tp5448
Rp5449
(I3
S'|'
p5450
NNNI2
I1
I0
tp5451
bS'P1'
p5452
tp5453
Rp5454
ag814
(g533
(S'S3'
p5455
I0
I1
tp5456
Rp5457
(I3
S'|'
p5458
NNNI3
I1
I0
tp5459
bS'P16'
p5460
tp5461
Rp5462
ag814
(g533
(S'S2'
p5463
I0
I1
tp5464
Rp5465
(I3
S'|'
p5466
NNNI2
I1
I0
tp5467
bS'P8'
p5468
tp5469
Rp5470
aa(lp5471
g814
(g533
(S'S3'
p5472
I0
I1
tp5473
Rp5474
(I3
S'|'
p5475
NNNI3
I1
I0
tp5476
bS'P22'
p5477
tp5478
Rp5479
ag814
(g533
(S'S2'
p5480
I0
I1
tp5481
Rp5482
(I3
S'|'
p5483
NNNI2
I1
I0
tp5484
bS'P5'
p5485
tp5486
Rp5487
ag814
(g533
(S'S2'
p5488
I0
I1
tp5489
Rp5490
(I3
S'|'
p5491
NNNI2
I1
I0
tp5492
bS'P2'
p5493
tp5494
Rp5495
ag814
(g533
(S'S3'
p5496
I0
I1
tp5497
Rp5498
(I3
S'|'
p5499
NNNI3
I1
I0
tp5500
bS'P19'
p5501
tp5502
Rp5503
ag814
(g533
(S'S2'
p5504
I0
I1
tp5505
Rp5506
(I3
S'|'
p5507
NNNI2
I1
I0
tp5508
bS'P8'
p5509
tp5510
Rp5511
ag814
(g533
(S'S2'
p5512
I0
I1
tp5513
Rp5514
(I3
S'|'
p5515
NNNI2
I1
I0
tp5516
bS'P6'
p5517
tp5518
Rp5519
ag814
(g533
(S'S2'
p5520
I0
I1
tp5521
Rp5522
(I3
S'|'
p5523
NNNI2
I1
I0
tp5524
bS'P7'
p5525
tp5526
Rp5527
ag814
(g533
(S'S3'
p5528
I0
I1
tp5529
Rp5530
(I3
S'|'
p5531
NNNI3
I1
I0
tp5532
bS'P10'
p5533
tp5534
Rp5535
ag814
(g533
(S'S3'
p5536
I0
I1
tp5537
Rp5538
(I3
S'|'
p5539
NNNI3
I1
I0
tp5540
bS'P26'
p5541
tp5542
Rp5543
ag814
(g533
(S'S3'
p5544
I0
I1
tp5545
Rp5546
(I3
S'|'
p5547
NNNI3
I1
I0
tp5548
bS'P29'
p5549
tp5550
Rp5551
ag814
(g533
(S'S3'
p5552
I0
I1
tp5553
Rp5554
(I3
S'|'
p5555
NNNI3
I1
I0
tp5556
bS'P16'
p5557
tp5558
Rp5559
ag814
(g533
(S'S2'
p5560
I0
I1
tp5561
Rp5562
(I3
S'|'
p5563
NNNI2
I1
I0
tp5564
bS'P4'
p5565
tp5566
Rp5567
ag814
(g533
(S'S3'
p5568
I0
I1
tp5569
Rp5570
(I3
S'|'
p5571
NNNI3
I1
I0
tp5572
bS'P14'
p5573
tp5574
Rp5575
ag814
(g533
(S'S3'
p5576
I0
I1
tp5577
Rp5578
(I3
S'|'
p5579
NNNI3
I1
I0
tp5580
bS'P13'
p5581
tp5582
Rp5583
ag814
(g533
(S'S3'
p5584
I0
I1
tp5585
Rp5586
(I3
S'|'
p5587
NNNI3
I1
I0
tp5588
bS'P28'
p5589
tp5590
Rp5591
ag814
(g533
(S'S3'
p5592
I0
I1
tp5593
Rp5594
(I3
S'|'
p5595
NNNI3
I1
I0
tp5596
bS'P23'
p5597
tp5598
Rp5599
ag814
(g533
(S'S3'
p5600
I0
I1
tp5601
Rp5602
(I3
S'|'
p5603
NNNI3
I1
I0
tp5604
bS'P30'
p5605
tp5606
Rp5607
ag814
(g533
(S'S3'
p5608
I0
I1
tp5609
Rp5610
(I3
S'|'
p5611
NNNI3
I1
I0
tp5612
bS'P21'
p5613
tp5614
Rp5615
ag814
(g533
(S'S3'
p5616
I0
I1
tp5617
Rp5618
(I3
S'|'
p5619
NNNI3
I1
I0
tp5620
bS'P11'
p5621
tp5622
Rp5623
aa(lp5624
g814
(g533
(S'S3'
p5625
I0
I1
tp5626
Rp5627
(I3
S'|'
p5628
NNNI3
I1
I0
tp5629
bS'P22'
p5630
tp5631
Rp5632
ag814
(g533
(S'S3'
p5633
I0
I1
tp5634
Rp5635
(I3
S'|'
p5636
NNNI3
I1
I0
tp5637
bS'P16'
p5638
tp5639
Rp5640
ag814
(g533
(S'S3'
p5641
I0
I1
tp5642
Rp5643
(I3
S'|'
p5644
NNNI3
I1
I0
tp5645
bS'P20'
p5646
tp5647
Rp5648
ag814
(g533
(S'S3'
p5649
I0
I1
tp5650
Rp5651
(I3
S'|'
p5652
NNNI3
I1
I0
tp5653
bS'P18'
p5654
tp5655
Rp5656
ag814
(g533
(S'S3'
p5657
I0
I1
tp5658
Rp5659
(I3
S'|'
p5660
NNNI3
I1
I0
tp5661
bS'P12'
p5662
tp5663
Rp5664
ag814
(g533
(S'S3'
p5665
I0
I1
tp5666
Rp5667
(I3
S'|'
p5668
NNNI3
I1
I0
tp5669
bS'P25'
p5670
tp5671
Rp5672
ag814
(g533
(S'S2'
p5673
I0
I1
tp5674
Rp5675
(I3
S'|'
p5676
NNNI2
I1
I0
tp5677
bS'P5'
p5678
tp5679
Rp5680
ag814
(g533
(S'S3'
p5681
I0
I1
tp5682
Rp5683
(I3
S'|'
p5684
NNNI3
I1
I0
tp5685
bS'P28'
p5686
tp5687
Rp5688
ag814
(g533
(S'S3'
p5689
I0
I1
tp5690
Rp5691
(I3
S'|'
p5692
NNNI3
I1
I0
tp5693
bS'P10'
p5694
tp5695
Rp5696
ag814
(g533
(S'S3'
p5697
I0
I1
tp5698
Rp5699
(I3
S'|'
p5700
NNNI3
I1
I0
tp5701
bS'P13'
p5702
tp5703
Rp5704
ag814
(g533
(S'S2'
p5705
I0
I1
tp5706
Rp5707
(I3
S'|'
p5708
NNNI2
I1
I0
tp5709
bS'P8'
p5710
tp5711
Rp5712
aa(lp5713
g814
(g533
(S'S3'
p5714
I0
I1
tp5715
Rp5716
(I3
S'|'
p5717
NNNI3
I1
I0
tp5718
bS'P12'
p5719
tp5720
Rp5721
ag814
(g533
(S'S3'
p5722
I0
I1
tp5723
Rp5724
(I3
S'|'
p5725
NNNI3
I1
I0
tp5726
bS'P22'
p5727
tp5728
Rp5729
ag814
(g533
(S'S2'
p5730
I0
I1
tp5731
Rp5732
(I3
S'|'
p5733
NNNI2
I1
I0
tp5734
bS'P8'
p5735
tp5736
Rp5737
ag814
(g533
(S'S2'
p5738
I0
I1
tp5739
Rp5740
(I3
S'|'
p5741
NNNI2
I1
I0
tp5742
bS'P1'
p5743
tp5744
Rp5745
ag814
(g533
(S'S3'
p5746
I0
I1
tp5747
Rp5748
(I3
S'|'
p5749
NNNI3
I1
I0
tp5750
bS'P29'
p5751
tp5752
Rp5753
ag814
(g533
(S'S3'
p5754
I0
I1
tp5755
Rp5756
(I3
S'|'
p5757
NNNI3
I1
I0
tp5758
bS'P26'
p5759
tp5760
Rp5761
ag814
(g533
(S'S3'
p5762
I0
I1
tp5763
Rp5764
(I3
S'|'
p5765
NNNI3
I1
I0
tp5766
bS'P28'
p5767
tp5768
Rp5769
ag814
(g533
(S'S3'
p5770
I0
I1
tp5771
Rp5772
(I3
S'|'
p5773
NNNI3
I1
I0
tp5774
bS'P30'
p5775
tp5776
Rp5777
ag814
(g533
(S'S3'
p5778
I0
I1
tp5779
Rp5780
(I3
S'|'
p5781
NNNI3
I1
I0
tp5782
bS'P23'
p5783
tp5784
Rp5785
ag814
(g533
(S'S3'
p5786
I0
I1
tp5787
Rp5788
(I3
S'|'
p5789
NNNI3
I1
I0
tp5790
bS'P19'
p5791
tp5792
Rp5793
ag814
(g533
(S'S3'
p5794
I0
I1
tp5795
Rp5796
(I3
S'|'
p5797
NNNI3
I1
I0
tp5798
bS'P24'
p5799
tp5800
Rp5801
ag814
(g533
(S'S2'
p5802
I0
I1
tp5803
Rp5804
(I3
S'|'
p5805
NNNI2
I1
I0
tp5806
bS'P6'
p5807
tp5808
Rp5809
ag814
(g533
(S'S2'
p5810
I0
I1
tp5811
Rp5812
(I3
S'|'
p5813
NNNI2
I1
I0
tp5814
bS'P2'
p5815
tp5816
Rp5817
ag814
(g533
(S'S3'
p5818
I0
I1
tp5819
Rp5820
(I3
S'|'
p5821
NNNI3
I1
I0
tp5822
bS'P10'
p5823
tp5824
Rp5825
ag814
(g533
(S'S3'
p5826
I0
I1
tp5827
Rp5828
(I3
S'|'
p5829
NNNI3
I1
I0
tp5830
bS'P17'
p5831
tp5832
Rp5833
ag814
(g533
(S'S3'
p5834
I0
I1
tp5835
Rp5836
(I3
S'|'
p5837
NNNI3
I1
I0
tp5838
bS'P16'
p5839
tp5840
Rp5841
ag814
(g533
(S'S2'
p5842
I0
I1
tp5843
Rp5844
(I3
S'|'
p5845
NNNI2
I1
I0
tp5846
bS'P5'
p5847
tp5848
Rp5849
ag814
(g533
(S'S3'
p5850
I0
I1
tp5851
Rp5852
(I3
S'|'
p5853
NNNI3
I1
I0
tp5854
bS'P25'
p5855
tp5856
Rp5857
ag814
(g533
(S'S3'
p5858
I0
I1
tp5859
Rp5860
(I3
S'|'
p5861
NNNI3
I1
I0
tp5862
bS'P11'
p5863
tp5864
Rp5865
ag814
(g533
(S'S2'
p5866
I0
I1
tp5867
Rp5868
(I3
S'|'
p5869
NNNI2
I1
I0
tp5870
bS'P4'
p5871
tp5872
Rp5873
ag814
(g533
(S'S3'
p5874
I0
I1
tp5875
Rp5876
(I3
S'|'
p5877
NNNI3
I1
I0
tp5878
bS'P14'
p5879
tp5880
Rp5881
ag814
(g533
(S'S3'
p5882
I0
I1
tp5883
Rp5884
(I3
S'|'
p5885
NNNI3
I1
I0
tp5886
bS'P18'
p5887
tp5888
Rp5889
ag814
(g533
(S'S2'
p5890
I0
I1
tp5891
Rp5892
(I3
S'|'
p5893
NNNI2
I1
I0
tp5894
bS'P9'
p5895
tp5896
Rp5897
aasS'delta_fix'
p5898
(lp5899
g814
(g533
(S'f8'
p5900
I0
I1
tp5901
Rp5902
(I3
S'<'
p5903
NNNI-1
I-1
I0
tp5904
bS'\xe4\xeek\x14\xa8\xeac@'
p5905
tp5906
Rp5907
ag814
(g5902
S'P\xf0b\xbd\xc4Ab@'
p5908
tp5909
Rp5910
ag814
(g5902
S'/\xe9\x8fp5\x8eZ@'
p5911
tp5912
Rp5913
ag814
(g5902
S'\xbd\xf1Yf\xe1\x98`@'
p5914
tp5915
Rp5916
ag814
(g5902
S'U\xe6\xa1\x1e\xfc\xdf]@'
p5917
tp5918
Rp5919
ag814
(g5902
S'/\xe9\x8fp5\x8eZ@'
p5920
tp5921
Rp5922
ag814
(g5902
S'U\xe6\xa1\x1e\xfc\xdf]@'
p5923
tp5924
Rp5925
ag814
(g5902
S'P\xf0b\xbd\xc4Ab@'
p5926
tp5927
Rp5928
ag814
(g5902
S'P\xf0b\xbd\xc4Ab@'
p5929
tp5930
Rp5931
ag814
(g5902
S'P\xf0b\xbd\xc4Ab@'
p5932
tp5933
Rp5934
ag814
(g5902
S'\xbd\xf1Yf\xe1\x98`@'
p5935
tp5936
Rp5937
ag814
(g5902
S'\xbd\xf1Yf\xe1\x98`@'
p5938
tp5939
Rp5940
ag814
(g5902
S'\xbd\xf1Yf\xe1\x98`@'
p5941
tp5942
Rp5943
ag814
(g5902
S'P\xf0b\xbd\xc4Ab@'
p5944
tp5945
Rp5946
ag814
(g5902
S'U\xe6\xa1\x1e\xfc\xdf]@'
p5947
tp5948
Rp5949
ag814
(g5902
S'/\xe9\x8fp5\x8eZ@'
p5950
tp5951
Rp5952
ag814
(g5902
S'/\xe9\x8fp5\x8eZ@'
p5953
tp5954
Rp5955
ag814
(g5902
S'\xbd\xf1Yf\xe1\x98`@'
p5956
tp5957
Rp5958
ag814
(g5902
S'U\xe6\xa1\x1e\xfc\xdf]@'
p5959
tp5960
Rp5961
ag814
(g5902
S'/\xe9\x8fp5\x8eZ@'
p5962
tp5963
Rp5964
ag814
(g5902
S'\xbd\xf1Yf\xe1\x98`@'
p5965
tp5966
Rp5967
ag814
(g5902
S'P\xf0b\xbd\xc4Ab@'
p5968
tp5969
Rp5970
ag814
(g5902
S'\xbd\xf1Yf\xe1\x98`@'
p5971
tp5972
Rp5973
ag814
(g5902
S'\xbd\xf1Yf\xe1\x98`@'
p5974
tp5975
Rp5976
ag814
(g5902
S'P\xf0b\xbd\xc4Ab@'
p5977
tp5978
Rp5979
asS'delta'
p5980
(lp5981
F0.007149749880109428
aF0.006562576819552445
aF0.010434171884094281
aF0.0069494382661180595
aF0.0014854519012465284
aF0.010192011749048924
aF0.003922520090147231
aF0.009868334930453183
aF0.00466756775739531
aF0.005990603889497047
aF0.011722541460690815
aF0.006303981007713574
aF0.009718106606209594
aF0.006723089503549011
aF0.00790676964635856
aF0.0028272835786830176
aF0.0005687115067264602
aF0.0059942069734288195
aF0.0012600324247034533
aF0.006293025556899162
aF0.014462792759200751
aF0.0025989290412932963
aF0.005685995393238192
aF0.00834445694003956
aF0.006418529493136854
asS'alpha'
p5982
(lp5983
(lp5984
S'41.72'
p5985
aS'2.94'
p5986
ag494
ag494
ag494
ag494
aS'8.07'
p5987
ag494
aS'6.04'
p5988
ag494
aS'2.16'
p5989
aS'5.90'
p5990
aS'8.16'
p5991
ag494
ag494
ag494
aS'5.74'
p5992
ag494
aS'9.37'
p5993
aS'13.99'
p5994
aS'16.26'
p5995
aS'16.39'
p5996
ag494
ag494
aS'14.39'
p5997
aa(lp5998
S'11.51'
p5999
aS'29.94'
p6000
aS'10.72'
p6001
ag494
ag494
aS'7.17'
p6002
ag494
aS'9.21'
p6003
aS'11.32'
p6004
ag494
aS'8.12'
p6005
aS'13.48'
p6006
aS'5.21'
p6007
aS'4.32'
p6008
ag494
aS'23.53'
p6009
aS'6.47'
p6010
aS'7.74'
p6011
ag494
aS'2.65'
p6012
aS'22.09'
p6013
ag494
aS'7.06'
p6014
ag494
aS'0.70'
p6015
aa(lp6016
S'1.45'
p6017
aS'4.21'
p6018
aS'5.71'
p6019
ag494
ag494
aS'8.08'
p6020
aS'11.60'
p6021
aS'15.46'
p6022
aS'11.00'
p6023
aS'5.81'
p6024
ag494
ag494
aS'3.52'
p6025
aS'7.45'
p6026
ag494
aS'3.31'
p6027
aS'13.06'
p6028
aS'14.52'
p6029
ag494
aS'1.58'
p6030
aS'1.50'
p6031
ag494
ag494
ag494
ag494
aa(lp6032
S'11.97'
p6033
aS'2.51'
p6034
ag494
ag494
ag494
aS'3.18'
p6035
aS'4.87'
p6036
aS'4.50'
p6037
ag494
ag494
ag494
aS'23.27'
p6038
ag494
ag494
ag494
aS'8.48'
p6039
aS'3.11'
p6040
aS'16.31'
p6041
aS'6.43'
p6042
aS'25.42'
p6043
aS'11.53'
p6044
ag494
aS'10.25'
p6045
ag494
aS'1.62'
p6046
aa(lp6047
S'4.94'
p6048
ag494
ag494
ag494
ag494
ag494
ag494
ag494
ag494
ag494
aS'39.53'
p6049
aS'9.11'
p6050
ag494
ag494
ag494
ag494
aS'4.26'
p6051
aS'18.65'
p6052
ag494
aS'12.53'
p6053
aS'5.48'
p6054
ag494
aS'22.40'
p6055
aS'2.50'
p6056
aS'31.65'
p6057
aa(lp6058
S'9.75'
p6059
aS'5.05'
p6060
aS'2.88'
p6061
aS'4.87'
p6062
ag494
ag494
aS'22.08'
p6063
aS'2.42'
p6064
aS'9.35'
p6065
ag494
aS'2.17'
p6066
aS'12.85'
p6067
aS'6.05'
p6068
ag494
aS'3.94'
p6069
ag494
aS'3.16'
p6070
aS'16.83'
p6071
ag494
aS'14.26'
p6072
aS'1.58'
p6073
aS'21.54'
p6074
aS'15.40'
p6075
ag494
aS'6.45'
p6076
aa(lp6077
S'7.89'
p6078
aS'22.56'
p6079
aS'3.78'
p6080
ag494
ag494
ag494
ag494
aS'10.02'
p6081
aS'4.74'
p6082
ag494
aS'9.23'
p6083
aS'2.12'
p6084
ag494
ag494
aS'10.88'
p6085
ag494
aS'2.65'
p6086
ag494
aS'4.69'
p6087
aS'5.27'
p6088
aS'7.63'
p6089
ag494
aS'14.75'
p6090
ag494
ag494
aa(lp6091
S'9.56'
p6092
aS'15.97'
p6093
aS'1.64'
p6094
ag494
aS'3.55'
p6095
ag494
ag494
aS'6.39'
p6096
aS'7.06'
p6097
ag494
aS'40.33'
p6098
aS'18.56'
p6099
ag494
aS'6.69'
p6100
aS'6.70'
p6101
ag494
aS'6.84'
p6102
aS'7.71'
p6103
aS'4.81'
p6104
aS'9.22'
p6105
aS'3.32'
p6106
aS'8.16'
p6107
aS'5.94'
p6108
aS'7.95'
p6109
aS'36.04'
p6110
aa(lp6111
S'13.10'
p6112
ag494
aS'11.12'
p6113
ag494
ag494
ag494
aS'7.78'
p6114
aS'13.21'
p6115
aS'12.48'
p6116
ag494
ag494
aS'3.62'
p6117
ag494
ag494
aS'0.75'
p6118
ag494
aS'8.19'
p6119
ag494
ag494
ag494
aS'5.74'
p6120
ag494
ag494
ag494
aS'9.90'
p6121
aa(lp6122
S'3.01'
p6123
aS'10.78'
p6124
ag494
ag494
ag494
aS'2.27'
p6125
ag494
aS'4.34'
p6126
ag494
ag494
aS'32.21'
p6127
aS'6.48'
p6128
ag494
ag494
aS'1.79'
p6129
aS'21.67'
p6130
aS'25.97'
p6131
aS'2.13'
p6132
aS'14.45'
p6133
aS'27.35'
p6134
aS'0.78'
p6135
aS'8.75'
p6136
aS'21.96'
p6137
aS'22.90'
p6138
aS'27.09'
p6139
aa(lp6140
S'6.70'
p6141
aS'16.55'
p6142
ag494
ag494
ag494
aS'4.69'
p6143
aS'3.41'
p6144
aS'4.49'
p6145
aS'8.74'
p6146
ag494
aS'1.97'
p6147
aS'27.79'
p6148
ag494
aS'6.84'
p6149
aS'12.81'
p6150
aS'35.80'
p6151
aS'3.04'
p6152
ag494
ag494
ag494
aS'8.05'
p6153
ag494
aS'11.44'
p6154
ag494
aS'38.68'
p6155
aa(lp6156
S'3.67'
p6157
aS'15.53'
p6158
aS'17.27'
p6159
ag494
aS'9.61'
p6160
ag494
aS'0.52'
p6161
aS'3.09'
p6162
aS'15.21'
p6163
ag494
aS'6.55'
p6164
aS'7.17'
p6165
aS'17.64'
p6166
aS'7.07'
p6167
aS'19.31'
p6168
ag494
aS'3.68'
p6169
aS'18.45'
p6170
aS'14.28'
p6171
aS'3.53'
p6172
aS'7.48'
p6173
ag494
ag494
aS'14.51'
p6174
aS'1.62'
p6175
aa(lp6176
S'19.15'
p6177
aS'4.25'
p6178
aS'2.04'
p6179
ag494
aS'10.68'
p6180
aS'3.44'
p6181
aS'15.38'
p6182
aS'18.29'
p6183
ag494
ag494
aS'11.65'
p6184
aS'17.15'
p6185
ag494
aS'9.39'
p6186
ag494
aS'14.69'
p6187
ag494
ag494
aS'6.37'
p6188
ag494
aS'4.42'
p6189
ag494
aS'6.43'
p6190
aS'16.46'
p6191
ag494
aa(lp6192
S'0.81'
p6193
aS'17.05'
p6194
aS'4.12'
p6195
ag494
ag494
aS'8.14'
p6196
ag494
aS'4.86'
p6197
aS'1.54'
p6198
ag494
ag494
aS'4.27'
p6199
ag494
aS'11.62'
p6200
aS'16.40'
p6201
ag494
aS'3.08'
p6202
ag494
aS'6.27'
p6203
aS'24.49'
p6204
aS'13.80'
p6205
ag494
aS'9.38'
p6206
ag494
aS'1.94'
p6207
aa(lp6208
S'4.07'
p6209
aS'4.39'
p6210
aS'4.53'
p6211
ag494
ag494
aS'25.89'
p6212
aS'8.55'
p6213
aS'2.54'
p6214
ag494
ag494
ag494
aS'28.16'
p6215
ag494
aS'42.03'
p6216
aS'10.27'
p6217
aS'6.28'
p6218
aS'5.09'
p6219
aS'6.85'
p6220
aS'11.45'
p6221
aS'9.00'
p6222
aS'5.11'
p6223
aS'10.46'
p6224
ag494
ag494
ag494
aa(lp6225
S'14.76'
p6226
aS'6.54'
p6227
aS'44.16'
p6228
ag494
ag494
aS'8.71'
p6229
aS'6.74'
p6230
aS'23.34'
p6231
aS'7.74'
p6232
ag494
aS'3.51'
p6233
aS'8.78'
p6234
ag494
aS'3.41'
p6235
aS'14.96'
p6236
aS'13.21'
p6237
aS'9.72'
p6238
ag494
aS'5.05'
p6239
ag494
aS'3.83'
p6240
aS'2.56'
p6241
aS'3.95'
p6242
aS'10.69'
p6243
aS'2.47'
p6244
aa(lp6245
S'8.62'
p6246
ag494
ag494
ag494
ag494
aS'18.13'
p6247
aS'10.71'
p6248
aS'4.23'
p6249
aS'25.47'
p6250
ag494
aS'2.44'
p6251
aS'22.66'
p6252
aS'4.04'
p6253
aS'12.72'
p6254
ag494
ag494
aS'0.52'
p6255
aS'43.63'
p6256
aS'14.39'
p6257
aS'11.17'
p6258
aS'2.44'
p6259
ag494
ag494
ag494
aS'5.65'
p6260
aa(lp6261
S'8.36'
p6262
aS'14.68'
p6263
ag494
aS'2.27'
p6264
ag494
aS'14.55'
p6265
ag494
aS'24.90'
p6266
ag494
ag494
aS'3.55'
p6267
aS'3.23'
p6268
aS'8.64'
p6269
aS'0.90'
p6270
aS'42.53'
p6271
ag494
aS'19.40'
p6272
ag494
aS'6.75'
p6273
aS'13.91'
p6274
aS'8.14'
p6275
ag494
ag494
aS'11.59'
p6276
aS'4.08'
p6277
aa(lp6278
S'19.13'
p6279
ag494
aS'1.44'
p6280
ag494
ag494
ag494
ag494
aS'14.38'
p6281
aS'44.56'
p6282
ag494
aS'7.82'
p6283
aS'5.32'
p6284
aS'14.80'
p6285
ag494
ag494
ag494
aS'18.43'
p6286
ag494
aS'5.17'
p6287
aS'13.62'
p6288
aS'2.79'
p6289
ag494
aS'8.73'
p6290
ag494
aS'1.11'
p6291
aa(lp6292
S'9.16'
p6293
aS'10.70'
p6294
ag494
ag494
ag494
ag494
ag494
aS'14.04'
p6295
aS'24.37'
p6296
ag494
aS'9.62'
p6297
aS'9.59'
p6298
ag494
aS'5.95'
p6299
ag494
aS'7.85'
p6300
aS'4.03'
p6301
ag494
ag494
aS'18.54'
p6302
aS'6.56'
p6303
aS'8.52'
p6304
ag494
aS'10.47'
p6305
ag494
aa(lp6306
S'4.69'
p6307
aS'11.90'
p6308
aS'8.75'
p6309
ag494
ag494
aS'3.75'
p6310
ag494
aS'13.72'
p6311
aS'0.98'
p6312
ag494
aS'8.56'
p6313
aS'1.54'
p6314
ag494
aS'3.17'
p6315
ag494
ag494
aS'33.30'
p6316
ag494
aS'9.35'
p6317
aS'2.02'
p6318
ag494
ag494
aS'21.13'
p6319
ag494
ag494
aa(lp6320
S'16.19'
p6321
aS'7.31'
p6322
ag494
ag494
ag494
aS'1.27'
p6323
aS'1.12'
p6324
aS'11.45'
p6325
aS'3.14'
p6326
ag494
aS'25.65'
p6327
aS'6.21'
p6328
aS'8.96'
p6329
aS'22.03'
p6330
aS'7.30'
p6331
aS'3.47'
p6332
aS'14.42'
p6333
ag494
ag494
ag494
aS'3.84'
p6334
ag494
aS'5.25'
p6335
aS'3.24'
p6336
aS'5.73'
p6337
aa(lp6338
S'19.24'
p6339
aS'1.64'
p6340
aS'6.73'
p6341
ag494
ag494
ag494
aS'12.70'
p6342
ag494
aS'21.88'
p6343
ag494
aS'0.51'
p6344
ag494
ag494
aS'7.43'
p6345
aS'3.64'
p6346
aS'1.64'
p6347
aS'34.03'
p6348
ag494
aS'29.72'
p6349
aS'19.88'
p6350
aS'2.19'
p6351
ag494
aS'20.97'
p6352
ag494
aS'2.15'
p6353
aa(lp6354
S'8.60'
p6355
aS'38.31'
p6356
aS'9.76'
p6357
ag494
ag494
ag494
ag494
aS'9.52'
p6358
ag494
ag494
ag494
aS'3.32'
p6359
aS'9.04'
p6360
aS'7.34'
p6361
aS'2.07'
p6362
aS'8.26'
p6363
aS'2.85'
p6364
ag494
ag494
aS'4.35'
p6365
aS'3.83'
p6366
ag494
ag494
ag494
aS'17.25'
p6367
aa(lp6368
S'3.96'
p6369
aS'20.06'
p6370
ag494
ag494
ag494
aS'5.06'
p6371
ag494
aS'7.41'
p6372
aS'10.77'
p6373
ag494
aS'25.36'
p6374
aS'9.79'
p6375
ag494
aS'4.89'
p6376
aS'2.20'
p6377
aS'13.16'
p6378
aS'3.61'
p6379
aS'4.11'
p6380
ag494
aS'8.43'
p6381
aS'7.92'
p6382
ag494
ag494
aS'18.31'
p6383
aS'17.36'
p6384
aa(lp6385
S'3.24'
p6386
ag494
aS'13.49'
p6387
ag494
aS'3.81'
p6388
ag494
aS'10.06'
p6389
aS'6.78'
p6390
aS'5.98'
p6391
aS'4.67'
p6392
aS'1.78'
p6393
aS'13.34'
p6394
ag494
ag494
ag494
ag494
aS'2.03'
p6395
aS'17.39'
p6396
aS'5.29'
p6397
ag494
aS'2.78'
p6398
ag494
aS'1.89'
p6399
ag494
aS'40.12'
p6400
aa(lp6401
S'9.79'
p6402
aS'5.29'
p6403
aS'3.25'
p6404
ag494
aS'8.47'
p6405
aS'14.49'
p6406
ag494
aS'6.72'
p6407
aS'17.64'
p6408
ag494
aS'20.32'
p6409
aS'1.87'
p6410
aS'3.25'
p6411
aS'23.00'
p6412
aS'15.24'
p6413
aS'1.93'
p6414
aS'1.03'
p6415
ag494
aS'29.61'
p6416
aS'7.71'
p6417
aS'5.16'
p6418
ag494
ag494
ag494
ag494
aa(lp6419
S'3.91'
p6420
aS'1.29'
p6421
aS'14.93'
p6422
ag494
ag494
ag494
ag494
aS'21.22'
p6423
aS'17.46'
p6424
ag494
aS'7.40'
p6425
ag494
ag494
ag494
aS'5.80'
p6426
aS'15.96'
p6427
aS'4.05'
p6428
ag494
aS'20.57'
p6429
ag494
aS'16.06'
p6430
ag494
aS'7.75'
p6431
aS'6.08'
p6432
aS'9.93'
p6433
aa(lp6434
g494
aS'26.18'
p6435
aS'12.44'
p6436
ag494
aS'7.41'
p6437
aS'22.18'
p6438
aS'2.01'
p6439
aS'9.18'
p6440
aS'23.00'
p6441
ag494
aS'1.94'
p6442
aS'4.09'
p6443
aS'6.14'
p6444
ag494
aS'8.67'
p6445
ag494
aS'12.46'
p6446
ag494
ag494
aS'18.00'
p6447
aS'2.68'
p6448
aS'5.65'
p6449
aS'9.13'
p6450
ag494
aS'7.45'
p6451
aa(lp6452
S'1.67'
p6453
aS'4.48'
p6454
aS'2.21'
p6455
aS'5.86'
p6456
aS'1.36'
p6457
ag494
aS'7.00'
p6458
aS'1.57'
p6459
aS'4.48'
p6460
ag494
ag494
aS'12.26'
p6461
aS'4.07'
p6462
aS'3.74'
p6463
aS'15.34'
p6464
aS'7.16'
p6465
ag494
ag494
aS'8.35'
p6466
aS'9.78'
p6467
aS'7.79'
p6468
ag494
aS'3.87'
p6469
ag494
aS'29.96'
p6470
aasS'fname2'
p6471
S'py_inst_p30f25t6_2.dat'
p6472
sS'sigma'
p6473
(lp6474
(lp6475
F36.48
aF36.84
ag494
ag494
ag494
ag494
aF37.44
ag494
aF38.15
ag494
aF35.02
aF34.43
aF37.31
ag494
ag494
ag494
aF35.37
ag494
aF37.26
aF36.05
aF35.8
aF36.36
ag494
ag494
aF38.54
aa(lp6476
F42.75
aF43.36
aF43.07
ag494
ag494
aF45.19
ag494
aF42.76
aF43.04
ag494
aF45.57
aF43.85
aF44.95
aF46.72
ag494
aF43.97
aF47.58
aF44.37
ag494
aF42.55
aF43.26
ag494
aF44.05
ag494
aF43.26
aa(lp6477
F6.81
aF7.48
aF7.35
ag494
ag494
aF7.57
aF7.12
aF7.56
aF7.73
aF7.36
ag494
ag494
aF7.64
aF7.39
ag494
aF7.1
aF7.56
aF7.37
ag494
aF7.2
aF7.22
ag494
ag494
ag494
ag494
aa(lp6478
F41.76
aF39.17
ag494
ag494
ag494
aF43.98
aF43.4
aF44.32
ag494
ag494
ag494
aF39.9
ag494
ag494
ag494
aF41.23
aF45.47
aF42.57
aF43.08
aF43.74
aF41.18
ag494
aF40.42
ag494
aF42.06
aa(lp6479
F11.08
ag494
ag494
ag494
ag494
ag494
ag494
ag494
ag494
ag494
aF12.69
aF12.88
ag494
ag494
ag494
ag494
aF12.66
aF12.39
ag494
aF11.85
aF12.31
ag494
aF12.81
aF12.25
aF12.03
aa(lp6480
F47.95
aF51.55
aF49.64
aF47.79
ag494
ag494
aF46.33
aF49.96
aF46.19
ag494
aF43.57
aF45.54
aF49.38
ag494
aF46.04
ag494
aF48.5
aF50.05
ag494
aF52.16
aF52.47
aF46.58
aF49.09
ag494
aF49.59
aa(lp6481
F54.71
aF53.9
aF56.45
ag494
ag494
ag494
ag494
aF55.31
aF51.04
ag494
aF52.53
aF53.39
ag494
ag494
aF56.38
ag494
aF57.12
ag494
aF51.44
aF52.8
aF54.48
ag494
aF54.47
ag494
ag494
aa(lp6482
F58.58
aF59.49
aF58.85
ag494
aF59.21
ag494
ag494
aF59.31
aF56.96
ag494
aF64.55
aF61.58
ag494
aF57.85
aF55.83
ag494
aF57.65
aF56.96
aF60.32
aF56.29
aF57.48
aF56.58
aF57.01
aF56.79
aF58.35
aa(lp6483
F24.66
ag494
aF26.64
ag494
ag494
ag494
aF24.19
aF25.82
aF24.67
ag494
ag494
aF25.85
ag494
ag494
aF25.68
ag494
aF25.54
ag494
ag494
ag494
aF27.74
ag494
ag494
ag494
aF25.19
aa(lp6484
F133.89
aF135.35
ag494
ag494
ag494
aF131.11
ag494
aF138.56
ag494
ag494
aF134.8
aF139.81
ag494
ag494
aF132.79
aF132.92
aF137.17
aF133.22
aF139.87
aF136.06
aF135.62
aF142.05
aF130.69
aF124.23
aF128.85
aa(lp6485
F120.33
aF112.18
ag494
ag494
ag494
aF119.19
aF120.53
aF129.39
aF117.6
ag494
aF125.55
aF118.89
ag494
aF121.65
aF119.09
aF118.65
aF121.65
ag494
ag494
ag494
aF123.69
ag494
aF128.83
ag494
aF122.26
aa(lp6486
F6.75
aF6.8
aF6.79
ag494
aF7.12
ag494
aF6.95
aF6.65
aF7.25
ag494
aF6.97
aF7.0
aF7.28
aF6.89
aF7.13
ag494
aF6.87
aF7.48
aF7.23
aF7.48
aF7.12
ag494
ag494
aF6.66
aF6.54
aa(lp6487
F34.88
aF36.25
aF36.19
ag494
aF37.18
aF38.2
aF37.77
aF34.73
ag494
ag494
aF37.46
aF37.94
ag494
aF37.5
ag494
aF35.34
ag494
ag494
aF37.53
ag494
aF38.46
ag494
aF38.3
aF38.8
ag494
aa(lp6488
F83.42
aF73.52
aF77.31
ag494
ag494
aF79.29
ag494
aF77.67
aF80.8
ag494
ag494
aF80.07
ag494
aF80.42
aF75.69
ag494
aF70.83
ag494
aF78.22
aF75.27
aF79.41
ag494
aF75.69
ag494
aF79.68
aa(lp6489
F62.07
aF57.0
aF63.83
ag494
ag494
aF66.79
aF59.51
aF64.14
ag494
ag494
ag494
aF62.82
ag494
aF63.19
aF65.12
aF62.76
aF63.95
aF64.98
aF62.62
aF66.12
aF60.89
aF62.68
ag494
ag494
ag494
aa(lp6490
F28.16
aF26.52
aF26.99
ag494
ag494
aF26.77
aF28.53
aF25.39
aF27.07
ag494
aF26.55
aF26.76
ag494
aF28.15
aF25.02
aF27.68
aF26.58
ag494
aF27.11
ag494
aF27.79
aF26.48
aF26.82
aF27.21
aF27.11
aa(lp6491
F32.11
ag494
ag494
ag494
ag494
aF28.35
aF31.63
aF30.13
aF29.39
ag494
aF30.35
aF31.05
aF30.59
aF30.6
ag494
ag494
aF30.74
aF30.29
aF30.54
aF30.09
aF26.6
ag494
ag494
ag494
aF30.21
aa(lp6492
F146.06
aF131.76
ag494
aF133.91
ag494
aF129.72
ag494
aF137.38
ag494
ag494
aF125.62
aF137.8
aF132.79
aF136.09
aF122.53
ag494
aF124.96
ag494
aF134.27
aF124.33
aF131.66
ag494
ag494
aF138.21
aF128.0
aa(lp6493
F7.4
ag494
aF7.79
ag494
ag494
ag494
ag494
aF7.81
aF7.44
ag494
aF7.82
aF7.34
aF7.66
ag494
ag494
ag494
aF7.68
ag494
aF7.39
aF7.37
aF7.84
ag494
aF7.46
ag494
aF7.86
aa(lp6494
F67.08
aF62.99
ag494
ag494
ag494
ag494
ag494
aF65.62
aF67.49
ag494
aF67.96
aF67.24
ag494
aF64.76
ag494
aF62.74
aF65.16
ag494
ag494
aF70.18
aF71.72
aF67.37
ag494
aF69.78
ag494
aa(lp6495
F62.85
aF55.21
aF55.7
ag494
ag494
aF60.28
ag494
aF61.77
aF55.0
ag494
aF60.4
aF59.87
ag494
aF61.64
ag494
ag494
aF58.59
ag494
aF63.2
aF61.27
ag494
ag494
aF58.54
ag494
ag494
aa(lp6496
F51.8
aF50.88
ag494
ag494
ag494
aF53.01
aF53.74
aF51.25
aF50.34
ag494
aF52.27
aF54.9
aF55.76
aF53.63
aF51.88
aF51.87
aF52.36
ag494
ag494
ag494
aF52.4
ag494
aF52.25
aF51.05
aF50.24
aa(lp6497
F26.95
aF28.64
aF27.61
ag494
ag494
ag494
aF24.21
ag494
aF26.43
ag494
aF30.25
ag494
ag494
aF26.73
aF26.01
aF26.08
aF27.43
ag494
aF27.5
aF31.11
aF26.94
ag494
aF28.28
ag494
aF26.41
aa(lp6498
F60.87
aF62.94
aF65.88
ag494
ag494
ag494
ag494
aF59.15
ag494
ag494
ag494
aF63.38
aF65.99
aF64.43
aF62.6
aF59.41
aF65.04
ag494
ag494
aF59.87
aF61.81
ag494
ag494
ag494
aF60.2
aa(lp6499
F65.96
aF63.41
ag494
ag494
ag494
aF72.27
ag494
aF61.03
aF63.58
ag494
aF60.71
aF69.02
ag494
aF66.88
aF62.79
aF65.53
aF59.51
aF62.62
ag494
aF64.14
aF60.19
ag494
ag494
aF67.15
aF60.72
aa(lp6500
F102.83
ag494
aF99.15
ag494
aF102.09
ag494
aF96.49
aF103.74
aF101.15
aF99.43
aF98.97
aF98.14
ag494
ag494
ag494
ag494
aF95.04
aF101.76
aF96.83
ag494
aF99.96
ag494
aF99.45
ag494
aF103.24
aa(lp6501
F51.64
aF53.85
aF47.37
ag494
aF53.64
aF55.64
ag494
aF55.35
aF54.64
ag494
aF55.65
aF54.21
aF55.86
aF50.38
aF50.81
aF50.64
aF52.06
ag494
aF53.51
aF49.96
aF53.41
ag494
ag494
ag494
ag494
aa(lp6502
F61.45
aF61.29
aF57.45
ag494
ag494
ag494
ag494
aF54.95
aF60.48
ag494
aF61.47
ag494
ag494
ag494
aF62.16
aF61.55
aF58.73
ag494
aF57.99
ag494
aF61.32
ag494
aF61.34
aF61.8
aF62.86
aa(lp6503
g494
aF48.42
aF46.88
ag494
aF49.54
aF46.96
aF46.44
aF47.78
aF46.01
ag494
aF44.7
aF44.86
aF46.53
ag494
aF48.48
ag494
aF46.91
ag494
ag494
aF51.18
aF44.22
aF48.39
aF48.93
ag494
aF46.02
aa(lp6504
F39.67
aF40.1
aF38.68
aF40.11
aF41.97
ag494
aF39.35
aF38.63
aF40.37
ag494
ag494
aF37.02
aF36.06
aF38.02
aF37.68
aF41.0
ag494
ag494
aF38.63
aF40.28
aF39.8
ag494
aF38.02
ag494
aF38.29
aasS'FM'
p6505
(lp6506
g814
(g5902
S'\x9c\xea\x86\x19R\xe5\x98@'
p6507
tp6508
Rp6509
ag814
(g5902
S'd\xac\xbb\xec5\xd2\x96@'
p6510
tp6511
Rp6512
ag814
(g5902
S'\xbd\xf1Yf\xe1\x98\x90@'
p6513
tp6514
Rp6515
ag814
(g5902
S',n\xf0\xbf\x19\xbf\x94@'
p6516
tp6517
Rp6518
ag814
(g5902
S'\xf5/%\x93\xfd\xab\x92@'
p6519
tp6520
Rp6521
ag814
(g5902
S'\xbd\xf1Yf\xe1\x98\x90@'
p6522
tp6523
Rp6524
ag814
(g5902
S'\xf5/%\x93\xfd\xab\x92@'
p6525
tp6526
Rp6527
ag814
(g5902
S'd\xac\xbb\xec5\xd2\x96@'
p6528
tp6529
Rp6530
ag814
(g5902
S'd\xac\xbb\xec5\xd2\x96@'
p6531
tp6532
Rp6533
ag814
(g5902
S'd\xac\xbb\xec5\xd2\x96@'
p6534
tp6535
Rp6536
ag814
(g5902
S',n\xf0\xbf\x19\xbf\x94@'
p6537
tp6538
Rp6539
ag814
(g5902
S',n\xf0\xbf\x19\xbf\x94@'
p6540
tp6541
Rp6542
ag814
(g5902
S',n\xf0\xbf\x19\xbf\x94@'
p6543
tp6544
Rp6545
ag814
(g5902
S'd\xac\xbb\xec5\xd2\x96@'
p6546
tp6547
Rp6548
ag814
(g5902
S'\xf5/%\x93\xfd\xab\x92@'
p6549
tp6550
Rp6551
ag814
(g5902
S'\xbd\xf1Yf\xe1\x98\x90@'
p6552
tp6553
Rp6554
ag814
(g5902
S'\xbd\xf1Yf\xe1\x98\x90@'
p6555
tp6556
Rp6557
ag814
(g5902
S',n\xf0\xbf\x19\xbf\x94@'
p6558
tp6559
Rp6560
ag814
(g5902
S'\xf5/%\x93\xfd\xab\x92@'
p6561
tp6562
Rp6563
ag814
(g5902
S'\xbd\xf1Yf\xe1\x98\x90@'
p6564
tp6565
Rp6566
ag814
(g5902
S',n\xf0\xbf\x19\xbf\x94@'
p6567
tp6568
Rp6569
ag814
(g5902
S'd\xac\xbb\xec5\xd2\x96@'
p6570
tp6571
Rp6572
ag814
(g5902
S',n\xf0\xbf\x19\xbf\x94@'
p6573
tp6574
Rp6575
ag814
(g5902
S',n\xf0\xbf\x19\xbf\x94@'
p6576
tp6577
Rp6578
ag814
(g5902
S'd\xac\xbb\xec5\xd2\x96@'
p6579
tp6580
Rp6581
asS'fname'
p6582
S'inst_p30f25t6_2.dat'
p6583
sb.