(i__main__
Instancia
p0
(dp1
S'Fp'
p2
(lp3
(lp4
S'f2'
p5
aS'f4'
p6
aS'f9'
p7
aS'f13'
p8
aS'f16'
p9
aS'f17'
p10
aS'f18'
p11
aS'f20'
p12
aS'f25'
p13
aa(lp14
S'f2'
p15
aS'f3'
p16
aS'f4'
p17
aS'f6'
p18
aS'f9'
p19
aS'f10'
p20
aS'f12'
p21
aS'f20'
p22
aS'f22'
p23
aS'f23'
p24
aS'f25'
p25
aa(lp26
S'f2'
p27
aS'f3'
p28
aS'f4'
p29
aS'f5'
p30
aS'f9'
p31
aS'f10'
p32
aS'f11'
p33
aS'f12'
p34
aS'f15'
p35
aS'f17'
p36
aS'f23'
p37
aS'f24'
p38
aS'f25'
p39
aa(lp40
S'f2'
p41
aS'f3'
p42
aS'f6'
p43
aS'f9'
p44
aS'f10'
p45
aS'f11'
p46
aS'f12'
p47
aS'f17'
p48
aS'f20'
p49
aS'f21'
p50
aS'f23'
p51
aS'f24'
p52
aa(lp53
S'f2'
p54
aS'f3'
p55
aS'f4'
p56
aS'f6'
p57
aS'f7'
p58
aS'f12'
p59
aS'f14'
p60
aS'f17'
p61
aS'f19'
p62
aS'f20'
p63
aS'f23'
p64
aS'f24'
p65
aa(lp66
S'f1'
p67
aS'f2'
p68
aS'f4'
p69
aS'f8'
p70
aS'f10'
p71
aS'f11'
p72
aS'f20'
p73
aS'f24'
p74
aS'f25'
p75
aa(lp76
S'f1'
p77
aS'f2'
p78
aS'f5'
p79
aS'f6'
p80
aS'f12'
p81
aS'f16'
p82
aS'f17'
p83
aS'f20'
p84
aS'f23'
p85
aS'f24'
p86
aS'f25'
p87
aa(lp88
S'f1'
p89
aS'f4'
p90
aS'f6'
p91
aS'f11'
p92
aS'f13'
p93
aS'f17'
p94
aS'f20'
p95
aS'f22'
p96
aS'f23'
p97
aa(lp98
S'f3'
p99
aS'f4'
p100
aS'f6'
p101
aS'f7'
p102
aS'f11'
p103
aS'f20'
p104
aS'f23'
p105
aS'f24'
p106
aa(lp107
S'f4'
p108
aS'f5'
p109
aS'f6'
p110
aS'f9'
p111
aS'f12'
p112
aS'f13'
p113
aS'f17'
p114
aS'f20'
p115
aS'f24'
p116
aa(lp117
S'f3'
p118
aS'f8'
p119
aS'f9'
p120
aS'f12'
p121
aS'f15'
p122
aS'f17'
p123
aS'f19'
p124
aS'f20'
p125
aS'f21'
p126
aS'f23'
p127
aS'f24'
p128
aS'f25'
p129
aa(lp130
S'f3'
p131
aS'f6'
p132
aS'f7'
p133
aS'f9'
p134
aS'f10'
p135
aS'f11'
p136
aS'f15'
p137
aS'f17'
p138
aS'f21'
p139
aa(lp140
S'f2'
p141
aS'f3'
p142
aS'f4'
p143
aS'f6'
p144
aS'f7'
p145
aS'f10'
p146
aS'f11'
p147
aS'f13'
p148
aS'f14'
p149
aS'f16'
p150
aS'f19'
p151
aS'f21'
p152
aS'f24'
p153
aa(lp154
S'f2'
p155
aS'f3'
p156
aS'f4'
p157
aS'f6'
p158
aS'f9'
p159
aS'f10'
p160
aS'f17'
p161
aS'f19'
p162
aS'f20'
p163
aS'f21'
p164
aS'f23'
p165
aS'f24'
p166
aS'f25'
p167
aa(lp168
S'f2'
p169
aS'f3'
p170
aS'f4'
p171
aS'f5'
p172
aS'f6'
p173
aS'f9'
p174
aS'f11'
p175
aS'f14'
p176
aS'f15'
p177
aS'f17'
p178
aS'f20'
p179
aS'f23'
p180
aS'f24'
p181
aS'f25'
p182
aa(lp183
S'f1'
p184
aS'f2'
p185
aS'f3'
p186
aS'f4'
p187
aS'f15'
p188
aS'f17'
p189
aS'f20'
p190
aS'f23'
p191
aS'f24'
p192
aS'f25'
p193
aa(lp194
S'f2'
p195
aS'f3'
p196
aS'f4'
p197
aS'f6'
p198
aS'f8'
p199
aS'f9'
p200
aS'f10'
p201
aS'f12'
p202
aS'f14'
p203
aS'f17'
p204
aS'f20'
p205
aS'f23'
p206
aS'f24'
p207
aa(lp208
S'f1'
p209
aS'f2'
p210
aS'f4'
p211
aS'f6'
p212
aS'f9'
p213
aS'f10'
p214
aS'f12'
p215
aS'f17'
p216
aS'f20'
p217
aS'f23'
p218
aa(lp219
S'f1'
p220
aS'f2'
p221
aS'f4'
p222
aS'f6'
p223
aS'f10'
p224
aS'f16'
p225
aS'f17'
p226
aS'f20'
p227
aS'f24'
p228
aa(lp229
S'f1'
p230
aS'f4'
p231
aS'f6'
p232
aS'f8'
p233
aS'f9'
p234
aS'f13'
p235
aS'f16'
p236
aS'f17'
p237
aS'f20'
p238
aS'f23'
p239
aS'f25'
p240
aa(lp241
S'f3'
p242
aS'f4'
p243
aS'f5'
p244
aS'f6'
p245
aS'f9'
p246
aS'f10'
p247
aS'f12'
p248
aS'f17'
p249
aS'f20'
p250
aS'f24'
p251
aa(lp252
S'f2'
p253
aS'f3'
p254
aS'f4'
p255
aS'f5'
p256
aS'f6'
p257
aS'f8'
p258
aS'f10'
p259
aS'f11'
p260
aS'f13'
p261
aS'f14'
p262
aS'f16'
p263
aS'f17'
p264
aS'f24'
p265
aS'f25'
p266
aa(lp267
S'f1'
p268
aS'f2'
p269
aS'f3'
p270
aS'f4'
p271
aS'f6'
p272
aS'f7'
p273
aS'f11'
p274
aS'f12'
p275
aS'f15'
p276
aS'f17'
p277
aS'f20'
p278
aS'f25'
p279
aa(lp280
S'f2'
p281
aS'f3'
p282
aS'f4'
p283
aS'f6'
p284
aS'f8'
p285
aS'f9'
p286
aS'f10'
p287
aS'f14'
p288
aS'f20'
p289
aS'f21'
p290
aS'f23'
p291
aS'f24'
p292
aa(lp293
S'f1'
p294
aS'f2'
p295
aS'f3'
p296
aS'f4'
p297
aS'f6'
p298
aS'f8'
p299
aS'f9'
p300
aS'f10'
p301
aS'f11'
p302
aS'f12'
p303
aS'f13'
p304
aS'f15'
p305
aS'f17'
p306
aS'f20'
p307
aS'f23'
p308
aS'f24'
p309
aS'f25'
p310
aa(lp311
S'f2'
p312
aS'f3'
p313
aS'f4'
p314
aS'f6'
p315
aS'f10'
p316
aS'f11'
p317
aS'f14'
p318
aS'f15'
p319
aS'f16'
p320
aS'f18'
p321
aS'f20'
p322
aS'f23'
p323
aS'f24'
p324
aS'f25'
p325
aa(lp326
S'f2'
p327
aS'f3'
p328
aS'f4'
p329
aS'f5'
p330
aS'f6'
p331
aS'f9'
p332
aS'f14'
p333
aS'f15'
p334
aS'f17'
p335
aS'f20'
p336
aS'f22'
p337
aS'f23'
p338
aS'f24'
p339
aS'f25'
p340
aa(lp341
S'f1'
p342
aS'f2'
p343
aS'f4'
p344
aS'f9'
p345
aS'f10'
p346
aS'f11'
p347
aS'f12'
p348
aS'f15'
p349
aS'f16'
p350
aS'f17'
p351
aS'f20'
p352
aS'f24'
p353
aS'f25'
p354
aa(lp355
S'f1'
p356
aS'f2'
p357
aS'f3'
p358
aS'f4'
p359
aS'f5'
p360
aS'f6'
p361
aS'f7'
p362
aS'f11'
p363
aS'f12'
p364
aS'f15'
p365
aS'f17'
p366
aS'f20'
p367
aS'f23'
p368
aS'f24'
p369
aS'f25'
p370
aa(lp371
S'f1'
p372
aS'f2'
p373
aS'f3'
p374
aS'f4'
p375
aS'f5'
p376
aS'f6'
p377
aS'f9'
p378
aS'f11'
p379
aS'f15'
p380
aS'f16'
p381
aS'f20'
p382
aS'f24'
p383
aS'f25'
p384
aa(lp385
S'f2'
p386
aS'f5'
p387
aS'f6'
p388
aS'f7'
p389
aS'f8'
p390
aS'f9'
p391
aS'f10'
p392
aS'f11'
p393
aS'f12'
p394
aS'f13'
p395
aS'f15'
p396
aS'f20'
p397
aS'f25'
p398
aa(lp399
S'f2'
p400
aS'f3'
p401
aS'f4'
p402
aS'f5'
p403
aS'f6'
p404
aS'f7'
p405
aS'f9'
p406
aS'f10'
p407
aS'f11'
p408
aS'f12'
p409
aS'f17'
p410
aS'f20'
p411
aS'f21'
p412
aS'f24'
p413
aa(lp414
S'f1'
p415
aS'f2'
p416
aS'f4'
p417
aS'f6'
p418
aS'f8'
p419
aS'f9'
p420
aS'f11'
p421
aS'f13'
p422
aS'f17'
p423
aS'f20'
p424
aS'f23'
p425
aS'f24'
p426
aa(lp427
S'f1'
p428
aS'f3'
p429
aS'f4'
p430
aS'f7'
p431
aS'f9'
p432
aS'f10'
p433
aS'f12'
p434
aS'f16'
p435
aS'f17'
p436
aS'f21'
p437
aS'f23'
p438
aS'f24'
p439
aS'f25'
p440
aa(lp441
S'f2'
p442
aS'f4'
p443
aS'f5'
p444
aS'f6'
p445
aS'f7'
p446
aS'f11'
p447
aS'f15'
p448
aS'f17'
p449
aS'f20'
p450
aS'f23'
p451
aS'f25'
p452
aa(lp453
S'f2'
p454
aS'f3'
p455
aS'f4'
p456
aS'f5'
p457
aS'f6'
p458
aS'f7'
p459
aS'f12'
p460
aS'f13'
p461
aS'f15'
p462
aS'f16'
p463
aS'f17'
p464
aS'f23'
p465
aS'f24'
p466
aS'f25'
p467
aa(lp468
S'f1'
p469
aS'f2'
p470
aS'f3'
p471
aS'f4'
p472
aS'f5'
p473
aS'f10'
p474
aS'f13'
p475
aS'f17'
p476
aS'f20'
p477
aS'f25'
p478
aa(lp479
S'f2'
p480
aS'f4'
p481
aS'f9'
p482
aS'f10'
p483
aS'f11'
p484
aS'f12'
p485
aS'f15'
p486
aS'f16'
p487
aS'f17'
p488
aS'f20'
p489
aS'f23'
p490
aS'f24'
p491
aS'f25'
p492
aa(lp493
S'f1'
p494
aS'f3'
p495
aS'f4'
p496
aS'f9'
p497
aS'f12'
p498
aS'f13'
p499
aS'f16'
p500
aS'f17'
p501
aS'f19'
p502
aS'f23'
p503
aS'f25'
p504
aa(lp505
S'f3'
p506
aS'f4'
p507
aS'f5'
p508
aS'f9'
p509
aS'f11'
p510
aS'f15'
p511
aS'f16'
p512
aS'f17'
p513
aS'f20'
p514
aS'f22'
p515
aS'f23'
p516
aS'f25'
p517
aasS'LM'
p518
(lp519
(lp520
S'.'
p521
aI0
ag521
aI7
ag521
ag521
ag521
ag521
aI46
ag521
ag521
ag521
aI7
ag521
ag521
aI15
aI14
aI12
ag521
aI0
ag521
ag521
ag521
ag521
aI46
aa(lp522
g521
aI20
aI0
aI20
ag521
aI60
ag521
ag521
aI40
aI30
ag521
aI9
ag521
ag521
ag521
ag521
ag521
ag521
ag521
aI20
ag521
aI6
aI6
ag521
aI10
aa(lp523
g521
aI14
aI2
aI4
aI0
ag521
ag521
ag521
aI16
aI0
aI0
aI12
ag521
ag521
aI2
ag521
aI14
ag521
ag521
ag521
ag521
ag521
aI9
aI4
aI6
aa(lp524
g521
aI19
aI6
ag521
ag521
aI3
ag521
ag521
aI38
aI0
aI0
aI12
ag521
ag521
ag521
ag521
aI6
ag521
ag521
aI6
aI0
ag521
aI6
aI38
ag521
aa(lp525
g521
aI21
aI28
aI0
ag521
aI28
aI4
ag521
ag521
ag521
ag521
aI21
ag521
aI6
ag521
ag521
aI2
ag521
aI28
aI4
ag521
ag521
aI2
aI2
ag521
aa(lp526
I9
aI21
ag521
aI9
ag521
ag521
ag521
aI0
ag521
aI14
aI7
ag521
ag521
ag521
ag521
ag521
ag521
ag521
ag521
aI0
ag521
ag521
ag521
aI21
aI7
aa(lp527
I14
aI0
ag521
ag521
aI18
aI9
ag521
ag521
ag521
ag521
ag521
aI27
ag521
ag521
ag521
aI7
aI14
ag521
ag521
aI6
ag521
ag521
aI19
aI14
aI0
aa(lp528
I7
ag521
ag521
aI0
ag521
aI0
ag521
ag521
ag521
ag521
aI8
ag521
aI34
ag521
ag521
ag521
aI5
ag521
ag521
aI105
ag521
aI35
aI10
ag521
ag521
aa(lp529
g521
ag521
aI8
aI25
ag521
aI0
aI12
ag521
ag521
ag521
aI5
ag521
ag521
ag521
ag521
ag521
ag521
ag521
ag521
aI8
ag521
ag521
aI6
aI0
ag521
aa(lp530
g521
ag521
ag521
aI16
aI20
aI5
ag521
ag521
aI0
ag521
ag521
aI32
aI32
ag521
ag521
ag521
aI0
ag521
ag521
aI10
ag521
ag521
ag521
aI16
ag521
aa(lp531
g521
ag521
aI5
ag521
ag521
ag521
ag521
aI10
aI10
ag521
ag521
aI0
ag521
ag521
aI6
ag521
aI5
ag521
aI66
aI132
aI12
ag521
aI11
aI11
aI8
aa(lp532
g521
ag521
aI0
ag521
ag521
aI30
aI21
ag521
aI0
aI15
aI42
ag521
ag521
ag521
aI0
ag521
aI12
ag521
ag521
ag521
aI20
ag521
ag521
ag521
ag521
aa(lp533
g521
aI0
aI20
aI7
ag521
aI7
aI0
ag521
ag521
aI3
aI0
ag521
aI3
aI21
ag521
aI20
ag521
ag521
aI21
ag521
aI7
ag521
ag521
aI10
ag521
aa(lp534
g521
aI9
aI13
aI5
ag521
aI6
ag521
ag521
aI0
aI0
ag521
ag521
ag521
ag521
ag521
ag521
aI5
ag521
aI0
aI27
aI0
ag521
aI108
aI39
aI0
aa(lp535
g521
aI8
aI0
aI6
aI8
aI14
ag521
ag521
aI2
ag521
aI15
ag521
ag521
aI6
aI0
ag521
aI7
ag521
ag521
aI2
ag521
ag521
aI8
aI2
aI2
aa(lp536
I0
aI15
aI15
aI24
ag521
ag521
ag521
ag521
ag521
ag521
ag521
ag521
ag521
ag521
aI15
ag521
aI22
ag521
ag521
aI6
ag521
ag521
aI16
aI6
aI15
aa(lp537
g521
aI9
aI14
aI14
ag521
aI0
ag521
aI28
aI10
aI56
ag521
aI4
ag521
aI10
ag521
ag521
aI28
ag521
ag521
aI14
ag521
ag521
aI14
aI15
ag521
aa(lp538
I8
aI0
ag521
aI24
ag521
aI6
ag521
ag521
aI24
aI12
ag521
aI0
ag521
ag521
ag521
ag521
aI12
ag521
ag521
aI12
ag521
ag521
aI4
ag521
ag521
aa(lp539
I0
aI24
ag521
aI25
ag521
aI12
ag521
ag521
ag521
aI24
ag521
ag521
ag521
ag521
ag521
aI30
aI8
ag521
ag521
aI24
ag521
ag521
ag521
aI0
ag521
aa(lp540
I0
ag521
ag521
aI6
ag521
aI36
ag521
aI18
aI18
ag521
ag521
ag521
aI0
ag521
ag521
aI27
aI12
ag521
ag521
aI0
ag521
ag521
aI18
ag521
aI4
aa(lp541
g521
ag521
aI0
aI14
aI14
aI8
ag521
ag521
aI3
aI5
ag521
aI0
ag521
ag521
ag521
ag521
aI11
ag521
ag521
aI44
ag521
ag521
ag521
aI3
ag521
aa(lp542
g521
aI9
aI12
aI18
aI24
aI19
ag521
aI9
ag521
aI48
aI0
ag521
aI24
aI18
ag521
aI18
aI38
ag521
ag521
ag521
ag521
ag521
ag521
aI18
aI57
aa(lp543
I12
aI24
aI0
aI18
ag521
aI0
aI8
ag521
ag521
ag521
aI12
aI8
ag521
ag521
aI4
ag521
aI48
ag521
ag521
aI4
ag521
ag521
ag521
ag521
aI4
aa(lp544
g521
aI5
aI23
aI8
ag521
aI0
ag521
aI0
aI46
aI0
ag521
ag521
ag521
aI14
ag521
ag521
ag521
ag521
ag521
aI0
aI7
ag521
aI4
aI7
ag521
aa(lp545
I8
aI0
aI19
aI6
ag521
aI0
ag521
aI19
aI0
aI0
aI6
aI4
aI0
ag521
aI9
ag521
aI0
ag521
ag521
aI0
ag521
ag521
aI3
aI6
aI19
aa(lp546
g521
aI0
aI70
aI70
ag521
aI17
ag521
ag521
ag521
aI70
aI10
ag521
ag521
aI10
aI11
aI8
ag521
aI5
ag521
aI16
ag521
ag521
aI33
aI0
aI8
aa(lp547
g521
aI0
aI28
aI10
aI14
aI0
ag521
ag521
aI56
ag521
ag521
ag521
ag521
aI0
aI10
ag521
aI5
ag521
ag521
aI8
ag521
aI9
aI12
aI7
aI0
aa(lp548
I15
aI0
ag521
aI93
ag521
ag521
ag521
ag521
aI6
aI93
aI7
aI5
ag521
ag521
aI15
aI15
aI12
ag521
ag521
aI21
ag521
ag521
ag521
aI0
aI0
aa(lp549
I3
aI3
aI9
aI6
aI19
aI0
aI12
ag521
ag521
ag521
aI0
aI3
ag521
ag521
aI4
ag521
aI0
ag521
ag521
aI6
ag521
ag521
aI0
aI3
aI9
aa(lp550
I0
aI26
aI8
aI39
aI15
aI18
ag521
ag521
aI0
ag521
aI26
ag521
ag521
ag521
aI5
aI4
ag521
ag521
ag521
aI0
ag521
ag521
ag521
aI26
aI0
aa(lp551
g521
aI10
ag521
ag521
aI93
aI0
aI0
aI45
aI0
aI62
aI21
aI15
aI0
ag521
aI30
ag521
ag521
ag521
ag521
aI6
ag521
ag521
ag521
ag521
aI20
aa(lp552
g521
aI0
aI6
aI30
aI24
aI60
aI10
ag521
aI0
aI14
aI10
aI0
ag521
ag521
ag521
ag521
aI0
ag521
ag521
aI0
aI0
ag521
ag521
aI90
ag521
aa(lp553
I3
aI22
ag521
aI0
ag521
aI5
ag521
aI7
aI4
ag521
aI0
ag521
aI0
ag521
ag521
ag521
aI42
ag521
ag521
aI11
ag521
ag521
aI4
aI0
ag521
aa(lp554
I24
ag521
aI12
aI18
ag521
ag521
aI8
ag521
aI12
aI4
ag521
aI24
ag521
ag521
ag521
aI48
aI24
ag521
ag521
ag521
aI0
ag521
aI8
aI0
aI8
aa(lp555
g521
aI0
ag521
aI10
aI0
aI0
aI5
ag521
ag521
ag521
aI5
ag521
ag521
ag521
aI20
ag521
aI4
ag521
ag521
aI5
ag521
ag521
aI10
ag521
aI8
aa(lp556
g521
aI176
aI7
aI10
aI33
aI22
aI33
ag521
ag521
ag521
ag521
aI0
aI21
ag521
aI0
aI11
aI0
ag521
ag521
ag521
ag521
ag521
aI4
aI4
aI0
aa(lp557
I2
aI6
aI8
aI32
aI8
ag521
ag521
ag521
ag521
aI10
ag521
ag521
aI12
ag521
ag521
ag521
aI4
ag521
ag521
aI10
ag521
ag521
ag521
ag521
aI8
aa(lp558
g521
aI14
ag521
aI8
ag521
ag521
ag521
ag521
aI14
aI10
aI44
aI44
ag521
ag521
aI0
aI5
aI0
ag521
ag521
aI8
ag521
ag521
aI132
aI10
aI44
aa(lp559
I28
ag521
aI14
aI14
ag521
ag521
ag521
ag521
aI0
ag521
ag521
aI4
aI0
ag521
ag521
aI14
aI14
ag521
aI7
ag521
ag521
ag521
aI28
ag521
aI4
aa(lp560
g521
ag521
aI0
aI0
aI14
ag521
ag521
ag521
aI14
ag521
aI42
ag521
ag521
ag521
aI10
aI14
aI14
ag521
ag521
aI0
ag521
aI29
aI8
ag521
aI28
aasS'D'
p561
(lp562
cnumpy.core.multiarray
_reconstruct
p563
(cnumpy
ndarray
p564
(I0
tp565
S'b'
p566
tp567
Rp568
(I1
(I12
tp569
cnumpy
dtype
p570
(S'i8'
p571
I0
I1
tp572
Rp573
(I3
S'<'
p574
NNNI-1
I-1
I0
tp575
bI00
S'\xa6\x00\x00\x00\x00\x00\x00\x00e\x00\x00\x00\x00\x00\x00\x00\x8a\x00\x00\x00\x00\x00\x00\x00E\x00\x00\x00\x00\x00\x00\x00K\x00\x00\x00\x00\x00\x00\x00+\x00\x00\x00\x00\x00\x00\x00\xed\x00\x00\x00\x00\x00\x00\x00M\x00\x00\x00\x00\x00\x00\x00\x81\x00\x00\x00\x00\x00\x00\x00\xbc\x00\x00\x00\x00\x00\x00\x00\xb2\x00\x00\x00\x00\x00\x00\x00\t\x00\x00\x00\x00\x00\x00\x00'
p576
tp577
bag563
(g564
(I0
tp578
g566
tp579
Rp580
(I1
(I12
tp581
g573
I00
S'U\x00\x00\x00\x00\x00\x00\x00h\x00\x00\x00\x00\x00\x00\x00S\x00\x00\x00\x00\x00\x00\x00H\x00\x00\x00\x00\x00\x00\x00\x0b\x00\x00\x00\x00\x00\x00\x00\x97\x00\x00\x00\x00\x00\x00\x00\xba\x00\x00\x00\x00\x00\x00\x00\x17\x00\x00\x00\x00\x00\x00\x00;\x00\x00\x00\x00\x00\x00\x00\xee\x00\x00\x00\x00\x00\x00\x00\x0e\x00\x00\x00\x00\x00\x00\x00\xbf\x00\x00\x00\x00\x00\x00\x00'
p582
tp583
bag563
(g564
(I0
tp584
g566
tp585
Rp586
(I1
(I12
tp587
g573
I00
S'm\x00\x00\x00\x00\x00\x00\x00N\x00\x00\x00\x00\x00\x00\x00\x06\x00\x00\x00\x00\x00\x00\x00W\x00\x00\x00\x00\x00\x00\x00\n\x00\x00\x00\x00\x00\x00\x00\x82\x00\x00\x00\x00\x00\x00\x00\x04\x00\x00\x00\x00\x00\x00\x00d\x00\x00\x00\x00\x00\x00\x00\xa1\x00\x00\x00\x00\x00\x00\x00,\x00\x00\x00\x00\x00\x00\x00&\x00\x00\x00\x00\x00\x00\x00_\x00\x00\x00\x00\x00\x00\x00'
p588
tp589
bag563
(g564
(I0
tp590
g566
tp591
Rp592
(I1
(I12
tp593
g573
I00
S'D\x00\x00\x00\x00\x00\x00\x00\x99\x00\x00\x00\x00\x00\x00\x00Q\x00\x00\x00\x00\x00\x00\x00\xb3\x00\x00\x00\x00\x00\x00\x001\x00\x00\x00\x00\x00\x00\x00\xc8\x00\x00\x00\x00\x00\x00\x00<\x00\x00\x00\x00\x00\x00\x00i\x00\x00\x00\x00\x00\x00\x00\x83\x00\x00\x00\x00\x00\x00\x00"\x00\x00\x00\x00\x00\x00\x00)\x00\x00\x00\x00\x00\x00\x00K\x00\x00\x00\x00\x00\x00\x00'
p594
tp595
bag563
(g564
(I0
tp596
g566
tp597
Rp598
(I1
(I12
tp599
g573
I00
S'\x17\x00\x00\x00\x00\x00\x00\x00\x0e\x00\x00\x00\x00\x00\x00\x00\x03\x00\x00\x00\x00\x00\x00\x00Z\x00\x00\x00\x00\x00\x00\x00\xb4\x00\x00\x00\x00\x00\x00\x00[\x00\x00\x00\x00\x00\x00\x00\x1f\x00\x00\x00\x00\x00\x00\x00i\x00\x00\x00\x00\x00\x00\x00q\x00\x00\x00\x00\x00\x00\x00R\x00\x00\x00\x00\x00\x00\x00L\x00\x00\x00\x00\x00\x00\x002\x00\x00\x00\x00\x00\x00\x00'
p600
tp601
bag563
(g564
(I0
tp602
g566
tp603
Rp604
(I1
(I12
tp605
g573
I00
S'\x10\x00\x00\x00\x00\x00\x00\x00\xd7\x00\x00\x00\x00\x00\x00\x004\x00\x00\x00\x00\x00\x00\x00\xd4\x00\x00\x00\x00\x00\x00\x00E\x00\x00\x00\x00\x00\x00\x00\xda\x00\x00\x00\x00\x00\x00\x00\x82\x00\x00\x00\x00\x00\x00\x00X\x00\x00\x00\x00\x00\x00\x00\x16\x00\x00\x00\x00\x00\x00\x00z\x00\x00\x00\x00\x00\x00\x00d\x00\x00\x00\x00\x00\x00\x00\x1b\x00\x00\x00\x00\x00\x00\x00'
p606
tp607
bag563
(g564
(I0
tp608
g566
tp609
Rp610
(I1
(I12
tp611
g573
I00
S'\xff\x00\x00\x00\x00\x00\x00\x00\xe3\x00\x00\x00\x00\x00\x00\x00\x1a\x01\x00\x00\x00\x00\x00\x00\xde\x00\x00\x00\x00\x00\x00\x00\xe8\x00\x00\x00\x00\x00\x00\x00\x95\x00\x00\x00\x00\x00\x00\x00\xab\x00\x00\x00\x00\x00\x00\x00~\x00\x00\x00\x00\x00\x00\x00\x9e\x00\x00\x00\x00\x00\x00\x00\xa7\x00\x00\x00\x00\x00\x00\x00\xf1\x00\x00\x00\x00\x00\x00\x00\x8f\x00\x00\x00\x00\x00\x00\x00'
p612
tp613
bag563
(g564
(I0
tp614
g566
tp615
Rp616
(I1
(I12
tp617
g573
I00
S'\xd9\x00\x00\x00\x00\x00\x00\x00\xb0\x00\x00\x00\x00\x00\x00\x00\x86\x00\x00\x00\x00\x00\x00\x00\x0f\x01\x00\x00\x00\x00\x00\x00\xd8\x00\x00\x00\x00\x00\x00\x00\x0c\x01\x00\x00\x00\x00\x00\x00\x8b\x00\x00\x00\x00\x00\x00\x00\x0c\x01\x00\x00\x00\x00\x00\x00\x03\x00\x00\x00\x00\x00\x00\x00\xfa\x00\x00\x00\x00\x00\x00\x001\x00\x00\x00\x00\x00\x00\x00\x99\x00\x00\x00\x00\x00\x00\x00'
p618
tp619
bag563
(g564
(I0
tp620
g566
tp621
Rp622
(I1
(I12
tp623
g573
I00
S'\xda\x00\x00\x00\x00\x00\x00\x00\x7f\x00\x00\x00\x00\x00\x00\x00\xdf\x00\x00\x00\x00\x00\x00\x00>\x00\x00\x00\x00\x00\x00\x00h\x00\x00\x00\x00\x00\x00\x00\x07\x00\x00\x00\x00\x00\x00\x00\xd3\x00\x00\x00\x00\x00\x00\x00K\x00\x00\x00\x00\x00\x00\x00\x8d\x00\x00\x00\x00\x00\x00\x00\x0f\x00\x00\x00\x00\x00\x00\x00g\x00\x00\x00\x00\x00\x00\x00\xe2\x00\x00\x00\x00\x00\x00\x00'
p624
tp625
bag563
(g564
(I0
tp626
g566
tp627
Rp628
(I1
(I12
tp629
g573
I00
S'\xeb\x00\x00\x00\x00\x00\x00\x00\xa8\x00\x00\x00\x00\x00\x00\x00w\x00\x00\x00\x00\x00\x00\x00\xce\x00\x00\x00\x00\x00\x00\x00\x8f\x00\x00\x00\x00\x00\x00\x00\xa4\x00\x00\x00\x00\x00\x00\x00^\x00\x00\x00\x00\x00\x00\x00~\x00\x00\x00\x00\x00\x00\x00\x9a\x00\x00\x00\x00\x00\x00\x00\xbc\x00\x00\x00\x00\x00\x00\x00\xd4\x00\x00\x00\x00\x00\x00\x00\xa6\x00\x00\x00\x00\x00\x00\x00'
p630
tp631
bag563
(g564
(I0
tp632
g566
tp633
Rp634
(I1
(I12
tp635
g573
I00
S'f\x00\x00\x00\x00\x00\x00\x00\xe2\x00\x00\x00\x00\x00\x00\x00`\x00\x00\x00\x00\x00\x00\x00\x0f\x00\x00\x00\x00\x00\x00\x00\xff\x00\x00\x00\x00\x00\x00\x00\x86\x00\x00\x00\x00\x00\x00\x00\xe8\x00\x00\x00\x00\x00\x00\x00\x9f\x00\x00\x00\x00\x00\x00\x00\xf7\x00\x00\x00\x00\x00\x00\x00\xd8\x00\x00\x00\x00\x00\x00\x00\x03\x01\x00\x00\x00\x00\x00\x00A\x00\x00\x00\x00\x00\x00\x00'
p636
tp637
bag563
(g564
(I0
tp638
g566
tp639
Rp640
(I1
(I12
tp641
g573
I00
S'\r\x00\x00\x00\x00\x00\x00\x005\x00\x00\x00\x00\x00\x00\x00\x9b\x00\x00\x00\x00\x00\x00\x00b\x00\x00\x00\x00\x00\x00\x00\x87\x00\x00\x00\x00\x00\x00\x00\xb5\x00\x00\x00\x00\x00\x00\x00\xb6\x00\x00\x00\x00\x00\x00\x00,\x00\x00\x00\x00\x00\x00\x00B\x00\x00\x00\x00\x00\x00\x00U\x00\x00\x00\x00\x00\x00\x00\xaf\x00\x00\x00\x00\x00\x00\x00j\x00\x00\x00\x00\x00\x00\x00'
p642
tp643
bag563
(g564
(I0
tp644
g566
tp645
Rp646
(I1
(I12
tp647
g573
I00
S'\xa9\x00\x00\x00\x00\x00\x00\x00/\x00\x00\x00\x00\x00\x00\x00\x9e\x00\x00\x00\x00\x00\x00\x00\xba\x00\x00\x00\x00\x00\x00\x005\x00\x00\x00\x00\x00\x00\x00\xb4\x00\x00\x00\x00\x00\x00\x00\x83\x00\x00\x00\x00\x00\x00\x00\r\x00\x00\x00\x00\x00\x00\x00\x9d\x00\x00\x00\x00\x00\x00\x00s\x00\x00\x00\x00\x00\x00\x00L\x00\x00\x00\x00\x00\x00\x00\x07\x00\x00\x00\x00\x00\x00\x00'
p648
tp649
bag563
(g564
(I0
tp650
g566
tp651
Rp652
(I1
(I12
tp653
g573
I00
S'\x13\x00\x00\x00\x00\x00\x00\x00\x9f\x00\x00\x00\x00\x00\x00\x00d\x00\x00\x00\x00\x00\x00\x00\xda\x00\x00\x00\x00\x00\x00\x00\xfe\x00\x00\x00\x00\x00\x00\x00\x93\x00\x00\x00\x00\x00\x00\x00h\x00\x00\x00\x00\x00\x00\x00\xe0\x00\x00\x00\x00\x00\x00\x00&\x00\x00\x00\x00\x00\x00\x00\x1d\x00\x00\x00\x00\x00\x00\x00w\x00\x00\x00\x00\x00\x00\x00\xe2\x00\x00\x00\x00\x00\x00\x00'
p654
tp655
bag563
(g564
(I0
tp656
g566
tp657
Rp658
(I1
(I12
tp659
g573
I00
S'\x1f\x00\x00\x00\x00\x00\x00\x00\x07\x00\x00\x00\x00\x00\x00\x00\x06\x00\x00\x00\x00\x00\x00\x00<\x00\x00\x00\x00\x00\x00\x00E\x00\x00\x00\x00\x00\x00\x00,\x00\x00\x00\x00\x00\x00\x00\x98\x00\x00\x00\x00\x00\x00\x00v\x00\x00\x00\x00\x00\x00\x00c\x00\x00\x00\x00\x00\x00\x00R\x00\x00\x00\x00\x00\x00\x00T\x00\x00\x00\x00\x00\x00\x00c\x00\x00\x00\x00\x00\x00\x00'
p660
tp661
bag563
(g564
(I0
tp662
g566
tp663
Rp664
(I1
(I12
tp665
g573
I00
S'\xd8\x00\x00\x00\x00\x00\x00\x005\x00\x00\x00\x00\x00\x00\x00\xac\x00\x00\x00\x00\x00\x00\x00%\x00\x00\x00\x00\x00\x00\x00\xba\x00\x00\x00\x00\x00\x00\x00\xe7\x00\x00\x00\x00\x00\x00\x00\xc0\x00\x00\x00\x00\x00\x00\x00R\x00\x00\x00\x00\x00\x00\x00\xbf\x00\x00\x00\x00\x00\x00\x00\xe6\x00\x00\x00\x00\x00\x00\x00\xe6\x00\x00\x00\x00\x00\x00\x00\xa0\x00\x00\x00\x00\x00\x00\x00'
p666
tp667
bag563
(g564
(I0
tp668
g566
tp669
Rp670
(I1
(I12
tp671
g573
I00
S'\xae\x00\x00\x00\x00\x00\x00\x00\x8b\x00\x00\x00\x00\x00\x00\x00+\x00\x00\x00\x00\x00\x00\x00$\x00\x00\x00\x00\x00\x00\x00\x18\x00\x00\x00\x00\x00\x00\x00\xb5\x00\x00\x00\x00\x00\x00\x00\x89\x00\x00\x00\x00\x00\x00\x00\xf5\x00\x00\x00\x00\x00\x00\x00\x92\x00\x00\x00\x00\x00\x00\x00\x02\x01\x00\x00\x00\x00\x00\x00\x97\x00\x00\x00\x00\x00\x00\x00\xae\x00\x00\x00\x00\x00\x00\x00'
p672
tp673
bag563
(g564
(I0
tp674
g566
tp675
Rp676
(I1
(I12
tp677
g573
I00
S'\xe5\x00\x00\x00\x00\x00\x00\x00\xc0\x00\x00\x00\x00\x00\x00\x00\xd5\x00\x00\x00\x00\x00\x00\x00\x86\x00\x00\x00\x00\x00\x00\x000\x00\x00\x00\x00\x00\x00\x00r\x00\x00\x00\x00\x00\x00\x00C\x00\x00\x00\x00\x00\x00\x00|\x00\x00\x00\x00\x00\x00\x00\xb4\x00\x00\x00\x00\x00\x00\x00J\x00\x00\x00\x00\x00\x00\x00M\x00\x00\x00\x00\x00\x00\x00\x19\x00\x00\x00\x00\x00\x00\x00'
p678
tp679
bag563
(g564
(I0
tp680
g566
tp681
Rp682
(I1
(I12
tp683
g573
I00
S'0\x00\x00\x00\x00\x00\x00\x00\x8e\x00\x00\x00\x00\x00\x00\x00\xc4\x00\x00\x00\x00\x00\x00\x00#\x00\x00\x00\x00\x00\x00\x00f\x00\x00\x00\x00\x00\x00\x00\xdd\x00\x00\x00\x00\x00\x00\x00l\x00\x00\x00\x00\x00\x00\x00\xb9\x00\x00\x00\x00\x00\x00\x00P\x00\x00\x00\x00\x00\x00\x00\x04\x01\x00\x00\x00\x00\x00\x002\x00\x00\x00\x00\x00\x00\x00K\x00\x00\x00\x00\x00\x00\x00'
p684
tp685
bag563
(g564
(I0
tp686
g566
tp687
Rp688
(I1
(I12
tp689
g573
I00
S'-\x00\x00\x00\x00\x00\x00\x00\\\x00\x00\x00\x00\x00\x00\x006\x00\x00\x00\x00\x00\x00\x00N\x00\x00\x00\x00\x00\x00\x00\xab\x00\x00\x00\x00\x00\x00\x00A\x00\x00\x00\x00\x00\x00\x00L\x00\x00\x00\x00\x00\x00\x00f\x00\x00\x00\x00\x00\x00\x00\xa0\x00\x00\x00\x00\x00\x00\x00V\x00\x00\x00\x00\x00\x00\x00\x17\x00\x00\x00\x00\x00\x00\x00\x86\x00\x00\x00\x00\x00\x00\x00'
p690
tp691
bag563
(g564
(I0
tp692
g566
tp693
Rp694
(I1
(I12
tp695
g573
I00
S'\x03\x00\x00\x00\x00\x00\x00\x00k\x00\x00\x00\x00\x00\x00\x00f\x00\x00\x00\x00\x00\x00\x00\x13\x00\x00\x00\x00\x00\x00\x00x\x00\x00\x00\x00\x00\x00\x00\xdb\x00\x00\x00\x00\x00\x00\x00\x94\x00\x00\x00\x00\x00\x00\x00\xb5\x00\x00\x00\x00\x00\x00\x00n\x00\x00\x00\x00\x00\x00\x00q\x00\x00\x00\x00\x00\x00\x001\x00\x00\x00\x00\x00\x00\x00\xa3\x00\x00\x00\x00\x00\x00\x00'
p696
tp697
bag563
(g564
(I0
tp698
g566
tp699
Rp700
(I1
(I12
tp701
g573
I00
S'\xe7\x00\x00\x00\x00\x00\x00\x00\xb0\x00\x00\x00\x00\x00\x00\x00\x16\x01\x00\x00\x00\x00\x00\x00\xf4\x00\x00\x00\x00\x00\x00\x00\xe8\x00\x00\x00\x00\x00\x00\x00\x8a\x00\x00\x00\x00\x00\x00\x00\xe5\x00\x00\x00\x00\x00\x00\x00\xfe\x00\x00\x00\x00\x00\x00\x00E\x00\x00\x00\x00\x00\x00\x00\x16\x01\x00\x00\x00\x00\x00\x00\x14\x00\x00\x00\x00\x00\x00\x00\x89\x00\x00\x00\x00\x00\x00\x00'
p702
tp703
bag563
(g564
(I0
tp704
g566
tp705
Rp706
(I1
(I12
tp707
g573
I00
S'\xa6\x00\x00\x00\x00\x00\x00\x00\xae\x00\x00\x00\x00\x00\x00\x00\x9b\x00\x00\x00\x00\x00\x00\x00K\x00\x00\x00\x00\x00\x00\x00\x9f\x00\x00\x00\x00\x00\x00\x00,\x00\x00\x00\x00\x00\x00\x00\xb6\x00\x00\x00\x00\x00\x00\x00`\x00\x00\x00\x00\x00\x00\x00\n\x00\x00\x00\x00\x00\x00\x00^\x00\x00\x00\x00\x00\x00\x00|\x00\x00\x00\x00\x00\x00\x00\xb0\x00\x00\x00\x00\x00\x00\x00'
p708
tp709
bag563
(g564
(I0
tp710
g566
tp711
Rp712
(I1
(I12
tp713
g573
I00
S'`\x00\x00\x00\x00\x00\x00\x00m\x00\x00\x00\x00\x00\x00\x00\x82\x00\x00\x00\x00\x00\x00\x00\x99\x00\x00\x00\x00\x00\x00\x00N\x00\x00\x00\x00\x00\x00\x00z\x00\x00\x00\x00\x00\x00\x00u\x00\x00\x00\x00\x00\x00\x00\xaa\x00\x00\x00\x00\x00\x00\x00\x1b\x00\x00\x00\x00\x00\x00\x00\xc7\x00\x00\x00\x00\x00\x00\x00/\x00\x00\x00\x00\x00\x00\x00\xbc\x00\x00\x00\x00\x00\x00\x00'
p714
tp715
bag563
(g564
(I0
tp716
g566
tp717
Rp718
(I1
(I12
tp719
g573
I00
S'\xa3\x00\x00\x00\x00\x00\x00\x00C\x00\x00\x00\x00\x00\x00\x00K\x00\x00\x00\x00\x00\x00\x00Z\x00\x00\x00\x00\x00\x00\x00\xbe\x00\x00\x00\x00\x00\x00\x00\x19\x00\x00\x00\x00\x00\x00\x00\x8d\x00\x00\x00\x00\x00\x00\x004\x00\x00\x00\x00\x00\x00\x00y\x00\x00\x00\x00\x00\x00\x00J\x00\x00\x00\x00\x00\x00\x00\x9a\x00\x00\x00\x00\x00\x00\x00\x03\x00\x00\x00\x00\x00\x00\x00'
p720
tp721
bag563
(g564
(I0
tp722
g566
tp723
Rp724
(I1
(I12
tp725
g573
I00
S'\xf3\x00\x00\x00\x00\x00\x00\x00|\x00\x00\x00\x00\x00\x00\x00\xe9\x00\x00\x00\x00\x00\x00\x00\xfc\x00\x00\x00\x00\x00\x00\x00\xf2\x00\x00\x00\x00\x00\x00\x00d\x00\x00\x00\x00\x00\x00\x00\xc3\x00\x00\x00\x00\x00\x00\x00\xea\x00\x00\x00\x00\x00\x00\x00\x81\x00\x00\x00\x00\x00\x00\x00<\x00\x00\x00\x00\x00\x00\x00|\x00\x00\x00\x00\x00\x00\x00\xdf\x00\x00\x00\x00\x00\x00\x00'
p726
tp727
bag563
(g564
(I0
tp728
g566
tp729
Rp730
(I1
(I12
tp731
g573
I00
S'\xc7\x00\x00\x00\x00\x00\x00\x00\xd5\x00\x00\x00\x00\x00\x00\x00l\x00\x00\x00\x00\x00\x00\x00\x86\x00\x00\x00\x00\x00\x00\x00\x1a\x01\x00\x00\x00\x00\x00\x00\x9e\x00\x00\x00\x00\x00\x00\x00p\x00\x00\x00\x00\x00\x00\x00\x16\x00\x00\x00\x00\x00\x00\x00%\x00\x00\x00\x00\x00\x00\x00\xe6\x00\x00\x00\x00\x00\x00\x00_\x00\x00\x00\x00\x00\x00\x00|\x00\x00\x00\x00\x00\x00\x00'
p732
tp733
bag563
(g564
(I0
tp734
g566
tp735
Rp736
(I1
(I12
tp737
g573
I00
S'_\x00\x00\x00\x00\x00\x00\x00\xba\x00\x00\x00\x00\x00\x00\x00\xfc\x00\x00\x00\x00\x00\x00\x00\xb6\x00\x00\x00\x00\x00\x00\x00\x99\x00\x00\x00\x00\x00\x00\x00\xc5\x00\x00\x00\x00\x00\x00\x00<\x00\x00\x00\x00\x00\x00\x007\x00\x00\x00\x00\x00\x00\x00\x04\x00\x00\x00\x00\x00\x00\x00\xff\x00\x00\x00\x00\x00\x00\x00\xbf\x00\x00\x00\x00\x00\x00\x00\xe6\x00\x00\x00\x00\x00\x00\x00'
p738
tp739
bag563
(g564
(I0
tp740
g566
tp741
Rp742
(I1
(I12
tp743
g573
I00
S'\x1a\x00\x00\x00\x00\x00\x00\x00\xb5\x00\x00\x00\x00\x00\x00\x00\x13\x00\x00\x00\x00\x00\x00\x00v\x00\x00\x00\x00\x00\x00\x00\x1e\x00\x00\x00\x00\x00\x00\x00\xaa\x00\x00\x00\x00\x00\x00\x00-\x00\x00\x00\x00\x00\x00\x00\x8e\x00\x00\x00\x00\x00\x00\x000\x00\x00\x00\x00\x00\x00\x00:\x00\x00\x00\x00\x00\x00\x00\x95\x00\x00\x00\x00\x00\x00\x00\xb9\x00\x00\x00\x00\x00\x00\x00'
p744
tp745
bag563
(g564
(I0
tp746
g566
tp747
Rp748
(I1
(I12
tp749
g573
I00
S'\x10\x01\x00\x00\x00\x00\x00\x00\n\x00\x00\x00\x00\x00\x00\x00Z\x00\x00\x00\x00\x00\x00\x00\xe5\x00\x00\x00\x00\x00\x00\x00\\\x00\x00\x00\x00\x00\x00\x00\xc7\x00\x00\x00\x00\x00\x00\x00\x11\x00\x00\x00\x00\x00\x00\x00\xc5\x00\x00\x00\x00\x00\x00\x00\x0e\x00\x00\x00\x00\x00\x00\x00\x9a\x00\x00\x00\x00\x00\x00\x00\xc2\x00\x00\x00\x00\x00\x00\x00\x80\x00\x00\x00\x00\x00\x00\x00'
p750
tp751
bag563
(g564
(I0
tp752
g566
tp753
Rp754
(I1
(I12
tp755
g573
I00
S'\xb9\x00\x00\x00\x00\x00\x00\x00=\x00\x00\x00\x00\x00\x00\x00\x80\x00\x00\x00\x00\x00\x00\x00\xdb\x00\x00\x00\x00\x00\x00\x00\x8e\x00\x00\x00\x00\x00\x00\x00\xf0\x00\x00\x00\x00\x00\x00\x00 \x00\x00\x00\x00\x00\x00\x00\xf7\x00\x00\x00\x00\x00\x00\x00\x92\x00\x00\x00\x00\x00\x00\x00\xa0\x00\x00\x00\x00\x00\x00\x00\xfb\x00\x00\x00\x00\x00\x00\x00h\x00\x00\x00\x00\x00\x00\x00'
p756
tp757
bag563
(g564
(I0
tp758
g566
tp759
Rp760
(I1
(I12
tp761
g573
I00
S'\xb3\x00\x00\x00\x00\x00\x00\x00\xc3\x00\x00\x00\x00\x00\x00\x00{\x00\x00\x00\x00\x00\x00\x00\x81\x00\x00\x00\x00\x00\x00\x00U\x00\x00\x00\x00\x00\x00\x00:\x00\x00\x00\x00\x00\x00\x00\xcf\x00\x00\x00\x00\x00\x00\x00\x1c\x00\x00\x00\x00\x00\x00\x00\x8c\x00\x00\x00\x00\x00\x00\x00\xe5\x00\x00\x00\x00\x00\x00\x00\xdf\x00\x00\x00\x00\x00\x00\x00\xda\x00\x00\x00\x00\x00\x00\x00'
p762
tp763
bag563
(g564
(I0
tp764
g566
tp765
Rp766
(I1
(I12
tp767
g573
I00
S'g\x00\x00\x00\x00\x00\x00\x00\xc3\x00\x00\x00\x00\x00\x00\x00\r\x00\x00\x00\x00\x00\x00\x00\xa0\x00\x00\x00\x00\x00\x00\x003\x00\x00\x00\x00\x00\x00\x00\x93\x00\x00\x00\x00\x00\x00\x00\xa2\x00\x00\x00\x00\x00\x00\x00@\x00\x00\x00\x00\x00\x00\x00\x16\x00\x00\x00\x00\x00\x00\x00\xbc\x00\x00\x00\x00\x00\x00\x00N\x00\x00\x00\x00\x00\x00\x00\xbd\x00\x00\x00\x00\x00\x00\x00'
p768
tp769
bag563
(g564
(I0
tp770
g566
tp771
Rp772
(I1
(I12
tp773
g573
I00
S'\xdd\x00\x00\x00\x00\x00\x00\x00\x11\x00\x00\x00\x00\x00\x00\x00\xcd\x00\x00\x00\x00\x00\x00\x00\x8e\x00\x00\x00\x00\x00\x00\x00\x81\x00\x00\x00\x00\x00\x00\x00\x9f\x00\x00\x00\x00\x00\x00\x00N\x00\x00\x00\x00\x00\x00\x00O\x00\x00\x00\x00\x00\x00\x00^\x00\x00\x00\x00\x00\x00\x00G\x00\x00\x00\x00\x00\x00\x00C\x00\x00\x00\x00\x00\x00\x00\xbc\x00\x00\x00\x00\x00\x00\x00'
p774
tp775
bag563
(g564
(I0
tp776
g566
tp777
Rp778
(I1
(I12
tp779
g573
I00
S'\x17\x00\x00\x00\x00\x00\x00\x00\x9e\x00\x00\x00\x00\x00\x00\x00\xad\x00\x00\x00\x00\x00\x00\x00\x81\x00\x00\x00\x00\x00\x00\x00\x0e\x00\x00\x00\x00\x00\x00\x00\xc2\x00\x00\x00\x00\x00\x00\x00\x82\x00\x00\x00\x00\x00\x00\x00#\x00\x00\x00\x00\x00\x00\x00 \x00\x00\x00\x00\x00\x00\x00\x81\x00\x00\x00\x00\x00\x00\x00L\x00\x00\x00\x00\x00\x00\x00o\x00\x00\x00\x00\x00\x00\x00'
p780
tp781
bag563
(g564
(I0
tp782
g566
tp783
Rp784
(I1
(I12
tp785
g573
I00
S'\x8c\x00\x00\x00\x00\x00\x00\x00\x03\x00\x00\x00\x00\x00\x00\x00V\x00\x00\x00\x00\x00\x00\x00\xd2\x00\x00\x00\x00\x00\x00\x006\x00\x00\x00\x00\x00\x00\x00\xb8\x00\x00\x00\x00\x00\x00\x00\xea\x00\x00\x00\x00\x00\x00\x003\x00\x00\x00\x00\x00\x00\x00\xa7\x00\x00\x00\x00\x00\x00\x00\x1c\x00\x00\x00\x00\x00\x00\x00\x14\x00\x00\x00\x00\x00\x00\x00\xb7\x00\x00\x00\x00\x00\x00\x00'
p786
tp787
bag563
(g564
(I0
tp788
g566
tp789
Rp790
(I1
(I12
tp791
g573
I00
S'\xba\x00\x00\x00\x00\x00\x00\x00,\x00\x00\x00\x00\x00\x00\x00R\x00\x00\x00\x00\x00\x00\x00\x0c\x00\x00\x00\x00\x00\x00\x00H\x00\x00\x00\x00\x00\x00\x00\x92\x00\x00\x00\x00\x00\x00\x00!\x00\x00\x00\x00\x00\x00\x00\t\x00\x00\x00\x00\x00\x00\x00n\x00\x00\x00\x00\x00\x00\x00*\x00\x00\x00\x00\x00\x00\x00\xd2\x00\x00\x00\x00\x00\x00\x00I\x00\x00\x00\x00\x00\x00\x00'
p792
tp793
bag563
(g564
(I0
tp794
g566
tp795
Rp796
(I1
(I12
tp797
g573
I00
S'\xb5\x00\x00\x00\x00\x00\x00\x00i\x00\x00\x00\x00\x00\x00\x00Q\x00\x00\x00\x00\x00\x00\x00\xc0\x00\x00\x00\x00\x00\x00\x00\xc1\x00\x00\x00\x00\x00\x00\x00\xbf\x00\x00\x00\x00\x00\x00\x00g\x00\x00\x00\x00\x00\x00\x00-\x00\x00\x00\x00\x00\x00\x00\x83\x00\x00\x00\x00\x00\x00\x000\x00\x00\x00\x00\x00\x00\x00\x15\x00\x00\x00\x00\x00\x00\x00Q\x00\x00\x00\x00\x00\x00\x00'
p798
tp799
bag563
(g564
(I0
tp800
g566
tp801
Rp802
(I1
(I12
tp803
g573
I00
S'\x00\x01\x00\x00\x00\x00\x00\x00\xed\x00\x00\x00\x00\x00\x00\x00\xcd\x00\x00\x00\x00\x00\x00\x00\xd3\x00\x00\x00\x00\x00\x00\x00I\x00\x00\x00\x00\x00\x00\x00U\x00\x00\x00\x00\x00\x00\x00 \x00\x00\x00\x00\x00\x00\x00\x98\x00\x00\x00\x00\x00\x00\x00\xab\x00\x00\x00\x00\x00\x00\x00\x1f\x00\x00\x00\x00\x00\x00\x00$\x00\x00\x00\x00\x00\x00\x00\x03\x01\x00\x00\x00\x00\x00\x00'
p804
tp805
bag563
(g564
(I0
tp806
g566
tp807
Rp808
(I1
(I12
tp809
g573
I00
S'>\x00\x00\x00\x00\x00\x00\x00\xd1\x00\x00\x00\x00\x00\x00\x00b\x00\x00\x00\x00\x00\x00\x00\x90\x00\x00\x00\x00\x00\x00\x00\xbe\x00\x00\x00\x00\x00\x00\x00\xa2\x00\x00\x00\x00\x00\x00\x00<\x00\x00\x00\x00\x00\x00\x00|\x00\x00\x00\x00\x00\x00\x00\xb2\x00\x00\x00\x00\x00\x00\x00\r\x01\x00\x00\x00\x00\x00\x00\x01\x01\x00\x00\x00\x00\x00\x00\x0f\x00\x00\x00\x00\x00\x00\x00'
p810
tp811
basS'F'
p812
(lp813
S'f1'
p814
aS'f2'
p815
aS'f3'
p816
aS'f4'
p817
aS'f5'
p818
aS'f6'
p819
aS'f7'
p820
aS'f8'
p821
aS'f9'
p822
aS'f10'
p823
aS'f11'
p824
aS'f12'
p825
aS'f13'
p826
aS'f14'
p827
aS'f15'
p828
aS'f16'
p829
aS'f17'
p830
aS'f18'
p831
aS'f19'
p832
aS'f20'
p833
aS'f21'
p834
aS'f22'
p835
aS'f23'
p836
aS'f24'
p837
aS'f25'
p838
asS's0'
p839
(lp840
I0
aI0
aI0
aI0
aI0
aI0
aI0
aI0
aI0
aI0
aI0
aI0
aI0
aI0
aI0
aI0
aI0
aI0
aI0
aI0
aI0
aI0
aI0
aI0
aI0
aI0
aI0
aI0
aI0
aI0
aI0
aI0
aI0
aI0
aI0
aI0
aI0
aI0
aI0
aI0
asS'lambd'
p841
(lp842
F0.0011638826478490728
aF0.0012001495948124284
aF0.0011349070151674768
aF0.0011505972669694883
aF0.0011575045526054273
aF0.001129843679752061
aF0.0011815104294657644
aF0.0011400113833072623
aF0.0011967561958052043
aF0.0011236233862291216
aF0.0012142522022573282
aF0.0011560072507267422
aF0.0011855012138301717
aF0.0011860289374278877
aF0.0011368841557340328
aF0.0011609383034361666
aF0.001113832402251113
aF0.0011350945902268992
aF0.001160149349690231
aF0.001150956412122742
aF0.0011445348403189503
aF0.0011804007697815146
aF0.001138617145970406
aF0.0011183478508113047
aF0.0011901501184830368
aF0.0012000199288821826
aF0.0011149593507281735
aF0.0011693549831674342
aF0.0011378690185357848
aF0.0012011034497805121
aF0.0011144699991677478
aF0.001165983975603386
aF0.0011666467705265318
aF0.0011687085430670248
aF0.0011943820751928805
aF0.00120430496371225
aF0.0012083650193884976
aF0.0011664677511738501
aF0.001149548635344493
aF0.0011276223186673993
asS'n'
p843
I12
sS'P'
p844
(lp845
S'P1'
p846
aS'P2'
p847
aS'P3'
p848
aS'P4'
p849
aS'P5'
p850
aS'P6'
p851
aS'P7'
p852
aS'P8'
p853
aS'P9'
p854
aS'P10'
p855
aS'P11'
p856
aS'P12'
p857
aS'P13'
p858
aS'P14'
p859
aS'P15'
p860
aS'P16'
p861
aS'P17'
p862
aS'P18'
p863
aS'P19'
p864
aS'P20'
p865
aS'P21'
p866
aS'P22'
p867
aS'P23'
p868
aS'P24'
p869
aS'P25'
p870
aS'P26'
p871
aS'P27'
p872
aS'P28'
p873
aS'P29'
p874
aS'P30'
p875
aS'P31'
p876
aS'P32'
p877
aS'P33'
p878
aS'P34'
p879
aS'P35'
p880
aS'P36'
p881
aS'P37'
p882
aS'P38'
p883
aS'P39'
p884
aS'P40'
p885
asS'LT'
p886
(lp887
(lp888
g521
aI1
ag521
aI4
ag521
ag521
ag521
ag521
aI0
ag521
ag521
ag521
aI1
ag521
ag521
aI1
aI1
aI1
ag521
aI0
ag521
ag521
ag521
ag521
aI0
aa(lp889
g521
aI1
aI0
aI0
ag521
aI0
ag521
ag521
aI1
aI0
ag521
aI1
ag521
ag521
ag521
ag521
ag521
ag521
ag521
aI1
ag521
aI0
aI0
ag521
aI1
aa(lp890
g521
aI2
aI1
aI1
aI1
ag521
ag521
ag521
aI1
aI0
aI2
aI0
ag521
ag521
aI2
ag521
aI1
ag521
ag521
ag521
ag521
ag521
aI1
aI0
aI3
aa(lp891
g521
aI3
aI1
ag521
ag521
aI4
ag521
ag521
aI1
aI1
aI0
aI0
ag521
ag521
ag521
ag521
aI0
ag521
ag521
aI2
aI2
ag521
aI0
aI2
ag521
aa(lp892
g521
aI0
aI1
aI1
ag521
aI2
aI0
ag521
ag521
ag521
ag521
aI1
ag521
aI0
ag521
ag521
aI2
ag521
aI1
aI0
ag521
ag521
aI1
aI1
ag521
aa(lp893
I1
aI0
ag521
aI0
ag521
ag521
ag521
aI2
ag521
aI2
aI0
ag521
ag521
ag521
ag521
ag521
ag521
ag521
ag521
aI1
ag521
ag521
ag521
aI1
aI2
aa(lp894
I2
aI2
ag521
ag521
aI2
aI1
ag521
ag521
ag521
ag521
ag521
aI0
ag521
ag521
ag521
aI1
aI0
ag521
ag521
aI0
ag521
ag521
aI0
aI4
aI1
aa(lp895
I2
ag521
ag521
aI2
ag521
aI1
ag521
ag521
ag521
ag521
aI1
ag521
aI0
ag521
ag521
ag521
aI2
ag521
ag521
aI2
ag521
aI0
aI0
ag521
ag521
aa(lp896
g521
ag521
aI2
aI0
ag521
aI0
aI1
ag521
ag521
ag521
aI1
ag521
ag521
ag521
ag521
ag521
ag521
ag521
ag521
aI0
ag521
ag521
aI2
aI0
ag521
aa(lp897
g521
ag521
ag521
aI0
aI2
aI2
ag521
ag521
aI1
ag521
ag521
aI1
aI1
ag521
ag521
ag521
aI2
ag521
ag521
aI1
ag521
ag521
ag521
aI0
ag521
aa(lp898
g521
ag521
aI2
ag521
ag521
ag521
ag521
aI1
aI0
ag521
ag521
aI0
ag521
ag521
aI2
ag521
aI3
ag521
aI0
aI1
aI0
ag521
aI0
aI3
aI0
aa(lp899
g521
ag521
aI0
ag521
ag521
aI1
aI0
ag521
aI1
aI4
aI1
ag521
ag521
ag521
aI0
ag521
aI1
ag521
ag521
ag521
aI1
ag521
ag521
ag521
ag521
aa(lp900
g521
aI0
aI0
aI2
ag521
aI1
aI0
ag521
ag521
aI1
aI2
ag521
aI0
aI2
ag521
aI3
ag521
ag521
aI0
ag521
aI1
ag521
ag521
aI1
ag521
aa(lp901
g521
aI0
aI3
aI2
ag521
aI0
ag521
ag521
aI1
aI0
ag521
ag521
ag521
ag521
ag521
ag521
aI0
ag521
aI1
aI0
aI1
ag521
aI1
aI2
aI1
aa(lp902
g521
aI1
aI2
aI2
aI2
aI1
ag521
ag521
aI2
ag521
aI1
ag521
ag521
aI1
aI1
ag521
aI2
ag521
ag521
aI3
ag521
ag521
aI1
aI0
aI1
aa(lp903
I0
aI0
aI3
aI0
ag521
ag521
ag521
ag521
ag521
ag521
ag521
ag521
ag521
ag521
aI0
ag521
aI3
ag521
ag521
aI1
ag521
ag521
aI1
aI2
aI1
aa(lp904
g521
aI2
aI2
aI1
ag521
aI1
ag521
aI0
aI2
aI3
ag521
aI1
ag521
aI0
ag521
ag521
aI4
ag521
ag521
aI1
ag521
ag521
aI0
aI0
ag521
aa(lp905
I1
aI1
ag521
aI0
ag521
aI2
ag521
ag521
aI2
aI1
ag521
aI0
ag521
ag521
ag521
ag521
aI1
ag521
ag521
aI0
ag521
ag521
aI0
ag521
ag521
aa(lp906
I1
aI2
ag521
aI1
ag521
aI0
ag521
ag521
ag521
aI3
ag521
ag521
ag521
ag521
ag521
aI1
aI0
ag521
ag521
aI1
ag521
ag521
ag521
aI1
ag521
aa(lp907
I0
ag521
ag521
aI1
ag521
aI0
ag521
aI2
aI1
ag521
ag521
ag521
aI1
ag521
ag521
aI0
aI1
ag521
ag521
aI1
ag521
ag521
aI0
ag521
aI1
aa(lp908
g521
ag521
aI1
aI0
aI2
aI0
ag521
ag521
aI0
aI3
ag521
aI0
ag521
ag521
ag521
ag521
aI0
ag521
ag521
aI1
ag521
ag521
ag521
aI5
ag521
aa(lp909
g521
aI0
aI2
aI2
aI0
aI0
ag521
aI1
ag521
aI0
aI0
ag521
aI2
aI1
ag521
aI1
aI2
ag521
ag521
ag521
ag521
ag521
ag521
aI1
aI0
aa(lp910
I0
aI1
aI1
aI0
ag521
aI1
aI0
ag521
ag521
ag521
aI0
aI1
ag521
ag521
aI2
ag521
aI1
ag521
ag521
aI0
ag521
ag521
ag521
ag521
aI2
aa(lp911
g521
aI0
aI0
aI0
ag521
aI1
ag521
aI2
aI0
aI1
ag521
ag521
ag521
aI1
ag521
ag521
ag521
ag521
ag521
aI1
aI3
ag521
aI1
aI0
ag521
aa(lp912
I1
aI1
aI1
aI1
ag521
aI0
ag521
aI0
aI0
aI0
aI0
aI0
aI0
ag521
aI2
ag521
aI1
ag521
ag521
aI0
ag521
ag521
aI2
aI1
aI1
aa(lp913
g521
aI1
aI0
aI0
ag521
aI0
ag521
ag521
ag521
aI2
aI2
ag521
ag521
aI2
aI1
aI0
ag521
aI0
ag521
aI1
ag521
ag521
aI0
aI1
aI3
aa(lp914
g521
aI3
aI1
aI1
aI0
aI0
ag521
ag521
aI0
ag521
ag521
ag521
ag521
aI1
aI1
ag521
aI1
ag521
ag521
aI2
ag521
aI0
aI1
aI0
aI1
aa(lp915
I0
aI0
ag521
aI1
ag521
ag521
ag521
ag521
aI0
aI1
aI0
aI2
ag521
ag521
aI1
aI1
aI0
ag521
ag521
aI1
ag521
ag521
ag521
aI1
aI0
aa(lp916
I2
aI1
aI1
aI1
aI1
aI1
aI0
ag521
ag521
ag521
aI1
aI0
ag521
ag521
aI0
ag521
aI1
ag521
ag521
aI1
ag521
ag521
aI1
aI0
aI3
aa(lp917
I0
aI2
aI0
aI2
aI1
aI3
ag521
ag521
aI0
ag521
aI2
ag521
ag521
ag521
aI1
aI0
ag521
ag521
ag521
aI3
ag521
ag521
ag521
aI1
aI1
aa(lp918
g521
aI1
ag521
ag521
aI0
aI2
aI1
aI0
aI1
aI1
aI1
aI0
aI2
ag521
aI1
ag521
ag521
ag521
ag521
aI0
ag521
ag521
ag521
ag521
aI2
aa(lp919
g521
aI1
aI0
aI1
aI1
aI2
aI2
ag521
aI0
aI1
aI0
aI1
ag521
ag521
ag521
ag521
aI2
ag521
ag521
aI2
aI1
ag521
ag521
aI0
ag521
aa(lp920
I2
aI2
ag521
aI3
ag521
aI2
ag521
aI0
aI4
ag521
aI0
ag521
aI2
ag521
ag521
ag521
aI1
ag521
ag521
aI3
ag521
ag521
aI0
aI2
ag521
aa(lp921
I1
ag521
aI0
aI0
ag521
ag521
aI1
ag521
aI2
aI0
ag521
aI3
ag521
ag521
ag521
aI0
aI1
ag521
ag521
ag521
aI0
ag521
aI0
aI1
aI0
aa(lp922
g521
aI1
ag521
aI2
aI1
aI0
aI0
ag521
ag521
ag521
aI1
ag521
ag521
ag521
aI1
ag521
aI1
ag521
ag521
aI2
ag521
ag521
aI0
ag521
aI4
aa(lp923
g521
aI2
aI3
aI0
aI2
aI0
aI1
ag521
ag521
ag521
ag521
aI2
aI1
ag521
aI5
aI3
aI1
ag521
ag521
ag521
ag521
ag521
aI0
aI0
aI0
aa(lp924
I1
aI0
aI1
aI1
aI1
ag521
ag521
ag521
ag521
aI2
ag521
ag521
aI1
ag521
ag521
ag521
aI1
ag521
ag521
aI2
ag521
ag521
ag521
ag521
aI1
aa(lp925
g521
aI1
ag521
aI1
ag521
ag521
ag521
ag521
aI0
aI0
aI1
aI0
ag521
ag521
aI0
aI2
aI1
ag521
ag521
aI1
ag521
ag521
aI1
aI0
aI0
aa(lp926
I4
ag521
aI1
aI0
ag521
ag521
ag521
ag521
aI0
ag521
ag521
aI1
aI2
ag521
ag521
aI4
aI2
ag521
aI1
ag521
ag521
ag521
aI0
ag521
aI1
aa(lp927
g521
ag521
aI0
aI0
aI4
ag521
ag521
ag521
aI0
ag521
aI0
ag521
ag521
ag521
aI1
aI0
aI1
ag521
ag521
aI3
ag521
aI1
aI0
ag521
aI0
aasS'beta'
p928
(lp929
(lp930
g521
acnumpy.core.multiarray
scalar
p931
(g573
S'\x05\x00\x00\x00\x00\x00\x00\x00'
p932
tp933
Rp934
ag521
ag931
(g573
S'\x0f\x00\x00\x00\x00\x00\x00\x00'
p935
tp936
Rp937
ag521
ag521
ag521
ag521
ag931
(g573
S'\x05\x00\x00\x00\x00\x00\x00\x00'
p938
tp939
Rp940
ag521
ag521
ag521
ag931
(g573
S'\x0f\x00\x00\x00\x00\x00\x00\x00'
p941
tp942
Rp943
ag521
ag521
ag931
(g573
S'\x14\x00\x00\x00\x00\x00\x00\x00'
p944
tp945
Rp946
ag931
(g573
S'\x0f\x00\x00\x00\x00\x00\x00\x00'
p947
tp948
Rp949
ag931
(g573
S'\x19\x00\x00\x00\x00\x00\x00\x00'
p950
tp951
Rp952
ag521
ag931
(g573
S'\x05\x00\x00\x00\x00\x00\x00\x00'
p953
tp954
Rp955
ag521
ag521
ag521
ag521
ag931
(g573
S'\x05\x00\x00\x00\x00\x00\x00\x00'
p956
tp957
Rp958
aa(lp959
g521
ag931
(g573
S'\x14\x00\x00\x00\x00\x00\x00\x00'
p960
tp961
Rp962
ag931
(g573
S'\x1e\x00\x00\x00\x00\x00\x00\x00'
p963
tp964
Rp965
ag931
(g573
S'\x05\x00\x00\x00\x00\x00\x00\x00'
p966
tp967
Rp968
ag521
ag931
(g573
S'\x05\x00\x00\x00\x00\x00\x00\x00'
p969
tp970
Rp971
ag521
ag521
ag931
(g573
S'\n\x00\x00\x00\x00\x00\x00\x00'
p972
tp973
Rp974
ag931
(g573
S'\x0f\x00\x00\x00\x00\x00\x00\x00'
p975
tp976
Rp977
ag521
ag931
(g573
S'\x1e\x00\x00\x00\x00\x00\x00\x00'
p978
tp979
Rp980
ag521
ag521
ag521
ag521
ag521
ag521
ag521
ag931
(g573
S'\x14\x00\x00\x00\x00\x00\x00\x00'
p981
tp982
Rp983
ag521
ag931
(g573
S'\x1e\x00\x00\x00\x00\x00\x00\x00'
p984
tp985
Rp986
ag931
(g573
S'\x0f\x00\x00\x00\x00\x00\x00\x00'
p987
tp988
Rp989
ag521
ag931
(g573
S'\n\x00\x00\x00\x00\x00\x00\x00'
p990
tp991
Rp992
aa(lp993
g521
ag931
(g573
S'\n\x00\x00\x00\x00\x00\x00\x00'
p994
tp995
Rp996
ag931
(g573
S'\x19\x00\x00\x00\x00\x00\x00\x00'
p997
tp998
Rp999
ag931
(g573
S'\x0f\x00\x00\x00\x00\x00\x00\x00'
p1000
tp1001
Rp1002
ag931
(g573
S'\x1e\x00\x00\x00\x00\x00\x00\x00'
p1003
tp1004
Rp1005
ag521
ag521
ag521
ag931
(g573
S'\x0f\x00\x00\x00\x00\x00\x00\x00'
p1006
tp1007
Rp1008
ag931
(g573
S'\x14\x00\x00\x00\x00\x00\x00\x00'
p1009
tp1010
Rp1011
ag931
(g573
S'\n\x00\x00\x00\x00\x00\x00\x00'
p1012
tp1013
Rp1014
ag931
(g573
S'\x0f\x00\x00\x00\x00\x00\x00\x00'
p1015
tp1016
Rp1017
ag521
ag521
ag931
(g573
S'\x1e\x00\x00\x00\x00\x00\x00\x00'
p1018
tp1019
Rp1020
ag521
ag931
(g573
S'\x05\x00\x00\x00\x00\x00\x00\x00'
p1021
tp1022
Rp1023
ag521
ag521
ag521
ag521
ag521
ag931
(g573
S'\x14\x00\x00\x00\x00\x00\x00\x00'
p1024
tp1025
Rp1026
ag931
(g573
S'\x0f\x00\x00\x00\x00\x00\x00\x00'
p1027
tp1028
Rp1029
ag931
(g573
S'\x19\x00\x00\x00\x00\x00\x00\x00'
p1030
tp1031
Rp1032
aa(lp1033
g521
ag931
(g573
S'\x05\x00\x00\x00\x00\x00\x00\x00'
p1034
tp1035
Rp1036
ag931
(g573
S'\x19\x00\x00\x00\x00\x00\x00\x00'
p1037
tp1038
Rp1039
ag521
ag521
ag931
(g573
S'\x19\x00\x00\x00\x00\x00\x00\x00'
p1040
tp1041
Rp1042
ag521
ag521
ag931
(g573
S'\x05\x00\x00\x00\x00\x00\x00\x00'
p1043
tp1044
Rp1045
ag931
(g573
S'\x19\x00\x00\x00\x00\x00\x00\x00'
p1046
tp1047
Rp1048
ag931
(g573
S'\x19\x00\x00\x00\x00\x00\x00\x00'
p1049
tp1050
Rp1051
ag931
(g573
S'\x14\x00\x00\x00\x00\x00\x00\x00'
p1052
tp1053
Rp1054
ag521
ag521
ag521
ag521
ag931
(g573
S'\x1e\x00\x00\x00\x00\x00\x00\x00'
p1055
tp1056
Rp1057
ag521
ag521
ag931
(g573
S'\x19\x00\x00\x00\x00\x00\x00\x00'
p1058
tp1059
Rp1060
ag931
(g573
S'\x05\x00\x00\x00\x00\x00\x00\x00'
p1061
tp1062
Rp1063
ag521
ag931
(g573
S'\x1e\x00\x00\x00\x00\x00\x00\x00'
p1064
tp1065
Rp1066
ag931
(g573
S'\x05\x00\x00\x00\x00\x00\x00\x00'
p1067
tp1068
Rp1069
ag521
aa(lp1070
g521
ag931
(g573
S'\n\x00\x00\x00\x00\x00\x00\x00'
p1071
tp1072
Rp1073
ag931
(g573
S'\x05\x00\x00\x00\x00\x00\x00\x00'
p1074
tp1075
Rp1076
ag931
(g573
S'\n\x00\x00\x00\x00\x00\x00\x00'
p1077
tp1078
Rp1079
ag521
ag931
(g573
S'\x05\x00\x00\x00\x00\x00\x00\x00'
p1080
tp1081
Rp1082
ag931
(g573
S'\x1e\x00\x00\x00\x00\x00\x00\x00'
p1083
tp1084
Rp1085
ag521
ag521
ag521
ag521
ag931
(g573
S'\n\x00\x00\x00\x00\x00\x00\x00'
p1086
tp1087
Rp1088
ag521
ag931
(g573
S'\x19\x00\x00\x00\x00\x00\x00\x00'
p1089
tp1090
Rp1091
ag521
ag521
ag931
(g573
S'\x19\x00\x00\x00\x00\x00\x00\x00'
p1092
tp1093
Rp1094
ag521
ag931
(g573
S'\x05\x00\x00\x00\x00\x00\x00\x00'
p1095
tp1096
Rp1097
ag931
(g573
S'\x1e\x00\x00\x00\x00\x00\x00\x00'
p1098
tp1099
Rp1100
ag521
ag521
ag931
(g573
S'\x19\x00\x00\x00\x00\x00\x00\x00'
p1101
tp1102
Rp1103
ag931
(g573
S'\x1e\x00\x00\x00\x00\x00\x00\x00'
p1104
tp1105
Rp1106
ag521
aa(lp1107
g931
(g573
S'\x1e\x00\x00\x00\x00\x00\x00\x00'
p1108
tp1109
Rp1110
ag931
(g573
S'\x05\x00\x00\x00\x00\x00\x00\x00'
p1111
tp1112
Rp1113
ag521
ag931
(g573
S'\x1e\x00\x00\x00\x00\x00\x00\x00'
p1114
tp1115
Rp1116
ag521
ag521
ag521
ag931
(g573
S'\x0f\x00\x00\x00\x00\x00\x00\x00'
p1117
tp1118
Rp1119
ag521
ag931
(g573
S'\x0f\x00\x00\x00\x00\x00\x00\x00'
p1120
tp1121
Rp1122
ag931
(g573
S'\x0f\x00\x00\x00\x00\x00\x00\x00'
p1123
tp1124
Rp1125
ag521
ag521
ag521
ag521
ag521
ag521
ag521
ag521
ag931
(g573
S'\x05\x00\x00\x00\x00\x00\x00\x00'
p1126
tp1127
Rp1128
ag521
ag521
ag521
ag931
(g573
S'\x0f\x00\x00\x00\x00\x00\x00\x00'
p1129
tp1130
Rp1131
ag931
(g573
S'\x0f\x00\x00\x00\x00\x00\x00\x00'
p1132
tp1133
Rp1134
aa(lp1135
g931
(g573
S'\x19\x00\x00\x00\x00\x00\x00\x00'
p1136
tp1137
Rp1138
ag931
(g573
S'\n\x00\x00\x00\x00\x00\x00\x00'
p1139
tp1140
Rp1141
ag521
ag521
ag931
(g573
S'\x14\x00\x00\x00\x00\x00\x00\x00'
p1142
tp1143
Rp1144
ag931
(g573
S'\x14\x00\x00\x00\x00\x00\x00\x00'
p1145
tp1146
Rp1147
ag521
ag521
ag521
ag521
ag521
ag931
(g573
S'\x14\x00\x00\x00\x00\x00\x00\x00'
p1148
tp1149
Rp1150
ag521
ag521
ag521
ag931
(g573
S'\x19\x00\x00\x00\x00\x00\x00\x00'
p1151
tp1152
Rp1153
ag931
(g573
S'\x19\x00\x00\x00\x00\x00\x00\x00'
p1154
tp1155
Rp1156
ag521
ag521
ag931
(g573
S'\x1e\x00\x00\x00\x00\x00\x00\x00'
p1157
tp1158
Rp1159
ag521
ag521
ag931
(g573
S'\n\x00\x00\x00\x00\x00\x00\x00'
p1160
tp1161
Rp1162
ag931
(g573
S'\x19\x00\x00\x00\x00\x00\x00\x00'
p1163
tp1164
Rp1165
ag931
(g573
S'\x14\x00\x00\x00\x00\x00\x00\x00'
p1166
tp1167
Rp1168
aa(lp1169
g931
(g573
S'\x19\x00\x00\x00\x00\x00\x00\x00'
p1170
tp1171
Rp1172
ag521
ag521
ag931
(g573
S'\x19\x00\x00\x00\x00\x00\x00\x00'
p1173
tp1174
Rp1175
ag521
ag931
(g573
S'\n\x00\x00\x00\x00\x00\x00\x00'
p1176
tp1177
Rp1178
ag521
ag521
ag521
ag521
ag931
(g573
S'\x14\x00\x00\x00\x00\x00\x00\x00'
p1179
tp1180
Rp1181
ag521
ag931
(g573
S'\n\x00\x00\x00\x00\x00\x00\x00'
p1182
tp1183
Rp1184
ag521
ag521
ag521
ag931
(g573
S'\x1e\x00\x00\x00\x00\x00\x00\x00'
p1185
tp1186
Rp1187
ag521
ag521
ag931
(g573
S'\x05\x00\x00\x00\x00\x00\x00\x00'
p1188
tp1189
Rp1190
ag521
ag931
(g573
S'\x05\x00\x00\x00\x00\x00\x00\x00'
p1191
tp1192
Rp1193
ag931
(g573
S'\x1e\x00\x00\x00\x00\x00\x00\x00'
p1194
tp1195
Rp1196
ag521
ag521
aa(lp1197
g521
ag521
ag931
(g573
S'\x0f\x00\x00\x00\x00\x00\x00\x00'
p1198
tp1199
Rp1200
ag931
(g573
S'\x05\x00\x00\x00\x00\x00\x00\x00'
p1201
tp1202
Rp1203
ag521
ag931
(g573
S'\x05\x00\x00\x00\x00\x00\x00\x00'
p1204
tp1205
Rp1206
ag931
(g573
S'\n\x00\x00\x00\x00\x00\x00\x00'
p1207
tp1208
Rp1209
ag521
ag521
ag521
ag931
(g573
S'\x19\x00\x00\x00\x00\x00\x00\x00'
p1210
tp1211
Rp1212
ag521
ag521
ag521
ag521
ag521
ag521
ag521
ag521
ag931
(g573
S'\x1e\x00\x00\x00\x00\x00\x00\x00'
p1213
tp1214
Rp1215
ag521
ag521
ag931
(g573
S'\x14\x00\x00\x00\x00\x00\x00\x00'
p1216
tp1217
Rp1218
ag931
(g573
S'\x19\x00\x00\x00\x00\x00\x00\x00'
p1219
tp1220
Rp1221
ag521
aa(lp1222
g521
ag521
ag521
ag931
(g573
S'\x14\x00\x00\x00\x00\x00\x00\x00'
p1223
tp1224
Rp1225
ag931
(g573
S'\x0f\x00\x00\x00\x00\x00\x00\x00'
p1226
tp1227
Rp1228
ag931
(g573
S'\x1e\x00\x00\x00\x00\x00\x00\x00'
p1229
tp1230
Rp1231
ag521
ag521
ag931
(g573
S'\x19\x00\x00\x00\x00\x00\x00\x00'
p1232
tp1233
Rp1234
ag521
ag521
ag931
(g573
S'\x14\x00\x00\x00\x00\x00\x00\x00'
p1235
tp1236
Rp1237
ag931
(g573
S'\n\x00\x00\x00\x00\x00\x00\x00'
p1238
tp1239
Rp1240
ag521
ag521
ag521
ag931
(g573
S'\x05\x00\x00\x00\x00\x00\x00\x00'
p1241
tp1242
Rp1243
ag521
ag521
ag931
(g573
S'\x1e\x00\x00\x00\x00\x00\x00\x00'
p1244
tp1245
Rp1246
ag521
ag521
ag521
ag931
(g573
S'\x14\x00\x00\x00\x00\x00\x00\x00'
p1247
tp1248
Rp1249
ag521
aa(lp1250
g521
ag521
ag931
(g573
S'\x1e\x00\x00\x00\x00\x00\x00\x00'
p1251
tp1252
Rp1253
ag521
ag521
ag521
ag521
ag931
(g573
S'\x1e\x00\x00\x00\x00\x00\x00\x00'
p1254
tp1255
Rp1256
ag931
(g573
S'\x1e\x00\x00\x00\x00\x00\x00\x00'
p1257
tp1258
Rp1259
ag521
ag521
ag931
(g573
S'\x14\x00\x00\x00\x00\x00\x00\x00'
p1260
tp1261
Rp1262
ag521
ag521
ag931
(g573
S'\x19\x00\x00\x00\x00\x00\x00\x00'
p1263
tp1264
Rp1265
ag521
ag931
(g573
S'\x1e\x00\x00\x00\x00\x00\x00\x00'
p1266
tp1267
Rp1268
ag521
ag931
(g573
S'\x05\x00\x00\x00\x00\x00\x00\x00'
p1269
tp1270
Rp1271
ag931
(g573
S'\x05\x00\x00\x00\x00\x00\x00\x00'
p1272
tp1273
Rp1274
ag931
(g573
S'\x19\x00\x00\x00\x00\x00\x00\x00'
p1275
tp1276
Rp1277
ag521
ag931
(g573
S'\x0f\x00\x00\x00\x00\x00\x00\x00'
p1278
tp1279
Rp1280
ag931
(g573
S'\x0f\x00\x00\x00\x00\x00\x00\x00'
p1281
tp1282
Rp1283
ag931
(g573
S'\x14\x00\x00\x00\x00\x00\x00\x00'
p1284
tp1285
Rp1286
aa(lp1287
g521
ag521
ag931
(g573
S'\x0f\x00\x00\x00\x00\x00\x00\x00'
p1288
tp1289
Rp1290
ag521
ag521
ag931
(g573
S'\n\x00\x00\x00\x00\x00\x00\x00'
p1291
tp1292
Rp1293
ag931
(g573
S'\x05\x00\x00\x00\x00\x00\x00\x00'
p1294
tp1295
Rp1296
ag521
ag931
(g573
S'\x05\x00\x00\x00\x00\x00\x00\x00'
p1297
tp1298
Rp1299
ag931
(g573
S'\x14\x00\x00\x00\x00\x00\x00\x00'
p1300
tp1301
Rp1302
ag931
(g573
S'\x05\x00\x00\x00\x00\x00\x00\x00'
p1303
tp1304
Rp1305
ag521
ag521
ag521
ag931
(g573
S'\x19\x00\x00\x00\x00\x00\x00\x00'
p1306
tp1307
Rp1308
ag521
ag931
(g573
S'\x19\x00\x00\x00\x00\x00\x00\x00'
p1309
tp1310
Rp1311
ag521
ag521
ag521
ag931
(g573
S'\n\x00\x00\x00\x00\x00\x00\x00'
p1312
tp1313
Rp1314
ag521
ag521
ag521
ag521
aa(lp1315
g521
ag931
(g573
S'\x14\x00\x00\x00\x00\x00\x00\x00'
p1316
tp1317
Rp1318
ag931
(g573
S'\x19\x00\x00\x00\x00\x00\x00\x00'
p1319
tp1320
Rp1321
ag931
(g573
S'\x0f\x00\x00\x00\x00\x00\x00\x00'
p1322
tp1323
Rp1324
ag521
ag931
(g573
S'\x0f\x00\x00\x00\x00\x00\x00\x00'
p1325
tp1326
Rp1327
ag931
(g573
S'\x1e\x00\x00\x00\x00\x00\x00\x00'
p1328
tp1329
Rp1330
ag521
ag521
ag931
(g573
S'\x1e\x00\x00\x00\x00\x00\x00\x00'
p1331
tp1332
Rp1333
ag931
(g573
S'\x14\x00\x00\x00\x00\x00\x00\x00'
p1334
tp1335
Rp1336
ag521
ag931
(g573
S'\x1e\x00\x00\x00\x00\x00\x00\x00'
p1337
tp1338
Rp1339
ag931
(g573
S'\x05\x00\x00\x00\x00\x00\x00\x00'
p1340
tp1341
Rp1342
ag521
ag931
(g573
S'\x14\x00\x00\x00\x00\x00\x00\x00'
p1343
tp1344
Rp1345
ag521
ag521
ag931
(g573
S'\x0f\x00\x00\x00\x00\x00\x00\x00'
p1346
tp1347
Rp1348
ag521
ag931
(g573
S'\x0f\x00\x00\x00\x00\x00\x00\x00'
p1349
tp1350
Rp1351
ag521
ag521
ag931
(g573
S'\x14\x00\x00\x00\x00\x00\x00\x00'
p1352
tp1353
Rp1354
ag521
aa(lp1355
g521
ag931
(g573
S'\x0f\x00\x00\x00\x00\x00\x00\x00'
p1356
tp1357
Rp1358
ag931
(g573
S'\n\x00\x00\x00\x00\x00\x00\x00'
p1359
tp1360
Rp1361
ag931
(g573
S'\x19\x00\x00\x00\x00\x00\x00\x00'
p1362
tp1363
Rp1364
ag521
ag931
(g573
S'\x14\x00\x00\x00\x00\x00\x00\x00'
p1365
tp1366
Rp1367
ag521
ag521
ag931
(g573
S'\x05\x00\x00\x00\x00\x00\x00\x00'
p1368
tp1369
Rp1370
ag931
(g573
S'\x1e\x00\x00\x00\x00\x00\x00\x00'
p1371
tp1372
Rp1373
ag521
ag521
ag521
ag521
ag521
ag521
ag931
(g573
S'\x19\x00\x00\x00\x00\x00\x00\x00'
p1374
tp1375
Rp1376
ag521
ag931
(g573
S'\x14\x00\x00\x00\x00\x00\x00\x00'
p1377
tp1378
Rp1379
ag931
(g573
S'\x05\x00\x00\x00\x00\x00\x00\x00'
p1380
tp1381
Rp1382
ag931
(g573
S'\x14\x00\x00\x00\x00\x00\x00\x00'
p1383
tp1384
Rp1385
ag521
ag931
(g573
S'\x05\x00\x00\x00\x00\x00\x00\x00'
p1386
tp1387
Rp1388
ag931
(g573
S'\n\x00\x00\x00\x00\x00\x00\x00'
p1389
tp1390
Rp1391
ag931
(g573
S'\x05\x00\x00\x00\x00\x00\x00\x00'
p1392
tp1393
Rp1394
aa(lp1395
g521
ag931
(g573
S'\x0f\x00\x00\x00\x00\x00\x00\x00'
p1396
tp1397
Rp1398
ag931
(g573
S'\x19\x00\x00\x00\x00\x00\x00\x00'
p1399
tp1400
Rp1401
ag931
(g573
S'\x14\x00\x00\x00\x00\x00\x00\x00'
p1402
tp1403
Rp1404
ag931
(g573
S'\x0f\x00\x00\x00\x00\x00\x00\x00'
p1405
tp1406
Rp1407
ag931
(g573
S'\x05\x00\x00\x00\x00\x00\x00\x00'
p1408
tp1409
Rp1410
ag521
ag521
ag931
(g573
S'\x1e\x00\x00\x00\x00\x00\x00\x00'
p1411
tp1412
Rp1413
ag521
ag931
(g573
S'\x14\x00\x00\x00\x00\x00\x00\x00'
p1414
tp1415
Rp1416
ag521
ag521
ag931
(g573
S'\x1e\x00\x00\x00\x00\x00\x00\x00'
p1417
tp1418
Rp1419
ag931
(g573
S'\n\x00\x00\x00\x00\x00\x00\x00'
p1420
tp1421
Rp1422
ag521
ag931
(g573
S'\n\x00\x00\x00\x00\x00\x00\x00'
p1423
tp1424
Rp1425
ag521
ag521
ag931
(g573
S'\x19\x00\x00\x00\x00\x00\x00\x00'
p1426
tp1427
Rp1428
ag521
ag521
ag931
(g573
S'\x0f\x00\x00\x00\x00\x00\x00\x00'
p1429
tp1430
Rp1431
ag931
(g573
S'\x19\x00\x00\x00\x00\x00\x00\x00'
p1432
tp1433
Rp1434
ag931
(g573
S'\x19\x00\x00\x00\x00\x00\x00\x00'
p1435
tp1436
Rp1437
aa(lp1438
g931
(g573
S'\x19\x00\x00\x00\x00\x00\x00\x00'
p1439
tp1440
Rp1441
ag931
(g573
S'\x1e\x00\x00\x00\x00\x00\x00\x00'
p1442
tp1443
Rp1444
ag931
(g573
S'\x1e\x00\x00\x00\x00\x00\x00\x00'
p1445
tp1446
Rp1447
ag931
(g573
S'\x14\x00\x00\x00\x00\x00\x00\x00'
p1448
tp1449
Rp1450
ag521
ag521
ag521
ag521
ag521
ag521
ag521
ag521
ag521
ag521
ag931
(g573
S'\x1e\x00\x00\x00\x00\x00\x00\x00'
p1451
tp1452
Rp1453
ag521
ag931
(g573
S'\x0f\x00\x00\x00\x00\x00\x00\x00'
p1454
tp1455
Rp1456
ag521
ag521
ag931
(g573
S'\x19\x00\x00\x00\x00\x00\x00\x00'
p1457
tp1458
Rp1459
ag521
ag521
ag931
(g573
S'\n\x00\x00\x00\x00\x00\x00\x00'
p1460
tp1461
Rp1462
ag931
(g573
S'\x19\x00\x00\x00\x00\x00\x00\x00'
p1463
tp1464
Rp1465
ag931
(g573
S'\x1e\x00\x00\x00\x00\x00\x00\x00'
p1466
tp1467
Rp1468
aa(lp1469
g521
ag931
(g573
S'\x0f\x00\x00\x00\x00\x00\x00\x00'
p1470
tp1471
Rp1472
ag931
(g573
S'\n\x00\x00\x00\x00\x00\x00\x00'
p1473
tp1474
Rp1475
ag931
(g573
S'\x14\x00\x00\x00\x00\x00\x00\x00'
p1476
tp1477
Rp1478
ag521
ag931
(g573
S'\x05\x00\x00\x00\x00\x00\x00\x00'
p1479
tp1480
Rp1481
ag521
ag931
(g573
S'\x05\x00\x00\x00\x00\x00\x00\x00'
p1482
tp1483
Rp1484
ag931
(g573
S'\x19\x00\x00\x00\x00\x00\x00\x00'
p1485
tp1486
Rp1487
ag931
(g573
S'\x05\x00\x00\x00\x00\x00\x00\x00'
p1488
tp1489
Rp1490
ag521
ag931
(g573
S'\x1e\x00\x00\x00\x00\x00\x00\x00'
p1491
tp1492
Rp1493
ag521
ag931
(g573
S'\x19\x00\x00\x00\x00\x00\x00\x00'
p1494
tp1495
Rp1496
ag521
ag521
ag931
(g573
S'\n\x00\x00\x00\x00\x00\x00\x00'
p1497
tp1498
Rp1499
ag521
ag521
ag931
(g573
S'\x14\x00\x00\x00\x00\x00\x00\x00'
p1500
tp1501
Rp1502
ag521
ag521
ag931
(g573
S'\n\x00\x00\x00\x00\x00\x00\x00'
p1503
tp1504
Rp1505
ag931
(g573
S'\x19\x00\x00\x00\x00\x00\x00\x00'
p1506
tp1507
Rp1508
ag521
aa(lp1509
g931
(g573
S'\x1e\x00\x00\x00\x00\x00\x00\x00'
p1510
tp1511
Rp1512
ag931
(g573
S'\x1e\x00\x00\x00\x00\x00\x00\x00'
p1513
tp1514
Rp1515
ag521
ag931
(g573
S'\x05\x00\x00\x00\x00\x00\x00\x00'
p1516
tp1517
Rp1518
ag521
ag931
(g573
S'\x14\x00\x00\x00\x00\x00\x00\x00'
p1519
tp1520
Rp1521
ag521
ag521
ag931
(g573
S'\n\x00\x00\x00\x00\x00\x00\x00'
p1522
tp1523
Rp1524
ag931
(g573
S'\n\x00\x00\x00\x00\x00\x00\x00'
p1525
tp1526
Rp1527
ag521
ag931
(g573
S'\n\x00\x00\x00\x00\x00\x00\x00'
p1528
tp1529
Rp1530
ag521
ag521
ag521
ag521
ag931
(g573
S'\n\x00\x00\x00\x00\x00\x00\x00'
p1531
tp1532
Rp1533
ag521
ag521
ag931
(g573
S'\x19\x00\x00\x00\x00\x00\x00\x00'
p1534
tp1535
Rp1536
ag521
ag521
ag931
(g573
S'\x1e\x00\x00\x00\x00\x00\x00\x00'
p1537
tp1538
Rp1539
ag521
ag521
aa(lp1540
g931
(g573
S'\x0f\x00\x00\x00\x00\x00\x00\x00'
p1541
tp1542
Rp1543
ag931
(g573
S'\n\x00\x00\x00\x00\x00\x00\x00'
p1544
tp1545
Rp1546
ag521
ag931
(g573
S'\x05\x00\x00\x00\x00\x00\x00\x00'
p1547
tp1548
Rp1549
ag521
ag931
(g573
S'\x14\x00\x00\x00\x00\x00\x00\x00'
p1550
tp1551
Rp1552
ag521
ag521
ag521
ag931
(g573
S'\x1e\x00\x00\x00\x00\x00\x00\x00'
p1553
tp1554
Rp1555
ag521
ag521
ag521
ag521
ag521
ag931
(g573
S'\x14\x00\x00\x00\x00\x00\x00\x00'
p1556
tp1557
Rp1558
ag931
(g573
S'\x1e\x00\x00\x00\x00\x00\x00\x00'
p1559
tp1560
Rp1561
ag521
ag521
ag931
(g573
S'\x0f\x00\x00\x00\x00\x00\x00\x00'
p1562
tp1563
Rp1564
ag521
ag521
ag521
ag931
(g573
S'\x1e\x00\x00\x00\x00\x00\x00\x00'
p1565
tp1566
Rp1567
ag521
aa(lp1568
g931
(g573
S'\x0f\x00\x00\x00\x00\x00\x00\x00'
p1569
tp1570
Rp1571
ag521
ag521
ag931
(g573
S'\x19\x00\x00\x00\x00\x00\x00\x00'
p1572
tp1573
Rp1574
ag521
ag931
(g573
S'\x05\x00\x00\x00\x00\x00\x00\x00'
p1575
tp1576
Rp1577
ag521
ag931
(g573
S'\x05\x00\x00\x00\x00\x00\x00\x00'
p1578
tp1579
Rp1580
ag931
(g573
S'\n\x00\x00\x00\x00\x00\x00\x00'
p1581
tp1582
Rp1583
ag521
ag521
ag521
ag931
(g573
S'\x1e\x00\x00\x00\x00\x00\x00\x00'
p1584
tp1585
Rp1586
ag521
ag521
ag931
(g573
S'\n\x00\x00\x00\x00\x00\x00\x00'
p1587
tp1588
Rp1589
ag931
(g573
S'\x0f\x00\x00\x00\x00\x00\x00\x00'
p1590
tp1591
Rp1592
ag521
ag521
ag931
(g573
S'\n\x00\x00\x00\x00\x00\x00\x00'
p1593
tp1594
Rp1595
ag521
ag521
ag931
(g573
S'\n\x00\x00\x00\x00\x00\x00\x00'
p1596
tp1597
Rp1598
ag521
ag931
(g573
S'\x14\x00\x00\x00\x00\x00\x00\x00'
p1599
tp1600
Rp1601
aa(lp1602
g521
ag521
ag931
(g573
S'\x0f\x00\x00\x00\x00\x00\x00\x00'
p1603
tp1604
Rp1605
ag931
(g573
S'\x0f\x00\x00\x00\x00\x00\x00\x00'
p1606
tp1607
Rp1608
ag931
(g573
S'\x0f\x00\x00\x00\x00\x00\x00\x00'
p1609
tp1610
Rp1611
ag931
(g573
S'\x19\x00\x00\x00\x00\x00\x00\x00'
p1612
tp1613
Rp1614
ag521
ag521
ag931
(g573
S'\x1e\x00\x00\x00\x00\x00\x00\x00'
p1615
tp1616
Rp1617
ag931
(g573
S'\x14\x00\x00\x00\x00\x00\x00\x00'
p1618
tp1619
Rp1620
ag521
ag931
(g573
S'\x05\x00\x00\x00\x00\x00\x00\x00'
p1621
tp1622
Rp1623
ag521
ag521
ag521
ag521
ag931
(g573
S'\n\x00\x00\x00\x00\x00\x00\x00'
p1624
tp1625
Rp1626
ag521
ag521
ag931
(g573
S'\x05\x00\x00\x00\x00\x00\x00\x00'
p1627
tp1628
Rp1629
ag521
ag521
ag521
ag931
(g573
S'\x1e\x00\x00\x00\x00\x00\x00\x00'
p1630
tp1631
Rp1632
ag521
aa(lp1633
g521
ag931
(g573
S'\x14\x00\x00\x00\x00\x00\x00\x00'
p1634
tp1635
Rp1636
ag931
(g573
S'\x0f\x00\x00\x00\x00\x00\x00\x00'
p1637
tp1638
Rp1639
ag931
(g573
S'\x1e\x00\x00\x00\x00\x00\x00\x00'
p1640
tp1641
Rp1642
ag931
(g573
S'\x1e\x00\x00\x00\x00\x00\x00\x00'
p1643
tp1644
Rp1645
ag931
(g573
S'\n\x00\x00\x00\x00\x00\x00\x00'
p1646
tp1647
Rp1648
ag521
ag931
(g573
S'\x14\x00\x00\x00\x00\x00\x00\x00'
p1649
tp1650
Rp1651
ag521
ag931
(g573
S'\x0f\x00\x00\x00\x00\x00\x00\x00'
p1652
tp1653
Rp1654
ag931
(g573
S'\x14\x00\x00\x00\x00\x00\x00\x00'
p1655
tp1656
Rp1657
ag521
ag931
(g573
S'\x0f\x00\x00\x00\x00\x00\x00\x00'
p1658
tp1659
Rp1660
ag931
(g573
S'\x1e\x00\x00\x00\x00\x00\x00\x00'
p1661
tp1662
Rp1663
ag521
ag931
(g573
S'\x14\x00\x00\x00\x00\x00\x00\x00'
p1664
tp1665
Rp1666
ag931
(g573
S'\x05\x00\x00\x00\x00\x00\x00\x00'
p1667
tp1668
Rp1669
ag521
ag521
ag521
ag521
ag521
ag521
ag931
(g573
S'\x14\x00\x00\x00\x00\x00\x00\x00'
p1670
tp1671
Rp1672
ag931
(g573
S'\n\x00\x00\x00\x00\x00\x00\x00'
p1673
tp1674
Rp1675
aa(lp1676
g931
(g573
S'\n\x00\x00\x00\x00\x00\x00\x00'
p1677
tp1678
Rp1679
ag931
(g573
S'\n\x00\x00\x00\x00\x00\x00\x00'
p1680
tp1681
Rp1682
ag931
(g573
S'\x14\x00\x00\x00\x00\x00\x00\x00'
p1683
tp1684
Rp1685
ag931
(g573
S'\x14\x00\x00\x00\x00\x00\x00\x00'
p1686
tp1687
Rp1688
ag521
ag931
(g573
S'\x19\x00\x00\x00\x00\x00\x00\x00'
p1689
tp1690
Rp1691
ag931
(g573
S'\x1e\x00\x00\x00\x00\x00\x00\x00'
p1692
tp1693
Rp1694
ag521
ag521
ag521
ag931
(g573
S'\n\x00\x00\x00\x00\x00\x00\x00'
p1695
tp1696
Rp1697
ag931
(g573
S'\x19\x00\x00\x00\x00\x00\x00\x00'
p1698
tp1699
Rp1700
ag521
ag521
ag931
(g573
S'\x19\x00\x00\x00\x00\x00\x00\x00'
p1701
tp1702
Rp1703
ag521
ag931
(g573
S'\x05\x00\x00\x00\x00\x00\x00\x00'
p1704
tp1705
Rp1706
ag521
ag521
ag931
(g573
S'\x1e\x00\x00\x00\x00\x00\x00\x00'
p1707
tp1708
Rp1709
ag521
ag521
ag521
ag521
ag931
(g573
S'\x1e\x00\x00\x00\x00\x00\x00\x00'
p1710
tp1711
Rp1712
aa(lp1713
g521
ag931
(g573
S'\x14\x00\x00\x00\x00\x00\x00\x00'
p1714
tp1715
Rp1716
ag931
(g573
S'\x05\x00\x00\x00\x00\x00\x00\x00'
p1717
tp1718
Rp1719
ag931
(g573
S'\x19\x00\x00\x00\x00\x00\x00\x00'
p1720
tp1721
Rp1722
ag521
ag931
(g573
S'\x0f\x00\x00\x00\x00\x00\x00\x00'
p1723
tp1724
Rp1725
ag521
ag931
(g573
S'\x1e\x00\x00\x00\x00\x00\x00\x00'
p1726
tp1727
Rp1728
ag931
(g573
S'\x05\x00\x00\x00\x00\x00\x00\x00'
p1729
tp1730
Rp1731
ag931
(g573
S'\x14\x00\x00\x00\x00\x00\x00\x00'
p1732
tp1733
Rp1734
ag521
ag521
ag521
ag931
(g573
S'\x0f\x00\x00\x00\x00\x00\x00\x00'
p1735
tp1736
Rp1737
ag521
ag521
ag521
ag521
ag521
ag931
(g573
S'\x0f\x00\x00\x00\x00\x00\x00\x00'
p1738
tp1739
Rp1740
ag931
(g573
S'\x0f\x00\x00\x00\x00\x00\x00\x00'
p1741
tp1742
Rp1743
ag521
ag931
(g573
S'\x19\x00\x00\x00\x00\x00\x00\x00'
p1744
tp1745
Rp1746
ag931
(g573
S'\x0f\x00\x00\x00\x00\x00\x00\x00'
p1747
tp1748
Rp1749
ag521
aa(lp1750
g931
(g573
S'\x14\x00\x00\x00\x00\x00\x00\x00'
p1751
tp1752
Rp1753
ag931
(g573
S'\n\x00\x00\x00\x00\x00\x00\x00'
p1754
tp1755
Rp1756
ag931
(g573
S'\x05\x00\x00\x00\x00\x00\x00\x00'
p1757
tp1758
Rp1759
ag931
(g573
S'\x1e\x00\x00\x00\x00\x00\x00\x00'
p1760
tp1761
Rp1762
ag521
ag931
(g573
S'\x1e\x00\x00\x00\x00\x00\x00\x00'
p1763
tp1764
Rp1765
ag521
ag931
(g573
S'\x05\x00\x00\x00\x00\x00\x00\x00'
p1766
tp1767
Rp1768
ag931
(g573
S'\x05\x00\x00\x00\x00\x00\x00\x00'
p1769
tp1770
Rp1771
ag931
(g573
S'\x14\x00\x00\x00\x00\x00\x00\x00'
p1772
tp1773
Rp1774
ag931
(g573
S'\x0f\x00\x00\x00\x00\x00\x00\x00'
p1775
tp1776
Rp1777
ag931
(g573
S'\x14\x00\x00\x00\x00\x00\x00\x00'
p1778
tp1779
Rp1780
ag931
(g573
S'\n\x00\x00\x00\x00\x00\x00\x00'
p1781
tp1782
Rp1783
ag521
ag931
(g573
S'\n\x00\x00\x00\x00\x00\x00\x00'
p1784
tp1785
Rp1786
ag521
ag931
(g573
S'\x0f\x00\x00\x00\x00\x00\x00\x00'
p1787
tp1788
Rp1789
ag521
ag521
ag931
(g573
S'\x1e\x00\x00\x00\x00\x00\x00\x00'
p1790
tp1791
Rp1792
ag521
ag521
ag931
(g573
S'\x19\x00\x00\x00\x00\x00\x00\x00'
p1793
tp1794
Rp1795
ag931
(g573
S'\x19\x00\x00\x00\x00\x00\x00\x00'
p1796
tp1797
Rp1798
ag931
(g573
S'\x05\x00\x00\x00\x00\x00\x00\x00'
p1799
tp1800
Rp1801
aa(lp1802
g521
ag931
(g573
S'\x19\x00\x00\x00\x00\x00\x00\x00'
p1803
tp1804
Rp1805
ag931
(g573
S'\x05\x00\x00\x00\x00\x00\x00\x00'
p1806
tp1807
Rp1808
ag931
(g573
S'\x05\x00\x00\x00\x00\x00\x00\x00'
p1809
tp1810
Rp1811
ag521
ag931
(g573
S'\n\x00\x00\x00\x00\x00\x00\x00'
p1812
tp1813
Rp1814
ag521
ag521
ag521
ag931
(g573
S'\x05\x00\x00\x00\x00\x00\x00\x00'
p1815
tp1816
Rp1817
ag931
(g573
S'\x1e\x00\x00\x00\x00\x00\x00\x00'
p1818
tp1819
Rp1820
ag521
ag521
ag931
(g573
S'\x1e\x00\x00\x00\x00\x00\x00\x00'
p1821
tp1822
Rp1823
ag931
(g573
S'\x0f\x00\x00\x00\x00\x00\x00\x00'
p1824
tp1825
Rp1826
ag931
(g573
S'\x14\x00\x00\x00\x00\x00\x00\x00'
p1827
tp1828
Rp1829
ag521
ag931
(g573
S'\x1e\x00\x00\x00\x00\x00\x00\x00'
p1830
tp1831
Rp1832
ag521
ag931
(g573
S'\x14\x00\x00\x00\x00\x00\x00\x00'
p1833
tp1834
Rp1835
ag521
ag521
ag931
(g573
S'\x0f\x00\x00\x00\x00\x00\x00\x00'
p1836
tp1837
Rp1838
ag931
(g573
S'\x1e\x00\x00\x00\x00\x00\x00\x00'
p1839
tp1840
Rp1841
ag931
(g573
S'\x14\x00\x00\x00\x00\x00\x00\x00'
p1842
tp1843
Rp1844
aa(lp1845
g521
ag931
(g573
S'\x19\x00\x00\x00\x00\x00\x00\x00'
p1846
tp1847
Rp1848
ag931
(g573
S'\n\x00\x00\x00\x00\x00\x00\x00'
p1849
tp1850
Rp1851
ag931
(g573
S'\x19\x00\x00\x00\x00\x00\x00\x00'
p1852
tp1853
Rp1854
ag931
(g573
S'\n\x00\x00\x00\x00\x00\x00\x00'
p1855
tp1856
Rp1857
ag931
(g573
S'\x05\x00\x00\x00\x00\x00\x00\x00'
p1858
tp1859
Rp1860
ag521
ag521
ag931
(g573
S'\x05\x00\x00\x00\x00\x00\x00\x00'
p1861
tp1862
Rp1863
ag521
ag521
ag521
ag521
ag931
(g573
S'\x0f\x00\x00\x00\x00\x00\x00\x00'
p1864
tp1865
Rp1866
ag931
(g573
S'\x19\x00\x00\x00\x00\x00\x00\x00'
p1867
tp1868
Rp1869
ag521
ag931
(g573
S'\x19\x00\x00\x00\x00\x00\x00\x00'
p1870
tp1871
Rp1872
ag521
ag521
ag931
(g573
S'\x1e\x00\x00\x00\x00\x00\x00\x00'
p1873
tp1874
Rp1875
ag521
ag931
(g573
S'\x0f\x00\x00\x00\x00\x00\x00\x00'
p1876
tp1877
Rp1878
ag931
(g573
S'\x1e\x00\x00\x00\x00\x00\x00\x00'
p1879
tp1880
Rp1881
ag931
(g573
S'\x14\x00\x00\x00\x00\x00\x00\x00'
p1882
tp1883
Rp1884
ag931
(g573
S'\n\x00\x00\x00\x00\x00\x00\x00'
p1885
tp1886
Rp1887
aa(lp1888
g931
(g573
S'\n\x00\x00\x00\x00\x00\x00\x00'
p1889
tp1890
Rp1891
ag931
(g573
S'\x19\x00\x00\x00\x00\x00\x00\x00'
p1892
tp1893
Rp1894
ag521
ag931
(g573
S'\x05\x00\x00\x00\x00\x00\x00\x00'
p1895
tp1896
Rp1897
ag521
ag521
ag521
ag521
ag931
(g573
S'\x19\x00\x00\x00\x00\x00\x00\x00'
p1898
tp1899
Rp1900
ag931
(g573
S'\x05\x00\x00\x00\x00\x00\x00\x00'
p1901
tp1902
Rp1903
ag931
(g573
S'\x14\x00\x00\x00\x00\x00\x00\x00'
p1904
tp1905
Rp1906
ag931
(g573
S'\x1e\x00\x00\x00\x00\x00\x00\x00'
p1907
tp1908
Rp1909
ag521
ag521
ag931
(g573
S'\n\x00\x00\x00\x00\x00\x00\x00'
p1910
tp1911
Rp1912
ag931
(g573
S'\x1e\x00\x00\x00\x00\x00\x00\x00'
p1913
tp1914
Rp1915
ag931
(g573
S'\x19\x00\x00\x00\x00\x00\x00\x00'
p1916
tp1917
Rp1918
ag521
ag521
ag931
(g573
S'\x14\x00\x00\x00\x00\x00\x00\x00'
p1919
tp1920
Rp1921
ag521
ag521
ag521
ag931
(g573
S'\n\x00\x00\x00\x00\x00\x00\x00'
p1922
tp1923
Rp1924
ag931
(g573
S'\x19\x00\x00\x00\x00\x00\x00\x00'
p1925
tp1926
Rp1927
aa(lp1928
g931
(g573
S'\x1e\x00\x00\x00\x00\x00\x00\x00'
p1929
tp1930
Rp1931
ag931
(g573
S'\x1e\x00\x00\x00\x00\x00\x00\x00'
p1932
tp1933
Rp1934
ag931
(g573
S'\n\x00\x00\x00\x00\x00\x00\x00'
p1935
tp1936
Rp1937
ag931
(g573
S'\x0f\x00\x00\x00\x00\x00\x00\x00'
p1938
tp1939
Rp1940
ag931
(g573
S'\x05\x00\x00\x00\x00\x00\x00\x00'
p1941
tp1942
Rp1943
ag931
(g573
S'\x1e\x00\x00\x00\x00\x00\x00\x00'
p1944
tp1945
Rp1946
ag931
(g573
S'\x14\x00\x00\x00\x00\x00\x00\x00'
p1947
tp1948
Rp1949
ag521
ag521
ag521
ag931
(g573
S'\x19\x00\x00\x00\x00\x00\x00\x00'
p1950
tp1951
Rp1952
ag931
(g573
S'\x1e\x00\x00\x00\x00\x00\x00\x00'
p1953
tp1954
Rp1955
ag521
ag521
ag931
(g573
S'\x14\x00\x00\x00\x00\x00\x00\x00'
p1956
tp1957
Rp1958
ag521
ag931
(g573
S'\x0f\x00\x00\x00\x00\x00\x00\x00'
p1959
tp1960
Rp1961
ag521
ag521
ag931
(g573
S'\x19\x00\x00\x00\x00\x00\x00\x00'
p1962
tp1963
Rp1964
ag521
ag521
ag931
(g573
S'\x1e\x00\x00\x00\x00\x00\x00\x00'
p1965
tp1966
Rp1967
ag931
(g573
S'\x1e\x00\x00\x00\x00\x00\x00\x00'
p1968
tp1969
Rp1970
ag931
(g573
S'\n\x00\x00\x00\x00\x00\x00\x00'
p1971
tp1972
Rp1973
aa(lp1974
g931
(g573
S'\x19\x00\x00\x00\x00\x00\x00\x00'
p1975
tp1976
Rp1977
ag931
(g573
S'\n\x00\x00\x00\x00\x00\x00\x00'
p1978
tp1979
Rp1980
ag931
(g573
S'\x0f\x00\x00\x00\x00\x00\x00\x00'
p1981
tp1982
Rp1983
ag931
(g573
S'\n\x00\x00\x00\x00\x00\x00\x00'
p1984
tp1985
Rp1986
ag931
(g573
S'\x19\x00\x00\x00\x00\x00\x00\x00'
p1987
tp1988
Rp1989
ag931
(g573
S'\x14\x00\x00\x00\x00\x00\x00\x00'
p1990
tp1991
Rp1992
ag521
ag521
ag931
(g573
S'\x0f\x00\x00\x00\x00\x00\x00\x00'
p1993
tp1994
Rp1995
ag521
ag931
(g573
S'\x05\x00\x00\x00\x00\x00\x00\x00'
p1996
tp1997
Rp1998
ag521
ag521
ag521
ag931
(g573
S'\x19\x00\x00\x00\x00\x00\x00\x00'
p1999
tp2000
Rp2001
ag931
(g573
S'\x1e\x00\x00\x00\x00\x00\x00\x00'
p2002
tp2003
Rp2004
ag521
ag521
ag521
ag931
(g573
S'\x14\x00\x00\x00\x00\x00\x00\x00'
p2005
tp2006
Rp2007
ag521
ag521
ag521
ag931
(g573
S'\x05\x00\x00\x00\x00\x00\x00\x00'
p2008
tp2009
Rp2010
ag931
(g573
S'\x19\x00\x00\x00\x00\x00\x00\x00'
p2011
tp2012
Rp2013
aa(lp2014
g521
ag931
(g573
S'\x0f\x00\x00\x00\x00\x00\x00\x00'
p2015
tp2016
Rp2017
ag521
ag521
ag931
(g573
S'\x05\x00\x00\x00\x00\x00\x00\x00'
p2018
tp2019
Rp2020
ag931
(g573
S'\x05\x00\x00\x00\x00\x00\x00\x00'
p2021
tp2022
Rp2023
ag931
(g573
S'\x19\x00\x00\x00\x00\x00\x00\x00'
p2024
tp2025
Rp2026
ag931
(g573
S'\n\x00\x00\x00\x00\x00\x00\x00'
p2027
tp2028
Rp2029
ag931
(g573
S'\n\x00\x00\x00\x00\x00\x00\x00'
p2030
tp2031
Rp2032
ag931
(g573
S'\x05\x00\x00\x00\x00\x00\x00\x00'
p2033
tp2034
Rp2035
ag931
(g573
S'\x14\x00\x00\x00\x00\x00\x00\x00'
p2036
tp2037
Rp2038
ag931
(g573
S'\n\x00\x00\x00\x00\x00\x00\x00'
p2039
tp2040
Rp2041
ag931
(g573
S'\x05\x00\x00\x00\x00\x00\x00\x00'
p2042
tp2043
Rp2044
ag521
ag931
(g573
S'\n\x00\x00\x00\x00\x00\x00\x00'
p2045
tp2046
Rp2047
ag521
ag521
ag521
ag521
ag931
(g573
S'\x19\x00\x00\x00\x00\x00\x00\x00'
p2048
tp2049
Rp2050
ag521
ag521
ag521
ag521
ag931
(g573
S'\x0f\x00\x00\x00\x00\x00\x00\x00'
p2051
tp2052
Rp2053
aa(lp2054
g521
ag931
(g573
S'\x0f\x00\x00\x00\x00\x00\x00\x00'
p2055
tp2056
Rp2057
ag931
(g573
S'\x19\x00\x00\x00\x00\x00\x00\x00'
p2058
tp2059
Rp2060
ag931
(g573
S'\n\x00\x00\x00\x00\x00\x00\x00'
p2061
tp2062
Rp2063
ag931
(g573
S'\x19\x00\x00\x00\x00\x00\x00\x00'
p2064
tp2065
Rp2066
ag931
(g573
S'\x05\x00\x00\x00\x00\x00\x00\x00'
p2067
tp2068
Rp2069
ag931
(g573
S'\x0f\x00\x00\x00\x00\x00\x00\x00'
p2070
tp2071
Rp2072
ag521
ag931
(g573
S'\n\x00\x00\x00\x00\x00\x00\x00'
p2073
tp2074
Rp2075
ag931
(g573
S'\x14\x00\x00\x00\x00\x00\x00\x00'
p2076
tp2077
Rp2078
ag931
(g573
S'\x0f\x00\x00\x00\x00\x00\x00\x00'
p2079
tp2080
Rp2081
ag931
(g573
S'\n\x00\x00\x00\x00\x00\x00\x00'
p2082
tp2083
Rp2084
ag521
ag521
ag521
ag521
ag931
(g573
S'\x14\x00\x00\x00\x00\x00\x00\x00'
p2085
tp2086
Rp2087
ag521
ag521
ag931
(g573
S'\x0f\x00\x00\x00\x00\x00\x00\x00'
p2088
tp2089
Rp2090
ag931
(g573
S'\x19\x00\x00\x00\x00\x00\x00\x00'
p2091
tp2092
Rp2093
ag521
ag521
ag931
(g573
S'\x05\x00\x00\x00\x00\x00\x00\x00'
p2094
tp2095
Rp2096
ag521
aa(lp2097
g931
(g573
S'\x1e\x00\x00\x00\x00\x00\x00\x00'
p2098
tp2099
Rp2100
ag931
(g573
S'\n\x00\x00\x00\x00\x00\x00\x00'
p2101
tp2102
Rp2103
ag521
ag931
(g573
S'\x19\x00\x00\x00\x00\x00\x00\x00'
p2104
tp2105
Rp2106
ag521
ag931
(g573
S'\x14\x00\x00\x00\x00\x00\x00\x00'
p2107
tp2108
Rp2109
ag521
ag931
(g573
S'\x0f\x00\x00\x00\x00\x00\x00\x00'
p2110
tp2111
Rp2112
ag931
(g573
S'\x19\x00\x00\x00\x00\x00\x00\x00'
p2113
tp2114
Rp2115
ag521
ag931
(g573
S'\x0f\x00\x00\x00\x00\x00\x00\x00'
p2116
tp2117
Rp2118
ag521
ag931
(g573
S'\x0f\x00\x00\x00\x00\x00\x00\x00'
p2119
tp2120
Rp2121
ag521
ag521
ag521
ag931
(g573
S'\x0f\x00\x00\x00\x00\x00\x00\x00'
p2122
tp2123
Rp2124
ag521
ag521
ag931
(g573
S'\n\x00\x00\x00\x00\x00\x00\x00'
p2125
tp2126
Rp2127
ag521
ag521
ag931
(g573
S'\x19\x00\x00\x00\x00\x00\x00\x00'
p2128
tp2129
Rp2130
ag931
(g573
S'\n\x00\x00\x00\x00\x00\x00\x00'
p2131
tp2132
Rp2133
ag521
aa(lp2134
g931
(g573
S'\x05\x00\x00\x00\x00\x00\x00\x00'
p2135
tp2136
Rp2137
ag521
ag931
(g573
S'\x14\x00\x00\x00\x00\x00\x00\x00'
p2138
tp2139
Rp2140
ag931
(g573
S'\x14\x00\x00\x00\x00\x00\x00\x00'
p2141
tp2142
Rp2143
ag521
ag521
ag931
(g573
S'\x0f\x00\x00\x00\x00\x00\x00\x00'
p2144
tp2145
Rp2146
ag521
ag931
(g573
S'\x1e\x00\x00\x00\x00\x00\x00\x00'
p2147
tp2148
Rp2149
ag931
(g573
S'\x1e\x00\x00\x00\x00\x00\x00\x00'
p2150
tp2151
Rp2152
ag521
ag931
(g573
S'\n\x00\x00\x00\x00\x00\x00\x00'
p2153
tp2154
Rp2155
ag521
ag521
ag521
ag931
(g573
S'\n\x00\x00\x00\x00\x00\x00\x00'
p2156
tp2157
Rp2158
ag931
(g573
S'\x05\x00\x00\x00\x00\x00\x00\x00'
p2159
tp2160
Rp2161
ag521
ag521
ag521
ag931
(g573
S'\x19\x00\x00\x00\x00\x00\x00\x00'
p2162
tp2163
Rp2164
ag521
ag931
(g573
S'\x1e\x00\x00\x00\x00\x00\x00\x00'
p2165
tp2166
Rp2167
ag931
(g573
S'\x0f\x00\x00\x00\x00\x00\x00\x00'
p2168
tp2169
Rp2170
ag931
(g573
S'\x19\x00\x00\x00\x00\x00\x00\x00'
p2171
tp2172
Rp2173
aa(lp2174
g521
ag931
(g573
S'\x05\x00\x00\x00\x00\x00\x00\x00'
p2175
tp2176
Rp2177
ag521
ag931
(g573
S'\x14\x00\x00\x00\x00\x00\x00\x00'
p2178
tp2179
Rp2180
ag931
(g573
S'\x19\x00\x00\x00\x00\x00\x00\x00'
p2181
tp2182
Rp2183
ag931
(g573
S'\x14\x00\x00\x00\x00\x00\x00\x00'
p2184
tp2185
Rp2186
ag931
(g573
S'\x14\x00\x00\x00\x00\x00\x00\x00'
p2187
tp2188
Rp2189
ag521
ag521
ag521
ag931
(g573
S'\x14\x00\x00\x00\x00\x00\x00\x00'
p2190
tp2191
Rp2192
ag521
ag521
ag521
ag931
(g573
S'\x05\x00\x00\x00\x00\x00\x00\x00'
p2193
tp2194
Rp2195
ag521
ag931
(g573
S'\x19\x00\x00\x00\x00\x00\x00\x00'
p2196
tp2197
Rp2198
ag521
ag521
ag931
(g573
S'\x14\x00\x00\x00\x00\x00\x00\x00'
p2199
tp2200
Rp2201
ag521
ag521
ag931
(g573
S'\x14\x00\x00\x00\x00\x00\x00\x00'
p2202
tp2203
Rp2204
ag521
ag931
(g573
S'\x19\x00\x00\x00\x00\x00\x00\x00'
p2205
tp2206
Rp2207
aa(lp2208
g521
ag931
(g573
S'\x05\x00\x00\x00\x00\x00\x00\x00'
p2209
tp2210
Rp2211
ag931
(g573
S'\x0f\x00\x00\x00\x00\x00\x00\x00'
p2212
tp2213
Rp2214
ag931
(g573
S'\x14\x00\x00\x00\x00\x00\x00\x00'
p2215
tp2216
Rp2217
ag931
(g573
S'\n\x00\x00\x00\x00\x00\x00\x00'
p2218
tp2219
Rp2220
ag931
(g573
S'\x05\x00\x00\x00\x00\x00\x00\x00'
p2221
tp2222
Rp2223
ag931
(g573
S'\n\x00\x00\x00\x00\x00\x00\x00'
p2224
tp2225
Rp2226
ag521
ag521
ag521
ag521
ag931
(g573
S'\x05\x00\x00\x00\x00\x00\x00\x00'
p2227
tp2228
Rp2229
ag931
(g573
S'\x0f\x00\x00\x00\x00\x00\x00\x00'
p2230
tp2231
Rp2232
ag521
ag931
(g573
S'\x1e\x00\x00\x00\x00\x00\x00\x00'
p2233
tp2234
Rp2235
ag931
(g573
S'\n\x00\x00\x00\x00\x00\x00\x00'
p2236
tp2237
Rp2238
ag931
(g573
S'\n\x00\x00\x00\x00\x00\x00\x00'
p2239
tp2240
Rp2241
ag521
ag521
ag521
ag521
ag521
ag931
(g573
S'\x19\x00\x00\x00\x00\x00\x00\x00'
p2242
tp2243
Rp2244
ag931
(g573
S'\x19\x00\x00\x00\x00\x00\x00\x00'
p2245
tp2246
Rp2247
ag931
(g573
S'\n\x00\x00\x00\x00\x00\x00\x00'
p2248
tp2249
Rp2250
aa(lp2251
g931
(g573
S'\x1e\x00\x00\x00\x00\x00\x00\x00'
p2252
tp2253
Rp2254
ag931
(g573
S'\x1e\x00\x00\x00\x00\x00\x00\x00'
p2255
tp2256
Rp2257
ag931
(g573
S'\n\x00\x00\x00\x00\x00\x00\x00'
p2258
tp2259
Rp2260
ag931
(g573
S'\x05\x00\x00\x00\x00\x00\x00\x00'
p2261
tp2262
Rp2263
ag931
(g573
S'\x1e\x00\x00\x00\x00\x00\x00\x00'
p2264
tp2265
Rp2266
ag521
ag521
ag521
ag521
ag931
(g573
S'\x0f\x00\x00\x00\x00\x00\x00\x00'
p2267
tp2268
Rp2269
ag521
ag521
ag931
(g573
S'\x19\x00\x00\x00\x00\x00\x00\x00'
p2270
tp2271
Rp2272
ag521
ag521
ag521
ag931
(g573
S'\x14\x00\x00\x00\x00\x00\x00\x00'
p2273
tp2274
Rp2275
ag521
ag521
ag931
(g573
S'\x0f\x00\x00\x00\x00\x00\x00\x00'
p2276
tp2277
Rp2278
ag521
ag521
ag521
ag521
ag931
(g573
S'\n\x00\x00\x00\x00\x00\x00\x00'
p2279
tp2280
Rp2281
aa(lp2282
g521
ag931
(g573
S'\x0f\x00\x00\x00\x00\x00\x00\x00'
p2283
tp2284
Rp2285
ag521
ag931
(g573
S'\x19\x00\x00\x00\x00\x00\x00\x00'
p2286
tp2287
Rp2288
ag521
ag521
ag521
ag521
ag931
(g573
S'\x0f\x00\x00\x00\x00\x00\x00\x00'
p2289
tp2290
Rp2291
ag931
(g573
S'\x14\x00\x00\x00\x00\x00\x00\x00'
p2292
tp2293
Rp2294
ag931
(g573
S'\x05\x00\x00\x00\x00\x00\x00\x00'
p2295
tp2296
Rp2297
ag931
(g573
S'\x05\x00\x00\x00\x00\x00\x00\x00'
p2298
tp2299
Rp2300
ag521
ag521
ag931
(g573
S'\n\x00\x00\x00\x00\x00\x00\x00'
p2301
tp2302
Rp2303
ag931
(g573
S'\x14\x00\x00\x00\x00\x00\x00\x00'
p2304
tp2305
Rp2306
ag931
(g573
S'\x19\x00\x00\x00\x00\x00\x00\x00'
p2307
tp2308
Rp2309
ag521
ag521
ag931
(g573
S'\x19\x00\x00\x00\x00\x00\x00\x00'
p2310
tp2311
Rp2312
ag521
ag521
ag931
(g573
S'\x05\x00\x00\x00\x00\x00\x00\x00'
p2313
tp2314
Rp2315
ag931
(g573
S'\x14\x00\x00\x00\x00\x00\x00\x00'
p2316
tp2317
Rp2318
ag931
(g573
S'\x05\x00\x00\x00\x00\x00\x00\x00'
p2319
tp2320
Rp2321
aa(lp2322
g931
(g573
S'\n\x00\x00\x00\x00\x00\x00\x00'
p2323
tp2324
Rp2325
ag521
ag931
(g573
S'\x14\x00\x00\x00\x00\x00\x00\x00'
p2326
tp2327
Rp2328
ag931
(g573
S'\n\x00\x00\x00\x00\x00\x00\x00'
p2329
tp2330
Rp2331
ag521
ag521
ag521
ag521
ag931
(g573
S'\n\x00\x00\x00\x00\x00\x00\x00'
p2332
tp2333
Rp2334
ag521
ag521
ag931
(g573
S'\x1e\x00\x00\x00\x00\x00\x00\x00'
p2335
tp2336
Rp2337
ag931
(g573
S'\x14\x00\x00\x00\x00\x00\x00\x00'
p2338
tp2339
Rp2340
ag521
ag521
ag931
(g573
S'\n\x00\x00\x00\x00\x00\x00\x00'
p2341
tp2342
Rp2343
ag931
(g573
S'\n\x00\x00\x00\x00\x00\x00\x00'
p2344
tp2345
Rp2346
ag521
ag931
(g573
S'\x14\x00\x00\x00\x00\x00\x00\x00'
p2347
tp2348
Rp2349
ag521
ag521
ag521
ag931
(g573
S'\x14\x00\x00\x00\x00\x00\x00\x00'
p2350
tp2351
Rp2352
ag521
ag931
(g573
S'\x1e\x00\x00\x00\x00\x00\x00\x00'
p2353
tp2354
Rp2355
aa(lp2356
g521
ag521
ag931
(g573
S'\x19\x00\x00\x00\x00\x00\x00\x00'
p2357
tp2358
Rp2359
ag931
(g573
S'\x1e\x00\x00\x00\x00\x00\x00\x00'
p2360
tp2361
Rp2362
ag931
(g573
S'\x14\x00\x00\x00\x00\x00\x00\x00'
p2363
tp2364
Rp2365
ag521
ag521
ag521
ag931
(g573
S'\n\x00\x00\x00\x00\x00\x00\x00'
p2366
tp2367
Rp2368
ag521
ag931
(g573
S'\n\x00\x00\x00\x00\x00\x00\x00'
p2369
tp2370
Rp2371
ag521
ag521
ag521
ag931
(g573
S'\x19\x00\x00\x00\x00\x00\x00\x00'
p2372
tp2373
Rp2374
ag931
(g573
S'\n\x00\x00\x00\x00\x00\x00\x00'
p2375
tp2376
Rp2377
ag931
(g573
S'\n\x00\x00\x00\x00\x00\x00\x00'
p2378
tp2379
Rp2380
ag521
ag521
ag931
(g573
S'\x1e\x00\x00\x00\x00\x00\x00\x00'
p2381
tp2382
Rp2383
ag521
ag931
(g573
S'\x05\x00\x00\x00\x00\x00\x00\x00'
p2384
tp2385
Rp2386
ag931
(g573
S'\x1e\x00\x00\x00\x00\x00\x00\x00'
p2387
tp2388
Rp2389
ag521
ag931
(g573
S'\x14\x00\x00\x00\x00\x00\x00\x00'
p2390
tp2391
Rp2392
aasS'Pf'
p2393
(lp2394
(lp2395
g931
(g570
(S'S3'
p2396
I0
I1
tp2397
Rp2398
(I3
S'|'
p2399
NNNI3
I1
I0
tp2400
bS'P28'
p2401
tp2402
Rp2403
ag931
(g570
(S'S3'
p2404
I0
I1
tp2405
Rp2406
(I3
S'|'
p2407
NNNI3
I1
I0
tp2408
bS'P25'
p2409
tp2410
Rp2411
ag931
(g570
(S'S3'
p2412
I0
I1
tp2413
Rp2414
(I3
S'|'
p2415
NNNI3
I1
I0
tp2416
bS'P23'
p2417
tp2418
Rp2419
ag931
(g570
(S'S3'
p2420
I0
I1
tp2421
Rp2422
(I3
S'|'
p2423
NNNI3
I1
I0
tp2424
bS'P30'
p2425
tp2426
Rp2427
ag931
(g570
(S'S2'
p2428
I0
I1
tp2429
Rp2430
(I3
S'|'
p2431
NNNI2
I1
I0
tp2432
bS'P6'
p2433
tp2434
Rp2435
ag931
(g570
(S'S3'
p2436
I0
I1
tp2437
Rp2438
(I3
S'|'
p2439
NNNI3
I1
I0
tp2440
bS'P16'
p2441
tp2442
Rp2443
ag931
(g570
(S'S3'
p2444
I0
I1
tp2445
Rp2446
(I3
S'|'
p2447
NNNI3
I1
I0
tp2448
bS'P20'
p2449
tp2450
Rp2451
ag931
(g570
(S'S3'
p2452
I0
I1
tp2453
Rp2454
(I3
S'|'
p2455
NNNI3
I1
I0
tp2456
bS'P29'
p2457
tp2458
Rp2459
ag931
(g570
(S'S3'
p2460
I0
I1
tp2461
Rp2462
(I3
S'|'
p2463
NNNI3
I1
I0
tp2464
bS'P37'
p2465
tp2466
Rp2467
ag931
(g570
(S'S3'
p2468
I0
I1
tp2469
Rp2470
(I3
S'|'
p2471
NNNI3
I1
I0
tp2472
bS'P39'
p2473
tp2474
Rp2475
ag931
(g570
(S'S3'
p2476
I0
I1
tp2477
Rp2478
(I3
S'|'
p2479
NNNI3
I1
I0
tp2480
bS'P18'
p2481
tp2482
Rp2483
ag931
(g570
(S'S3'
p2484
I0
I1
tp2485
Rp2486
(I3
S'|'
p2487
NNNI3
I1
I0
tp2488
bS'P19'
p2489
tp2490
Rp2491
ag931
(g570
(S'S3'
p2492
I0
I1
tp2493
Rp2494
(I3
S'|'
p2495
NNNI3
I1
I0
tp2496
bS'P34'
p2497
tp2498
Rp2499
ag931
(g570
(S'S3'
p2500
I0
I1
tp2501
Rp2502
(I3
S'|'
p2503
NNNI3
I1
I0
tp2504
bS'P33'
p2505
tp2506
Rp2507
ag931
(g570
(S'S2'
p2508
I0
I1
tp2509
Rp2510
(I3
S'|'
p2511
NNNI2
I1
I0
tp2512
bS'P7'
p2513
tp2514
Rp2515
ag931
(g570
(S'S2'
p2516
I0
I1
tp2517
Rp2518
(I3
S'|'
p2519
NNNI2
I1
I0
tp2520
bS'P8'
p2521
tp2522
Rp2523
aa(lp2524
g931
(g570
(S'S3'
p2525
I0
I1
tp2526
Rp2527
(I3
S'|'
p2528
NNNI3
I1
I0
tp2529
bS'P35'
p2530
tp2531
Rp2532
ag931
(g570
(S'S3'
p2533
I0
I1
tp2534
Rp2535
(I3
S'|'
p2536
NNNI3
I1
I0
tp2537
bS'P17'
p2538
tp2539
Rp2540
ag931
(g570
(S'S3'
p2541
I0
I1
tp2542
Rp2543
(I3
S'|'
p2544
NNNI3
I1
I0
tp2545
bS'P30'
p2546
tp2547
Rp2548
ag931
(g570
(S'S3'
p2549
I0
I1
tp2550
Rp2551
(I3
S'|'
p2552
NNNI3
I1
I0
tp2553
bS'P26'
p2554
tp2555
Rp2556
ag931
(g570
(S'S3'
p2557
I0
I1
tp2558
Rp2559
(I3
S'|'
p2560
NNNI3
I1
I0
tp2561
bS'P29'
p2562
tp2563
Rp2564
ag931
(g570
(S'S3'
p2565
I0
I1
tp2566
Rp2567
(I3
S'|'
p2568
NNNI3
I1
I0
tp2569
bS'P15'
p2570
tp2571
Rp2572
ag931
(g570
(S'S2'
p2573
I0
I1
tp2574
Rp2575
(I3
S'|'
p2576
NNNI2
I1
I0
tp2577
bS'P1'
p2578
tp2579
Rp2580
ag931
(g570
(S'S3'
p2581
I0
I1
tp2582
Rp2583
(I3
S'|'
p2584
NNNI3
I1
I0
tp2585
bS'P16'
p2586
tp2587
Rp2588
ag931
(g570
(S'S3'
p2589
I0
I1
tp2590
Rp2591
(I3
S'|'
p2592
NNNI3
I1
I0
tp2593
bS'P31'
p2594
tp2595
Rp2596
ag931
(g570
(S'S3'
p2597
I0
I1
tp2598
Rp2599
(I3
S'|'
p2600
NNNI3
I1
I0
tp2601
bS'P33'
p2602
tp2603
Rp2604
ag931
(g570
(S'S3'
p2605
I0
I1
tp2606
Rp2607
(I3
S'|'
p2608
NNNI3
I1
I0
tp2609
bS'P36'
p2610
tp2611
Rp2612
ag931
(g570
(S'S3'
p2613
I0
I1
tp2614
Rp2615
(I3
S'|'
p2616
NNNI3
I1
I0
tp2617
bS'P37'
p2618
tp2619
Rp2620
ag931
(g570
(S'S3'
p2621
I0
I1
tp2622
Rp2623
(I3
S'|'
p2624
NNNI3
I1
I0
tp2625
bS'P19'
p2626
tp2627
Rp2628
ag931
(g570
(S'S2'
p2629
I0
I1
tp2630
Rp2631
(I3
S'|'
p2632
NNNI2
I1
I0
tp2633
bS'P5'
p2634
tp2635
Rp2636
ag931
(g570
(S'S2'
p2637
I0
I1
tp2638
Rp2639
(I3
S'|'
p2640
NNNI2
I1
I0
tp2641
bS'P3'
p2642
tp2643
Rp2644
ag931
(g570
(S'S3'
p2645
I0
I1
tp2646
Rp2647
(I3
S'|'
p2648
NNNI3
I1
I0
tp2649
bS'P32'
p2650
tp2651
Rp2652
ag931
(g570
(S'S3'
p2653
I0
I1
tp2654
Rp2655
(I3
S'|'
p2656
NNNI3
I1
I0
tp2657
bS'P28'
p2658
tp2659
Rp2660
ag931
(g570
(S'S3'
p2661
I0
I1
tp2662
Rp2663
(I3
S'|'
p2664
NNNI3
I1
I0
tp2665
bS'P13'
p2666
tp2667
Rp2668
ag931
(g570
(S'S3'
p2669
I0
I1
tp2670
Rp2671
(I3
S'|'
p2672
NNNI3
I1
I0
tp2673
bS'P18'
p2674
tp2675
Rp2676
ag931
(g570
(S'S3'
p2677
I0
I1
tp2678
Rp2679
(I3
S'|'
p2680
NNNI3
I1
I0
tp2681
bS'P24'
p2682
tp2683
Rp2684
ag931
(g570
(S'S3'
p2685
I0
I1
tp2686
Rp2687
(I3
S'|'
p2688
NNNI3
I1
I0
tp2689
bS'P38'
p2690
tp2691
Rp2692
ag931
(g570
(S'S2'
p2693
I0
I1
tp2694
Rp2695
(I3
S'|'
p2696
NNNI2
I1
I0
tp2697
bS'P6'
p2698
tp2699
Rp2700
ag931
(g570
(S'S2'
p2701
I0
I1
tp2702
Rp2703
(I3
S'|'
p2704
NNNI2
I1
I0
tp2705
bS'P2'
p2706
tp2707
Rp2708
ag931
(g570
(S'S2'
p2709
I0
I1
tp2710
Rp2711
(I3
S'|'
p2712
NNNI2
I1
I0
tp2713
bS'P4'
p2714
tp2715
Rp2716
ag931
(g570
(S'S3'
p2717
I0
I1
tp2718
Rp2719
(I3
S'|'
p2720
NNNI3
I1
I0
tp2721
bS'P14'
p2722
tp2723
Rp2724
ag931
(g570
(S'S3'
p2725
I0
I1
tp2726
Rp2727
(I3
S'|'
p2728
NNNI3
I1
I0
tp2729
bS'P25'
p2730
tp2731
Rp2732
ag931
(g570
(S'S2'
p2733
I0
I1
tp2734
Rp2735
(I3
S'|'
p2736
NNNI2
I1
I0
tp2737
bS'P7'
p2738
tp2739
Rp2740
ag931
(g570
(S'S3'
p2741
I0
I1
tp2742
Rp2743
(I3
S'|'
p2744
NNNI3
I1
I0
tp2745
bS'P27'
p2746
tp2747
Rp2748
ag931
(g570
(S'S3'
p2749
I0
I1
tp2750
Rp2751
(I3
S'|'
p2752
NNNI3
I1
I0
tp2753
bS'P22'
p2754
tp2755
Rp2756
ag931
(g570
(S'S3'
p2757
I0
I1
tp2758
Rp2759
(I3
S'|'
p2760
NNNI3
I1
I0
tp2761
bS'P23'
p2762
tp2763
Rp2764
aa(lp2765
g931
(g570
(S'S3'
p2766
I0
I1
tp2767
Rp2768
(I3
S'|'
p2769
NNNI3
I1
I0
tp2770
bS'P32'
p2771
tp2772
Rp2773
ag931
(g570
(S'S3'
p2774
I0
I1
tp2775
Rp2776
(I3
S'|'
p2777
NNNI3
I1
I0
tp2778
bS'P29'
p2779
tp2780
Rp2781
ag931
(g570
(S'S3'
p2782
I0
I1
tp2783
Rp2784
(I3
S'|'
p2785
NNNI3
I1
I0
tp2786
bS'P27'
p2787
tp2788
Rp2789
ag931
(g570
(S'S3'
p2790
I0
I1
tp2791
Rp2792
(I3
S'|'
p2793
NNNI3
I1
I0
tp2794
bS'P16'
p2795
tp2796
Rp2797
ag931
(g570
(S'S3'
p2798
I0
I1
tp2799
Rp2800
(I3
S'|'
p2801
NNNI3
I1
I0
tp2802
bS'P37'
p2803
tp2804
Rp2805
ag931
(g570
(S'S3'
p2806
I0
I1
tp2807
Rp2808
(I3
S'|'
p2809
NNNI3
I1
I0
tp2810
bS'P11'
p2811
tp2812
Rp2813
ag931
(g570
(S'S2'
p2814
I0
I1
tp2815
Rp2816
(I3
S'|'
p2817
NNNI2
I1
I0
tp2818
bS'P3'
p2819
tp2820
Rp2821
ag931
(g570
(S'S3'
p2822
I0
I1
tp2823
Rp2824
(I3
S'|'
p2825
NNNI3
I1
I0
tp2826
bS'P39'
p2827
tp2828
Rp2829
ag931
(g570
(S'S3'
p2830
I0
I1
tp2831
Rp2832
(I3
S'|'
p2833
NNNI3
I1
I0
tp2834
bS'P17'
p2835
tp2836
Rp2837
ag931
(g570
(S'S3'
p2838
I0
I1
tp2839
Rp2840
(I3
S'|'
p2841
NNNI3
I1
I0
tp2842
bS'P22'
p2843
tp2844
Rp2845
ag931
(g570
(S'S3'
p2846
I0
I1
tp2847
Rp2848
(I3
S'|'
p2849
NNNI3
I1
I0
tp2850
bS'P13'
p2851
tp2852
Rp2853
ag931
(g570
(S'S2'
p2854
I0
I1
tp2855
Rp2856
(I3
S'|'
p2857
NNNI2
I1
I0
tp2858
bS'P5'
p2859
tp2860
Rp2861
ag931
(g570
(S'S3'
p2862
I0
I1
tp2863
Rp2864
(I3
S'|'
p2865
NNNI3
I1
I0
tp2866
bS'P14'
p2867
tp2868
Rp2869
ag931
(g570
(S'S2'
p2870
I0
I1
tp2871
Rp2872
(I3
S'|'
p2873
NNNI2
I1
I0
tp2874
bS'P9'
p2875
tp2876
Rp2877
ag931
(g570
(S'S3'
p2878
I0
I1
tp2879
Rp2880
(I3
S'|'
p2881
NNNI3
I1
I0
tp2882
bS'P34'
p2883
tp2884
Rp2885
ag931
(g570
(S'S3'
p2886
I0
I1
tp2887
Rp2888
(I3
S'|'
p2889
NNNI3
I1
I0
tp2890
bS'P15'
p2891
tp2892
Rp2893
ag931
(g570
(S'S3'
p2894
I0
I1
tp2895
Rp2896
(I3
S'|'
p2897
NNNI3
I1
I0
tp2898
bS'P21'
p2899
tp2900
Rp2901
ag931
(g570
(S'S3'
p2902
I0
I1
tp2903
Rp2904
(I3
S'|'
p2905
NNNI3
I1
I0
tp2906
bS'P12'
p2907
tp2908
Rp2909
ag931
(g570
(S'S2'
p2910
I0
I1
tp2911
Rp2912
(I3
S'|'
p2913
NNNI2
I1
I0
tp2914
bS'P2'
p2915
tp2916
Rp2917
ag931
(g570
(S'S3'
p2918
I0
I1
tp2919
Rp2920
(I3
S'|'
p2921
NNNI3
I1
I0
tp2922
bS'P25'
p2923
tp2924
Rp2925
ag931
(g570
(S'S2'
p2926
I0
I1
tp2927
Rp2928
(I3
S'|'
p2929
NNNI2
I1
I0
tp2930
bS'P4'
p2931
tp2932
Rp2933
ag931
(g570
(S'S3'
p2934
I0
I1
tp2935
Rp2936
(I3
S'|'
p2937
NNNI3
I1
I0
tp2938
bS'P40'
p2939
tp2940
Rp2941
ag931
(g570
(S'S3'
p2942
I0
I1
tp2943
Rp2944
(I3
S'|'
p2945
NNNI3
I1
I0
tp2946
bS'P36'
p2947
tp2948
Rp2949
ag931
(g570
(S'S3'
p2950
I0
I1
tp2951
Rp2952
(I3
S'|'
p2953
NNNI3
I1
I0
tp2954
bS'P26'
p2955
tp2956
Rp2957
ag931
(g570
(S'S3'
p2958
I0
I1
tp2959
Rp2960
(I3
S'|'
p2961
NNNI3
I1
I0
tp2962
bS'P30'
p2963
tp2964
Rp2965
ag931
(g570
(S'S3'
p2966
I0
I1
tp2967
Rp2968
(I3
S'|'
p2969
NNNI3
I1
I0
tp2970
bS'P23'
p2971
tp2972
Rp2973
ag931
(g570
(S'S3'
p2974
I0
I1
tp2975
Rp2976
(I3
S'|'
p2977
NNNI3
I1
I0
tp2978
bS'P24'
p2979
tp2980
Rp2981
aa(lp2982
g931
(g570
(S'S3'
p2983
I0
I1
tp2984
Rp2985
(I3
S'|'
p2986
NNNI3
I1
I0
tp2987
bS'P28'
p2988
tp2989
Rp2990
ag931
(g570
(S'S3'
p2991
I0
I1
tp2992
Rp2993
(I3
S'|'
p2994
NNNI3
I1
I0
tp2995
bS'P24'
p2996
tp2997
Rp2998
ag931
(g570
(S'S2'
p2999
I0
I1
tp3000
Rp3001
(I3
S'|'
p3002
NNNI2
I1
I0
tp3003
bS'P9'
p3004
tp3005
Rp3006
ag931
(g570
(S'S2'
p3007
I0
I1
tp3008
Rp3009
(I3
S'|'
p3010
NNNI2
I1
I0
tp3011
bS'P6'
p3012
tp3013
Rp3014
ag931
(g570
(S'S3'
p3015
I0
I1
tp3016
Rp3017
(I3
S'|'
p3018
NNNI3
I1
I0
tp3019
bS'P25'
p3020
tp3021
Rp3022
ag931
(g570
(S'S3'
p3023
I0
I1
tp3024
Rp3025
(I3
S'|'
p3026
NNNI3
I1
I0
tp3027
bS'P18'
p3028
tp3029
Rp3030
ag931
(g570
(S'S2'
p3031
I0
I1
tp3032
Rp3033
(I3
S'|'
p3034
NNNI2
I1
I0
tp3035
bS'P3'
p3036
tp3037
Rp3038
ag931
(g570
(S'S3'
p3039
I0
I1
tp3040
Rp3041
(I3
S'|'
p3042
NNNI3
I1
I0
tp3043
bS'P26'
p3044
tp3045
Rp3046
ag931
(g570
(S'S3'
p3047
I0
I1
tp3048
Rp3049
(I3
S'|'
p3050
NNNI3
I1
I0
tp3051
bS'P10'
p3052
tp3053
Rp3054
ag931
(g570
(S'S3'
p3055
I0
I1
tp3056
Rp3057
(I3
S'|'
p3058
NNNI3
I1
I0
tp3059
bS'P14'
p3060
tp3061
Rp3062
ag931
(g570
(S'S3'
p3063
I0
I1
tp3064
Rp3065
(I3
S'|'
p3066
NNNI3
I1
I0
tp3067
bS'P33'
p3068
tp3069
Rp3070
ag931
(g570
(S'S3'
p3071
I0
I1
tp3072
Rp3073
(I3
S'|'
p3074
NNNI3
I1
I0
tp3075
bS'P34'
p3076
tp3077
Rp3078
ag931
(g570
(S'S3'
p3079
I0
I1
tp3080
Rp3081
(I3
S'|'
p3082
NNNI3
I1
I0
tp3083
bS'P35'
p3084
tp3085
Rp3086
ag931
(g570
(S'S3'
p3087
I0
I1
tp3088
Rp3089
(I3
S'|'
p3090
NNNI3
I1
I0
tp3091
bS'P36'
p3092
tp3093
Rp3094
ag931
(g570
(S'S3'
p3095
I0
I1
tp3096
Rp3097
(I3
S'|'
p3098
NNNI3
I1
I0
tp3099
bS'P20'
p3100
tp3101
Rp3102
ag931
(g570
(S'S3'
p3103
I0
I1
tp3104
Rp3105
(I3
S'|'
p3106
NNNI3
I1
I0
tp3107
bS'P29'
p3108
tp3109
Rp3110
ag931
(g570
(S'S3'
p3111
I0
I1
tp3112
Rp3113
(I3
S'|'
p3114
NNNI3
I1
I0
tp3115
bS'P15'
p3116
tp3117
Rp3118
ag931
(g570
(S'S3'
p3119
I0
I1
tp3120
Rp3121
(I3
S'|'
p3122
NNNI3
I1
I0
tp3123
bS'P16'
p3124
tp3125
Rp3126
ag931
(g570
(S'S3'
p3127
I0
I1
tp3128
Rp3129
(I3
S'|'
p3130
NNNI3
I1
I0
tp3131
bS'P40'
p3132
tp3133
Rp3134
ag931
(g570
(S'S3'
p3135
I0
I1
tp3136
Rp3137
(I3
S'|'
p3138
NNNI3
I1
I0
tp3139
bS'P37'
p3140
tp3141
Rp3142
ag931
(g570
(S'S3'
p3143
I0
I1
tp3144
Rp3145
(I3
S'|'
p3146
NNNI3
I1
I0
tp3147
bS'P19'
p3148
tp3149
Rp3150
ag931
(g570
(S'S3'
p3151
I0
I1
tp3152
Rp3153
(I3
S'|'
p3154
NNNI3
I1
I0
tp3155
bS'P22'
p3156
tp3157
Rp3158
ag931
(g570
(S'S3'
p3159
I0
I1
tp3160
Rp3161
(I3
S'|'
p3162
NNNI3
I1
I0
tp3163
bS'P30'
p3164
tp3165
Rp3166
ag931
(g570
(S'S3'
p3167
I0
I1
tp3168
Rp3169
(I3
S'|'
p3170
NNNI3
I1
I0
tp3171
bS'P21'
p3172
tp3173
Rp3174
ag931
(g570
(S'S3'
p3175
I0
I1
tp3176
Rp3177
(I3
S'|'
p3178
NNNI3
I1
I0
tp3179
bS'P39'
p3180
tp3181
Rp3182
ag931
(g570
(S'S3'
p3183
I0
I1
tp3184
Rp3185
(I3
S'|'
p3186
NNNI3
I1
I0
tp3187
bS'P38'
p3188
tp3189
Rp3190
ag931
(g570
(S'S3'
p3191
I0
I1
tp3192
Rp3193
(I3
S'|'
p3194
NNNI3
I1
I0
tp3195
bS'P23'
p3196
tp3197
Rp3198
ag931
(g570
(S'S3'
p3199
I0
I1
tp3200
Rp3201
(I3
S'|'
p3202
NNNI3
I1
I0
tp3203
bS'P17'
p3204
tp3205
Rp3206
ag931
(g570
(S'S3'
p3207
I0
I1
tp3208
Rp3209
(I3
S'|'
p3210
NNNI3
I1
I0
tp3211
bS'P13'
p3212
tp3213
Rp3214
ag931
(g570
(S'S2'
p3215
I0
I1
tp3216
Rp3217
(I3
S'|'
p3218
NNNI2
I1
I0
tp3219
bS'P1'
p3220
tp3221
Rp3222
ag931
(g570
(S'S2'
p3223
I0
I1
tp3224
Rp3225
(I3
S'|'
p3226
NNNI2
I1
I0
tp3227
bS'P8'
p3228
tp3229
Rp3230
ag931
(g570
(S'S2'
p3231
I0
I1
tp3232
Rp3233
(I3
S'|'
p3234
NNNI2
I1
I0
tp3235
bS'P5'
p3236
tp3237
Rp3238
ag931
(g570
(S'S2'
p3239
I0
I1
tp3240
Rp3241
(I3
S'|'
p3242
NNNI2
I1
I0
tp3243
bS'P2'
p3244
tp3245
Rp3246
ag931
(g570
(S'S3'
p3247
I0
I1
tp3248
Rp3249
(I3
S'|'
p3250
NNNI3
I1
I0
tp3251
bS'P27'
p3252
tp3253
Rp3254
ag931
(g570
(S'S3'
p3255
I0
I1
tp3256
Rp3257
(I3
S'|'
p3258
NNNI3
I1
I0
tp3259
bS'P32'
p3260
tp3261
Rp3262
aa(lp3263
g931
(g570
(S'S3'
p3264
I0
I1
tp3265
Rp3266
(I3
S'|'
p3267
NNNI3
I1
I0
tp3268
bS'P30'
p3269
tp3270
Rp3271
ag931
(g570
(S'S3'
p3272
I0
I1
tp3273
Rp3274
(I3
S'|'
p3275
NNNI3
I1
I0
tp3276
bS'P21'
p3277
tp3278
Rp3279
ag931
(g570
(S'S3'
p3280
I0
I1
tp3281
Rp3282
(I3
S'|'
p3283
NNNI3
I1
I0
tp3284
bS'P35'
p3285
tp3286
Rp3287
ag931
(g570
(S'S3'
p3288
I0
I1
tp3289
Rp3290
(I3
S'|'
p3291
NNNI3
I1
I0
tp3292
bS'P15'
p3293
tp3294
Rp3295
ag931
(g570
(S'S3'
p3296
I0
I1
tp3297
Rp3298
(I3
S'|'
p3299
NNNI3
I1
I0
tp3300
bS'P31'
p3301
tp3302
Rp3303
ag931
(g570
(S'S3'
p3304
I0
I1
tp3305
Rp3306
(I3
S'|'
p3307
NNNI3
I1
I0
tp3308
bS'P22'
p3309
tp3310
Rp3311
ag931
(g570
(S'S2'
p3312
I0
I1
tp3313
Rp3314
(I3
S'|'
p3315
NNNI2
I1
I0
tp3316
bS'P3'
p3317
tp3318
Rp3319
ag931
(g570
(S'S2'
p3320
I0
I1
tp3321
Rp3322
(I3
S'|'
p3323
NNNI2
I1
I0
tp3324
bS'P7'
p3325
tp3326
Rp3327
ag931
(g570
(S'S3'
p3328
I0
I1
tp3329
Rp3330
(I3
S'|'
p3331
NNNI3
I1
I0
tp3332
bS'P36'
p3333
tp3334
Rp3335
ag931
(g570
(S'S3'
p3336
I0
I1
tp3337
Rp3338
(I3
S'|'
p3339
NNNI3
I1
I0
tp3340
bS'P10'
p3341
tp3342
Rp3343
ag931
(g570
(S'S3'
p3344
I0
I1
tp3345
Rp3346
(I3
S'|'
p3347
NNNI3
I1
I0
tp3348
bS'P29'
p3349
tp3350
Rp3351
ag931
(g570
(S'S3'
p3352
I0
I1
tp3353
Rp3354
(I3
S'|'
p3355
NNNI3
I1
I0
tp3356
bS'P27'
p3357
tp3358
Rp3359
ag931
(g570
(S'S3'
p3360
I0
I1
tp3361
Rp3362
(I3
S'|'
p3363
NNNI3
I1
I0
tp3364
bS'P37'
p3365
tp3366
Rp3367
ag931
(g570
(S'S3'
p3368
I0
I1
tp3369
Rp3370
(I3
S'|'
p3371
NNNI3
I1
I0
tp3372
bS'P40'
p3373
tp3374
Rp3375
ag931
(g570
(S'S3'
p3376
I0
I1
tp3377
Rp3378
(I3
S'|'
p3379
NNNI3
I1
I0
tp3380
bS'P32'
p3381
tp3382
Rp3383
aa(lp3384
g931
(g570
(S'S3'
p3385
I0
I1
tp3386
Rp3387
(I3
S'|'
p3388
NNNI3
I1
I0
tp3389
bS'P10'
p3390
tp3391
Rp3392
ag931
(g570
(S'S3'
p3393
I0
I1
tp3394
Rp3395
(I3
S'|'
p3396
NNNI3
I1
I0
tp3397
bS'P29'
p3398
tp3399
Rp3400
ag931
(g570
(S'S3'
p3401
I0
I1
tp3402
Rp3403
(I3
S'|'
p3404
NNNI3
I1
I0
tp3405
bS'P20'
p3406
tp3407
Rp3408
ag931
(g570
(S'S3'
p3409
I0
I1
tp3410
Rp3411
(I3
S'|'
p3412
NNNI3
I1
I0
tp3413
bS'P23'
p3414
tp3415
Rp3416
ag931
(g570
(S'S2'
p3417
I0
I1
tp3418
Rp3419
(I3
S'|'
p3420
NNNI2
I1
I0
tp3421
bS'P7'
p3422
tp3423
Rp3424
ag931
(g570
(S'S2'
p3425
I0
I1
tp3426
Rp3427
(I3
S'|'
p3428
NNNI2
I1
I0
tp3429
bS'P2'
p3430
tp3431
Rp3432
ag931
(g570
(S'S3'
p3433
I0
I1
tp3434
Rp3435
(I3
S'|'
p3436
NNNI3
I1
I0
tp3437
bS'P35'
p3438
tp3439
Rp3440
ag931
(g570
(S'S2'
p3441
I0
I1
tp3442
Rp3443
(I3
S'|'
p3444
NNNI2
I1
I0
tp3445
bS'P8'
p3446
tp3447
Rp3448
ag931
(g570
(S'S3'
p3449
I0
I1
tp3450
Rp3451
(I3
S'|'
p3452
NNNI3
I1
I0
tp3453
bS'P18'
p3454
tp3455
Rp3456
ag931
(g570
(S'S3'
p3457
I0
I1
tp3458
Rp3459
(I3
S'|'
p3460
NNNI3
I1
I0
tp3461
bS'P32'
p3462
tp3463
Rp3464
ag931
(g570
(S'S3'
p3465
I0
I1
tp3466
Rp3467
(I3
S'|'
p3468
NNNI3
I1
I0
tp3469
bS'P14'
p3470
tp3471
Rp3472
ag931
(g570
(S'S3'
p3473
I0
I1
tp3474
Rp3475
(I3
S'|'
p3476
NNNI3
I1
I0
tp3477
bS'P15'
p3478
tp3479
Rp3480
ag931
(g570
(S'S3'
p3481
I0
I1
tp3482
Rp3483
(I3
S'|'
p3484
NNNI3
I1
I0
tp3485
bS'P24'
p3486
tp3487
Rp3488
ag931
(g570
(S'S3'
p3489
I0
I1
tp3490
Rp3491
(I3
S'|'
p3492
NNNI3
I1
I0
tp3493
bS'P17'
p3494
tp3495
Rp3496
ag931
(g570
(S'S3'
p3497
I0
I1
tp3498
Rp3499
(I3
S'|'
p3500
NNNI3
I1
I0
tp3501
bS'P12'
p3502
tp3503
Rp3504
ag931
(g570
(S'S3'
p3505
I0
I1
tp3506
Rp3507
(I3
S'|'
p3508
NNNI3
I1
I0
tp3509
bS'P21'
p3510
tp3511
Rp3512
ag931
(g570
(S'S3'
p3513
I0
I1
tp3514
Rp3515
(I3
S'|'
p3516
NNNI3
I1
I0
tp3517
bS'P33'
p3518
tp3519
Rp3520
ag931
(g570
(S'S3'
p3521
I0
I1
tp3522
Rp3523
(I3
S'|'
p3524
NNNI3
I1
I0
tp3525
bS'P19'
p3526
tp3527
Rp3528
ag931
(g570
(S'S3'
p3529
I0
I1
tp3530
Rp3531
(I3
S'|'
p3532
NNNI3
I1
I0
tp3533
bS'P25'
p3534
tp3535
Rp3536
ag931
(g570
(S'S3'
p3537
I0
I1
tp3538
Rp3539
(I3
S'|'
p3540
NNNI3
I1
I0
tp3541
bS'P13'
p3542
tp3543
Rp3544
ag931
(g570
(S'S2'
p3545
I0
I1
tp3546
Rp3547
(I3
S'|'
p3548
NNNI2
I1
I0
tp3549
bS'P9'
p3550
tp3551
Rp3552
ag931
(g570
(S'S3'
p3553
I0
I1
tp3554
Rp3555
(I3
S'|'
p3556
NNNI3
I1
I0
tp3557
bS'P27'
p3558
tp3559
Rp3560
ag931
(g570
(S'S3'
p3561
I0
I1
tp3562
Rp3563
(I3
S'|'
p3564
NNNI3
I1
I0
tp3565
bS'P30'
p3566
tp3567
Rp3568
ag931
(g570
(S'S3'
p3569
I0
I1
tp3570
Rp3571
(I3
S'|'
p3572
NNNI3
I1
I0
tp3573
bS'P36'
p3574
tp3575
Rp3576
ag931
(g570
(S'S2'
p3577
I0
I1
tp3578
Rp3579
(I3
S'|'
p3580
NNNI2
I1
I0
tp3581
bS'P4'
p3582
tp3583
Rp3584
ag931
(g570
(S'S3'
p3585
I0
I1
tp3586
Rp3587
(I3
S'|'
p3588
NNNI3
I1
I0
tp3589
bS'P26'
p3590
tp3591
Rp3592
ag931
(g570
(S'S3'
p3593
I0
I1
tp3594
Rp3595
(I3
S'|'
p3596
NNNI3
I1
I0
tp3597
bS'P31'
p3598
tp3599
Rp3600
ag931
(g570
(S'S3'
p3601
I0
I1
tp3602
Rp3603
(I3
S'|'
p3604
NNNI3
I1
I0
tp3605
bS'P22'
p3606
tp3607
Rp3608
ag931
(g570
(S'S2'
p3609
I0
I1
tp3610
Rp3611
(I3
S'|'
p3612
NNNI2
I1
I0
tp3613
bS'P5'
p3614
tp3615
Rp3616
aa(lp3617
g931
(g570
(S'S3'
p3618
I0
I1
tp3619
Rp3620
(I3
S'|'
p3621
NNNI3
I1
I0
tp3622
bS'P31'
p3623
tp3624
Rp3625
ag931
(g570
(S'S3'
p3626
I0
I1
tp3627
Rp3628
(I3
S'|'
p3629
NNNI3
I1
I0
tp3630
bS'P36'
p3631
tp3632
Rp3633
ag931
(g570
(S'S2'
p3634
I0
I1
tp3635
Rp3636
(I3
S'|'
p3637
NNNI2
I1
I0
tp3638
bS'P9'
p3639
tp3640
Rp3641
ag931
(g570
(S'S2'
p3642
I0
I1
tp3643
Rp3644
(I3
S'|'
p3645
NNNI2
I1
I0
tp3646
bS'P5'
p3647
tp3648
Rp3649
ag931
(g570
(S'S3'
p3650
I0
I1
tp3651
Rp3652
(I3
S'|'
p3653
NNNI3
I1
I0
tp3654
bS'P32'
p3655
tp3656
Rp3657
ag931
(g570
(S'S3'
p3658
I0
I1
tp3659
Rp3660
(I3
S'|'
p3661
NNNI3
I1
I0
tp3662
bS'P12'
p3663
tp3664
Rp3665
ag931
(g570
(S'S3'
p3666
I0
I1
tp3667
Rp3668
(I3
S'|'
p3669
NNNI3
I1
I0
tp3670
bS'P35'
p3671
tp3672
Rp3673
ag931
(g570
(S'S3'
p3674
I0
I1
tp3675
Rp3676
(I3
S'|'
p3677
NNNI3
I1
I0
tp3678
bS'P34'
p3679
tp3680
Rp3681
ag931
(g570
(S'S3'
p3682
I0
I1
tp3683
Rp3684
(I3
S'|'
p3685
NNNI3
I1
I0
tp3686
bS'P23'
p3687
tp3688
Rp3689
ag931
(g570
(S'S3'
p3690
I0
I1
tp3691
Rp3692
(I3
S'|'
p3693
NNNI3
I1
I0
tp3694
bS'P13'
p3695
tp3696
Rp3697
ag931
(g570
(S'S3'
p3698
I0
I1
tp3699
Rp3700
(I3
S'|'
p3701
NNNI3
I1
I0
tp3702
bS'P29'
p3703
tp3704
Rp3705
aa(lp3706
g931
(g570
(S'S3'
p3707
I0
I1
tp3708
Rp3709
(I3
S'|'
p3710
NNNI3
I1
I0
tp3711
bS'P22'
p3712
tp3713
Rp3714
ag931
(g570
(S'S3'
p3715
I0
I1
tp3716
Rp3717
(I3
S'|'
p3718
NNNI3
I1
I0
tp3719
bS'P11'
p3720
tp3721
Rp3722
ag931
(g570
(S'S3'
p3723
I0
I1
tp3724
Rp3725
(I3
S'|'
p3726
NNNI3
I1
I0
tp3727
bS'P24'
p3728
tp3729
Rp3730
ag931
(g570
(S'S3'
p3731
I0
I1
tp3732
Rp3733
(I3
S'|'
p3734
NNNI3
I1
I0
tp3735
bS'P20'
p3736
tp3737
Rp3738
ag931
(g570
(S'S2'
p3739
I0
I1
tp3740
Rp3741
(I3
S'|'
p3742
NNNI2
I1
I0
tp3743
bS'P6'
p3744
tp3745
Rp3746
ag931
(g570
(S'S3'
p3747
I0
I1
tp3748
Rp3749
(I3
S'|'
p3750
NNNI3
I1
I0
tp3751
bS'P17'
p3752
tp3753
Rp3754
ag931
(g570
(S'S3'
p3755
I0
I1
tp3756
Rp3757
(I3
S'|'
p3758
NNNI3
I1
I0
tp3759
bS'P25'
p3760
tp3761
Rp3762
ag931
(g570
(S'S3'
p3763
I0
I1
tp3764
Rp3765
(I3
S'|'
p3766
NNNI3
I1
I0
tp3767
bS'P31'
p3768
tp3769
Rp3770
ag931
(g570
(S'S3'
p3771
I0
I1
tp3772
Rp3773
(I3
S'|'
p3774
NNNI3
I1
I0
tp3775
bS'P33'
p3776
tp3777
Rp3778
aa(lp3779
g931
(g570
(S'S3'
p3780
I0
I1
tp3781
Rp3782
(I3
S'|'
p3783
NNNI3
I1
I0
tp3784
bS'P11'
p3785
tp3786
Rp3787
ag931
(g570
(S'S3'
p3788
I0
I1
tp3789
Rp3790
(I3
S'|'
p3791
NNNI3
I1
I0
tp3792
bS'P27'
p3793
tp3794
Rp3795
ag931
(g570
(S'S3'
p3796
I0
I1
tp3797
Rp3798
(I3
S'|'
p3799
NNNI3
I1
I0
tp3800
bS'P40'
p3801
tp3802
Rp3803
ag931
(g570
(S'S3'
p3804
I0
I1
tp3805
Rp3806
(I3
S'|'
p3807
NNNI3
I1
I0
tp3808
bS'P17'
p3809
tp3810
Rp3811
ag931
(g570
(S'S3'
p3812
I0
I1
tp3813
Rp3814
(I3
S'|'
p3815
NNNI3
I1
I0
tp3816
bS'P30'
p3817
tp3818
Rp3819
ag931
(g570
(S'S3'
p3820
I0
I1
tp3821
Rp3822
(I3
S'|'
p3823
NNNI3
I1
I0
tp3824
bS'P24'
p3825
tp3826
Rp3827
ag931
(g570
(S'S3'
p3828
I0
I1
tp3829
Rp3830
(I3
S'|'
p3831
NNNI3
I1
I0
tp3832
bS'P38'
p3833
tp3834
Rp3835
ag931
(g570
(S'S3'
p3836
I0
I1
tp3837
Rp3838
(I3
S'|'
p3839
NNNI3
I1
I0
tp3840
bS'P21'
p3841
tp3842
Rp3843
ag931
(g570
(S'S2'
p3844
I0
I1
tp3845
Rp3846
(I3
S'|'
p3847
NNNI2
I1
I0
tp3848
bS'P2'
p3849
tp3850
Rp3851
ag931
(g570
(S'S3'
p3852
I0
I1
tp3853
Rp3854
(I3
S'|'
p3855
NNNI3
I1
I0
tp3856
bS'P15'
p3857
tp3858
Rp3859
ag931
(g570
(S'S2'
p3860
I0
I1
tp3861
Rp3862
(I3
S'|'
p3863
NNNI2
I1
I0
tp3864
bS'P4'
p3865
tp3866
Rp3867
ag931
(g570
(S'S3'
p3868
I0
I1
tp3869
Rp3870
(I3
S'|'
p3871
NNNI3
I1
I0
tp3872
bS'P28'
p3873
tp3874
Rp3875
ag931
(g570
(S'S3'
p3876
I0
I1
tp3877
Rp3878
(I3
S'|'
p3879
NNNI3
I1
I0
tp3880
bS'P25'
p3881
tp3882
Rp3883
ag931
(g570
(S'S2'
p3884
I0
I1
tp3885
Rp3886
(I3
S'|'
p3887
NNNI2
I1
I0
tp3888
bS'P1'
p3889
tp3890
Rp3891
ag931
(g570
(S'S2'
p3892
I0
I1
tp3893
Rp3894
(I3
S'|'
p3895
NNNI2
I1
I0
tp3896
bS'P3'
p3897
tp3898
Rp3899
ag931
(g570
(S'S3'
p3900
I0
I1
tp3901
Rp3902
(I3
S'|'
p3903
NNNI3
I1
I0
tp3904
bS'P14'
p3905
tp3906
Rp3907
ag931
(g570
(S'S3'
p3908
I0
I1
tp3909
Rp3910
(I3
S'|'
p3911
NNNI3
I1
I0
tp3912
bS'P10'
p3913
tp3914
Rp3915
ag931
(g570
(S'S3'
p3916
I0
I1
tp3917
Rp3918
(I3
S'|'
p3919
NNNI3
I1
I0
tp3920
bS'P32'
p3921
tp3922
Rp3923
ag931
(g570
(S'S3'
p3924
I0
I1
tp3925
Rp3926
(I3
S'|'
p3927
NNNI3
I1
I0
tp3928
bS'P31'
p3929
tp3930
Rp3931
ag931
(g570
(S'S3'
p3932
I0
I1
tp3933
Rp3934
(I3
S'|'
p3935
NNNI3
I1
I0
tp3936
bS'P39'
p3937
tp3938
Rp3939
ag931
(g570
(S'S3'
p3940
I0
I1
tp3941
Rp3942
(I3
S'|'
p3943
NNNI3
I1
I0
tp3944
bS'P34'
p3945
tp3946
Rp3947
ag931
(g570
(S'S3'
p3948
I0
I1
tp3949
Rp3950
(I3
S'|'
p3951
NNNI3
I1
I0
tp3952
bS'P20'
p3953
tp3954
Rp3955
ag931
(g570
(S'S3'
p3956
I0
I1
tp3957
Rp3958
(I3
S'|'
p3959
NNNI3
I1
I0
tp3960
bS'P33'
p3961
tp3962
Rp3963
ag931
(g570
(S'S3'
p3964
I0
I1
tp3965
Rp3966
(I3
S'|'
p3967
NNNI3
I1
I0
tp3968
bS'P18'
p3969
tp3970
Rp3971
ag931
(g570
(S'S3'
p3972
I0
I1
tp3973
Rp3974
(I3
S'|'
p3975
NNNI3
I1
I0
tp3976
bS'P12'
p3977
tp3978
Rp3979
aa(lp3980
g931
(g570
(S'S3'
p3981
I0
I1
tp3982
Rp3983
(I3
S'|'
p3984
NNNI3
I1
I0
tp3985
bS'P38'
p3986
tp3987
Rp3988
ag931
(g570
(S'S3'
p3989
I0
I1
tp3990
Rp3991
(I3
S'|'
p3992
NNNI3
I1
I0
tp3993
bS'P26'
p3994
tp3995
Rp3996
ag931
(g570
(S'S3'
p3997
I0
I1
tp3998
Rp3999
(I3
S'|'
p4000
NNNI3
I1
I0
tp4001
bS'P13'
p4002
tp4003
Rp4004
ag931
(g570
(S'S2'
p4005
I0
I1
tp4006
Rp4007
(I3
S'|'
p4008
NNNI2
I1
I0
tp4009
bS'P4'
p4010
tp4011
Rp4012
ag931
(g570
(S'S3'
p4013
I0
I1
tp4014
Rp4015
(I3
S'|'
p4016
NNNI3
I1
I0
tp4017
bS'P24'
p4018
tp4019
Rp4020
ag931
(g570
(S'S3'
p4021
I0
I1
tp4022
Rp4023
(I3
S'|'
p4024
NNNI3
I1
I0
tp4025
bS'P34'
p4026
tp4027
Rp4028
ag931
(g570
(S'S2'
p4029
I0
I1
tp4030
Rp4031
(I3
S'|'
p4032
NNNI2
I1
I0
tp4033
bS'P6'
p4034
tp4035
Rp4036
ag931
(g570
(S'S2'
p4037
I0
I1
tp4038
Rp4039
(I3
S'|'
p4040
NNNI2
I1
I0
tp4041
bS'P3'
p4042
tp4043
Rp4044
ag931
(g570
(S'S3'
p4045
I0
I1
tp4046
Rp4047
(I3
S'|'
p4048
NNNI3
I1
I0
tp4049
bS'P21'
p4050
tp4051
Rp4052
ag931
(g570
(S'S3'
p4053
I0
I1
tp4054
Rp4055
(I3
S'|'
p4056
NNNI3
I1
I0
tp4057
bS'P12'
p4058
tp4059
Rp4060
ag931
(g570
(S'S3'
p4061
I0
I1
tp4062
Rp4063
(I3
S'|'
p4064
NNNI3
I1
I0
tp4065
bS'P22'
p4066
tp4067
Rp4068
ag931
(g570
(S'S3'
p4069
I0
I1
tp4070
Rp4071
(I3
S'|'
p4072
NNNI3
I1
I0
tp4073
bS'P25'
p4074
tp4075
Rp4076
ag931
(g570
(S'S3'
p4077
I0
I1
tp4078
Rp4079
(I3
S'|'
p4080
NNNI3
I1
I0
tp4081
bS'P19'
p4082
tp4083
Rp4084
ag931
(g570
(S'S3'
p4085
I0
I1
tp4086
Rp4087
(I3
S'|'
p4088
NNNI3
I1
I0
tp4089
bS'P17'
p4090
tp4091
Rp4092
ag931
(g570
(S'S3'
p4093
I0
I1
tp4094
Rp4095
(I3
S'|'
p4096
NNNI3
I1
I0
tp4097
bS'P37'
p4098
tp4099
Rp4100
ag931
(g570
(S'S3'
p4101
I0
I1
tp4102
Rp4103
(I3
S'|'
p4104
NNNI3
I1
I0
tp4105
bS'P14'
p4106
tp4107
Rp4108
ag931
(g570
(S'S3'
p4109
I0
I1
tp4110
Rp4111
(I3
S'|'
p4112
NNNI3
I1
I0
tp4113
bS'P18'
p4114
tp4115
Rp4116
ag931
(g570
(S'S3'
p4117
I0
I1
tp4118
Rp4119
(I3
S'|'
p4120
NNNI3
I1
I0
tp4121
bS'P28'
p4122
tp4123
Rp4124
ag931
(g570
(S'S3'
p4125
I0
I1
tp4126
Rp4127
(I3
S'|'
p4128
NNNI3
I1
I0
tp4129
bS'P31'
p4130
tp4131
Rp4132
ag931
(g570
(S'S2'
p4133
I0
I1
tp4134
Rp4135
(I3
S'|'
p4136
NNNI2
I1
I0
tp4137
bS'P2'
p4138
tp4139
Rp4140
ag931
(g570
(S'S3'
p4141
I0
I1
tp4142
Rp4143
(I3
S'|'
p4144
NNNI3
I1
I0
tp4145
bS'P32'
p4146
tp4147
Rp4148
aa(lp4149
g931
(g570
(S'S3'
p4150
I0
I1
tp4151
Rp4152
(I3
S'|'
p4153
NNNI3
I1
I0
tp4154
bS'P15'
p4155
tp4156
Rp4157
ag931
(g570
(S'S3'
p4158
I0
I1
tp4159
Rp4160
(I3
S'|'
p4161
NNNI3
I1
I0
tp4162
bS'P23'
p4163
tp4164
Rp4165
ag931
(g570
(S'S3'
p4166
I0
I1
tp4167
Rp4168
(I3
S'|'
p4169
NNNI3
I1
I0
tp4170
bS'P29'
p4171
tp4172
Rp4173
ag931
(g570
(S'S2'
p4174
I0
I1
tp4175
Rp4176
(I3
S'|'
p4177
NNNI2
I1
I0
tp4178
bS'P8'
p4179
tp4180
Rp4181
ag931
(g570
(S'S3'
p4182
I0
I1
tp4183
Rp4184
(I3
S'|'
p4185
NNNI3
I1
I0
tp4186
bS'P30'
p4187
tp4188
Rp4189
ag931
(g570
(S'S3'
p4190
I0
I1
tp4191
Rp4192
(I3
S'|'
p4193
NNNI3
I1
I0
tp4194
bS'P13'
p4195
tp4196
Rp4197
ag931
(g570
(S'S3'
p4198
I0
I1
tp4199
Rp4200
(I3
S'|'
p4201
NNNI3
I1
I0
tp4202
bS'P28'
p4203
tp4204
Rp4205
ag931
(g570
(S'S2'
p4206
I0
I1
tp4207
Rp4208
(I3
S'|'
p4209
NNNI2
I1
I0
tp4210
bS'P6'
p4211
tp4212
Rp4213
ag931
(g570
(S'S3'
p4214
I0
I1
tp4215
Rp4216
(I3
S'|'
p4217
NNNI3
I1
I0
tp4218
bS'P32'
p4219
tp4220
Rp4221
ag931
(g570
(S'S2'
p4222
I0
I1
tp4223
Rp4224
(I3
S'|'
p4225
NNNI2
I1
I0
tp4226
bS'P4'
p4227
tp4228
Rp4229
ag931
(g570
(S'S2'
p4230
I0
I1
tp4231
Rp4232
(I3
S'|'
p4233
NNNI2
I1
I0
tp4234
bS'P9'
p4235
tp4236
Rp4237
ag931
(g570
(S'S2'
p4238
I0
I1
tp4239
Rp4240
(I3
S'|'
p4241
NNNI2
I1
I0
tp4242
bS'P3'
p4243
tp4244
Rp4245
ag931
(g570
(S'S3'
p4246
I0
I1
tp4247
Rp4248
(I3
S'|'
p4249
NNNI3
I1
I0
tp4250
bS'P12'
p4251
tp4252
Rp4253
ag931
(g570
(S'S3'
p4254
I0
I1
tp4255
Rp4256
(I3
S'|'
p4257
NNNI3
I1
I0
tp4258
bS'P35'
p4259
tp4260
Rp4261
ag931
(g570
(S'S3'
p4262
I0
I1
tp4263
Rp4264
(I3
S'|'
p4265
NNNI3
I1
I0
tp4266
bS'P22'
p4267
tp4268
Rp4269
ag931
(g570
(S'S3'
p4270
I0
I1
tp4271
Rp4272
(I3
S'|'
p4273
NNNI3
I1
I0
tp4274
bS'P38'
p4275
tp4276
Rp4277
ag931
(g570
(S'S3'
p4278
I0
I1
tp4279
Rp4280
(I3
S'|'
p4281
NNNI3
I1
I0
tp4282
bS'P40'
p4283
tp4284
Rp4285
ag931
(g570
(S'S3'
p4286
I0
I1
tp4287
Rp4288
(I3
S'|'
p4289
NNNI3
I1
I0
tp4290
bS'P25'
p4291
tp4292
Rp4293
ag931
(g570
(S'S3'
p4294
I0
I1
tp4295
Rp4296
(I3
S'|'
p4297
NNNI3
I1
I0
tp4298
bS'P33'
p4299
tp4300
Rp4301
ag931
(g570
(S'S3'
p4302
I0
I1
tp4303
Rp4304
(I3
S'|'
p4305
NNNI3
I1
I0
tp4306
bS'P26'
p4307
tp4308
Rp4309
ag931
(g570
(S'S3'
p4310
I0
I1
tp4311
Rp4312
(I3
S'|'
p4313
NNNI3
I1
I0
tp4314
bS'P31'
p4315
tp4316
Rp4317
aa(lp4318
g931
(g570
(S'S3'
p4319
I0
I1
tp4320
Rp4321
(I3
S'|'
p4322
NNNI3
I1
I0
tp4323
bS'P23'
p4324
tp4325
Rp4326
ag931
(g570
(S'S3'
p4327
I0
I1
tp4328
Rp4329
(I3
S'|'
p4330
NNNI3
I1
I0
tp4331
bS'P28'
p4332
tp4333
Rp4334
ag931
(g570
(S'S3'
p4335
I0
I1
tp4336
Rp4337
(I3
S'|'
p4338
NNNI3
I1
I0
tp4339
bS'P10'
p4340
tp4341
Rp4342
ag931
(g570
(S'S3'
p4343
I0
I1
tp4344
Rp4345
(I3
S'|'
p4346
NNNI3
I1
I0
tp4347
bS'P39'
p4348
tp4349
Rp4350
ag931
(g570
(S'S2'
p4351
I0
I1
tp4352
Rp4353
(I3
S'|'
p4354
NNNI2
I1
I0
tp4355
bS'P2'
p4356
tp4357
Rp4358
ag931
(g570
(S'S3'
p4359
I0
I1
tp4360
Rp4361
(I3
S'|'
p4362
NNNI3
I1
I0
tp4363
bS'P11'
p4364
tp4365
Rp4366
ag931
(g570
(S'S3'
p4367
I0
I1
tp4368
Rp4369
(I3
S'|'
p4370
NNNI3
I1
I0
tp4371
bS'P29'
p4372
tp4373
Rp4374
ag931
(g570
(S'S3'
p4375
I0
I1
tp4376
Rp4377
(I3
S'|'
p4378
NNNI3
I1
I0
tp4379
bS'P18'
p4380
tp4381
Rp4382
ag931
(g570
(S'S3'
p4383
I0
I1
tp4384
Rp4385
(I3
S'|'
p4386
NNNI3
I1
I0
tp4387
bS'P25'
p4388
tp4389
Rp4390
ag931
(g570
(S'S2'
p4391
I0
I1
tp4392
Rp4393
(I3
S'|'
p4394
NNNI2
I1
I0
tp4395
bS'P7'
p4396
tp4397
Rp4398
ag931
(g570
(S'S2'
p4399
I0
I1
tp4400
Rp4401
(I3
S'|'
p4402
NNNI2
I1
I0
tp4403
bS'P5'
p4404
tp4405
Rp4406
ag931
(g570
(S'S3'
p4407
I0
I1
tp4408
Rp4409
(I3
S'|'
p4410
NNNI3
I1
I0
tp4411
bS'P32'
p4412
tp4413
Rp4414
ag931
(g570
(S'S2'
p4415
I0
I1
tp4416
Rp4417
(I3
S'|'
p4418
NNNI2
I1
I0
tp4419
bS'P4'
p4420
tp4421
Rp4422
ag931
(g570
(S'S3'
p4423
I0
I1
tp4424
Rp4425
(I3
S'|'
p4426
NNNI3
I1
I0
tp4427
bS'P21'
p4428
tp4429
Rp4430
ag931
(g570
(S'S2'
p4431
I0
I1
tp4432
Rp4433
(I3
S'|'
p4434
NNNI2
I1
I0
tp4435
bS'P3'
p4436
tp4437
Rp4438
ag931
(g570
(S'S3'
p4439
I0
I1
tp4440
Rp4441
(I3
S'|'
p4442
NNNI3
I1
I0
tp4443
bS'P17'
p4444
tp4445
Rp4446
ag931
(g570
(S'S3'
p4447
I0
I1
tp4448
Rp4449
(I3
S'|'
p4450
NNNI3
I1
I0
tp4451
bS'P34'
p4452
tp4453
Rp4454
ag931
(g570
(S'S3'
p4455
I0
I1
tp4456
Rp4457
(I3
S'|'
p4458
NNNI3
I1
I0
tp4459
bS'P31'
p4460
tp4461
Rp4462
ag931
(g570
(S'S3'
p4463
I0
I1
tp4464
Rp4465
(I3
S'|'
p4466
NNNI3
I1
I0
tp4467
bS'P38'
p4468
tp4469
Rp4470
ag931
(g570
(S'S3'
p4471
I0
I1
tp4472
Rp4473
(I3
S'|'
p4474
NNNI3
I1
I0
tp4475
bS'P36'
p4476
tp4477
Rp4478
aa(lp4479
g931
(g570
(S'S3'
p4480
I0
I1
tp4481
Rp4482
(I3
S'|'
p4483
NNNI3
I1
I0
tp4484
bS'P31'
p4485
tp4486
Rp4487
ag931
(g570
(S'S3'
p4488
I0
I1
tp4489
Rp4490
(I3
S'|'
p4491
NNNI3
I1
I0
tp4492
bS'P37'
p4493
tp4494
Rp4495
ag931
(g570
(S'S3'
p4496
I0
I1
tp4497
Rp4498
(I3
S'|'
p4499
NNNI3
I1
I0
tp4500
bS'P10'
p4501
tp4502
Rp4503
ag931
(g570
(S'S3'
p4504
I0
I1
tp4505
Rp4506
(I3
S'|'
p4507
NNNI3
I1
I0
tp4508
bS'P22'
p4509
tp4510
Rp4511
ag931
(g570
(S'S2'
p4512
I0
I1
tp4513
Rp4514
(I3
S'|'
p4515
NNNI2
I1
I0
tp4516
bS'P8'
p4517
tp4518
Rp4519
ag931
(g570
(S'S3'
p4520
I0
I1
tp4521
Rp4522
(I3
S'|'
p4523
NNNI3
I1
I0
tp4524
bS'P13'
p4525
tp4526
Rp4527
ag931
(g570
(S'S3'
p4528
I0
I1
tp4529
Rp4530
(I3
S'|'
p4531
NNNI3
I1
I0
tp4532
bS'P39'
p4533
tp4534
Rp4535
ag931
(g570
(S'S3'
p4536
I0
I1
tp4537
Rp4538
(I3
S'|'
p4539
NNNI3
I1
I0
tp4540
bS'P36'
p4541
tp4542
Rp4543
ag931
(g570
(S'S3'
p4544
I0
I1
tp4545
Rp4546
(I3
S'|'
p4547
NNNI3
I1
I0
tp4548
bS'P33'
p4549
tp4550
Rp4551
ag931
(g570
(S'S3'
p4552
I0
I1
tp4553
Rp4554
(I3
S'|'
p4555
NNNI3
I1
I0
tp4556
bS'P25'
p4557
tp4558
Rp4559
ag931
(g570
(S'S3'
p4560
I0
I1
tp4561
Rp4562
(I3
S'|'
p4563
NNNI3
I1
I0
tp4564
bS'P20'
p4565
tp4566
Rp4567
ag931
(g570
(S'S2'
p4568
I0
I1
tp4569
Rp4570
(I3
S'|'
p4571
NNNI2
I1
I0
tp4572
bS'P1'
p4573
tp4574
Rp4575
aa(lp4576
g931
(g570
(S'S3'
p4577
I0
I1
tp4578
Rp4579
(I3
S'|'
p4580
NNNI3
I1
I0
tp4581
bS'P17'
p4582
tp4583
Rp4584
ag931
(g570
(S'S3'
p4585
I0
I1
tp4586
Rp4587
(I3
S'|'
p4588
NNNI3
I1
I0
tp4589
bS'P15'
p4590
tp4591
Rp4592
ag931
(g570
(S'S3'
p4593
I0
I1
tp4594
Rp4595
(I3
S'|'
p4596
NNNI3
I1
I0
tp4597
bS'P22'
p4598
tp4599
Rp4600
ag931
(g570
(S'S2'
p4601
I0
I1
tp4602
Rp4603
(I3
S'|'
p4604
NNNI2
I1
I0
tp4605
bS'P5'
p4606
tp4607
Rp4608
ag931
(g570
(S'S3'
p4609
I0
I1
tp4610
Rp4611
(I3
S'|'
p4612
NNNI3
I1
I0
tp4613
bS'P24'
p4614
tp4615
Rp4616
ag931
(g570
(S'S3'
p4617
I0
I1
tp4618
Rp4619
(I3
S'|'
p4620
NNNI3
I1
I0
tp4621
bS'P27'
p4622
tp4623
Rp4624
ag931
(g570
(S'S3'
p4625
I0
I1
tp4626
Rp4627
(I3
S'|'
p4628
NNNI3
I1
I0
tp4629
bS'P13'
p4630
tp4631
Rp4632
ag931
(g570
(S'S3'
p4633
I0
I1
tp4634
Rp4635
(I3
S'|'
p4636
NNNI3
I1
I0
tp4637
bS'P26'
p4638
tp4639
Rp4640
aa(lp4641
g931
(g570
(S'S3'
p4642
I0
I1
tp4643
Rp4644
(I3
S'|'
p4645
NNNI3
I1
I0
tp4646
bS'P31'
p4647
tp4648
Rp4649
ag931
(g570
(S'S3'
p4650
I0
I1
tp4651
Rp4652
(I3
S'|'
p4653
NNNI3
I1
I0
tp4654
bS'P27'
p4655
tp4656
Rp4657
ag931
(g570
(S'S3'
p4658
I0
I1
tp4659
Rp4660
(I3
S'|'
p4661
NNNI3
I1
I0
tp4662
bS'P23'
p4663
tp4664
Rp4665
ag931
(g570
(S'S3'
p4666
I0
I1
tp4667
Rp4668
(I3
S'|'
p4669
NNNI3
I1
I0
tp4670
bS'P40'
p4671
tp4672
Rp4673
ag931
(g570
(S'S3'
p4674
I0
I1
tp4675
Rp4676
(I3
S'|'
p4677
NNNI3
I1
I0
tp4678
bS'P30'
p4679
tp4680
Rp4681
ag931
(g570
(S'S3'
p4682
I0
I1
tp4683
Rp4684
(I3
S'|'
p4685
NNNI3
I1
I0
tp4686
bS'P16'
p4687
tp4688
Rp4689
ag931
(g570
(S'S3'
p4690
I0
I1
tp4691
Rp4692
(I3
S'|'
p4693
NNNI3
I1
I0
tp4694
bS'P38'
p4695
tp4696
Rp4697
ag931
(g570
(S'S3'
p4698
I0
I1
tp4699
Rp4700
(I3
S'|'
p4701
NNNI3
I1
I0
tp4702
bS'P36'
p4703
tp4704
Rp4705
ag931
(g570
(S'S3'
p4706
I0
I1
tp4707
Rp4708
(I3
S'|'
p4709
NNNI3
I1
I0
tp4710
bS'P26'
p4711
tp4712
Rp4713
ag931
(g570
(S'S3'
p4714
I0
I1
tp4715
Rp4716
(I3
S'|'
p4717
NNNI3
I1
I0
tp4718
bS'P11'
p4719
tp4720
Rp4721
ag931
(g570
(S'S2'
p4722
I0
I1
tp4723
Rp4724
(I3
S'|'
p4725
NNNI2
I1
I0
tp4726
bS'P3'
p4727
tp4728
Rp4729
ag931
(g570
(S'S3'
p4730
I0
I1
tp4731
Rp4732
(I3
S'|'
p4733
NNNI3
I1
I0
tp4734
bS'P12'
p4735
tp4736
Rp4737
ag931
(g570
(S'S3'
p4738
I0
I1
tp4739
Rp4740
(I3
S'|'
p4741
NNNI3
I1
I0
tp4742
bS'P29'
p4743
tp4744
Rp4745
ag931
(g570
(S'S3'
p4746
I0
I1
tp4747
Rp4748
(I3
S'|'
p4749
NNNI3
I1
I0
tp4750
bS'P25'
p4751
tp4752
Rp4753
ag931
(g570
(S'S3'
p4754
I0
I1
tp4755
Rp4756
(I3
S'|'
p4757
NNNI3
I1
I0
tp4758
bS'P15'
p4759
tp4760
Rp4761
ag931
(g570
(S'S3'
p4762
I0
I1
tp4763
Rp4764
(I3
S'|'
p4765
NNNI3
I1
I0
tp4766
bS'P28'
p4767
tp4768
Rp4769
ag931
(g570
(S'S3'
p4770
I0
I1
tp4771
Rp4772
(I3
S'|'
p4773
NNNI3
I1
I0
tp4774
bS'P35'
p4775
tp4776
Rp4777
aa(lp4778
g931
(g570
(S'S3'
p4779
I0
I1
tp4780
Rp4781
(I3
S'|'
p4782
NNNI3
I1
I0
tp4783
bS'P34'
p4784
tp4785
Rp4786
ag931
(g570
(S'S3'
p4787
I0
I1
tp4788
Rp4789
(I3
S'|'
p4790
NNNI3
I1
I0
tp4791
bS'P22'
p4792
tp4793
Rp4794
ag931
(g570
(S'S3'
p4795
I0
I1
tp4796
Rp4797
(I3
S'|'
p4798
NNNI3
I1
I0
tp4799
bS'P38'
p4800
tp4801
Rp4802
ag931
(g570
(S'S2'
p4803
I0
I1
tp4804
Rp4805
(I3
S'|'
p4806
NNNI2
I1
I0
tp4807
bS'P1'
p4808
tp4809
Rp4810
ag931
(g570
(S'S3'
p4811
I0
I1
tp4812
Rp4813
(I3
S'|'
p4814
NNNI3
I1
I0
tp4815
bS'P20'
p4816
tp4817
Rp4818
ag931
(g570
(S'S3'
p4819
I0
I1
tp4820
Rp4821
(I3
S'|'
p4822
NNNI3
I1
I0
tp4823
bS'P40'
p4824
tp4825
Rp4826
ag931
(g570
(S'S3'
p4827
I0
I1
tp4828
Rp4829
(I3
S'|'
p4830
NNNI3
I1
I0
tp4831
bS'P30'
p4832
tp4833
Rp4834
ag931
(g570
(S'S2'
p4835
I0
I1
tp4836
Rp4837
(I3
S'|'
p4838
NNNI2
I1
I0
tp4839
bS'P7'
p4840
tp4841
Rp4842
ag931
(g570
(S'S3'
p4843
I0
I1
tp4844
Rp4845
(I3
S'|'
p4846
NNNI3
I1
I0
tp4847
bS'P19'
p4848
tp4849
Rp4850
ag931
(g570
(S'S3'
p4851
I0
I1
tp4852
Rp4853
(I3
S'|'
p4854
NNNI3
I1
I0
tp4855
bS'P28'
p4856
tp4857
Rp4858
ag931
(g570
(S'S3'
p4859
I0
I1
tp4860
Rp4861
(I3
S'|'
p4862
NNNI3
I1
I0
tp4863
bS'P39'
p4864
tp4865
Rp4866
ag931
(g570
(S'S3'
p4867
I0
I1
tp4868
Rp4869
(I3
S'|'
p4870
NNNI3
I1
I0
tp4871
bS'P13'
p4872
tp4873
Rp4874
ag931
(g570
(S'S3'
p4875
I0
I1
tp4876
Rp4877
(I3
S'|'
p4878
NNNI3
I1
I0
tp4879
bS'P36'
p4880
tp4881
Rp4882
ag931
(g570
(S'S3'
p4883
I0
I1
tp4884
Rp4885
(I3
S'|'
p4886
NNNI3
I1
I0
tp4887
bS'P26'
p4888
tp4889
Rp4890
aa(lp4891
g931
(g570
(S'S3'
p4892
I0
I1
tp4893
Rp4894
(I3
S'|'
p4895
NNNI3
I1
I0
tp4896
bS'P29'
p4897
tp4898
Rp4899
ag931
(g570
(S'S2'
p4900
I0
I1
tp4901
Rp4902
(I3
S'|'
p4903
NNNI2
I1
I0
tp4904
bS'P3'
p4905
tp4906
Rp4907
ag931
(g570
(S'S3'
p4908
I0
I1
tp4909
Rp4910
(I3
S'|'
p4911
NNNI3
I1
I0
tp4912
bS'P34'
p4913
tp4914
Rp4915
ag931
(g570
(S'S3'
p4916
I0
I1
tp4917
Rp4918
(I3
S'|'
p4919
NNNI3
I1
I0
tp4920
bS'P39'
p4921
tp4922
Rp4923
ag931
(g570
(S'S3'
p4924
I0
I1
tp4925
Rp4926
(I3
S'|'
p4927
NNNI3
I1
I0
tp4928
bS'P15'
p4929
tp4930
Rp4931
ag931
(g570
(S'S3'
p4932
I0
I1
tp4933
Rp4934
(I3
S'|'
p4935
NNNI3
I1
I0
tp4936
bS'P35'
p4937
tp4938
Rp4939
ag931
(g570
(S'S3'
p4940
I0
I1
tp4941
Rp4942
(I3
S'|'
p4943
NNNI3
I1
I0
tp4944
bS'P23'
p4945
tp4946
Rp4947
ag931
(g570
(S'S3'
p4948
I0
I1
tp4949
Rp4950
(I3
S'|'
p4951
NNNI3
I1
I0
tp4952
bS'P14'
p4953
tp4954
Rp4955
ag931
(g570
(S'S3'
p4956
I0
I1
tp4957
Rp4958
(I3
S'|'
p4959
NNNI3
I1
I0
tp4960
bS'P33'
p4961
tp4962
Rp4963
ag931
(g570
(S'S3'
p4964
I0
I1
tp4965
Rp4966
(I3
S'|'
p4967
NNNI3
I1
I0
tp4968
bS'P16'
p4969
tp4970
Rp4971
ag931
(g570
(S'S3'
p4972
I0
I1
tp4973
Rp4974
(I3
S'|'
p4975
NNNI3
I1
I0
tp4976
bS'P19'
p4977
tp4978
Rp4979
ag931
(g570
(S'S3'
p4980
I0
I1
tp4981
Rp4982
(I3
S'|'
p4983
NNNI3
I1
I0
tp4984
bS'P36'
p4985
tp4986
Rp4987
ag931
(g570
(S'S3'
p4988
I0
I1
tp4989
Rp4990
(I3
S'|'
p4991
NNNI3
I1
I0
tp4992
bS'P22'
p4993
tp4994
Rp4995
ag931
(g570
(S'S3'
p4996
I0
I1
tp4997
Rp4998
(I3
S'|'
p4999
NNNI3
I1
I0
tp5000
bS'P21'
p5001
tp5002
Rp5003
ag931
(g570
(S'S3'
p5004
I0
I1
tp5005
Rp5006
(I3
S'|'
p5007
NNNI3
I1
I0
tp5008
bS'P27'
p5009
tp5010
Rp5011
ag931
(g570
(S'S3'
p5012
I0
I1
tp5013
Rp5014
(I3
S'|'
p5015
NNNI3
I1
I0
tp5016
bS'P28'
p5017
tp5018
Rp5019
ag931
(g570
(S'S2'
p5020
I0
I1
tp5021
Rp5022
(I3
S'|'
p5023
NNNI2
I1
I0
tp5024
bS'P1'
p5025
tp5026
Rp5027
ag931
(g570
(S'S3'
p5028
I0
I1
tp5029
Rp5030
(I3
S'|'
p5031
NNNI3
I1
I0
tp5032
bS'P38'
p5033
tp5034
Rp5035
ag931
(g570
(S'S3'
p5036
I0
I1
tp5037
Rp5038
(I3
S'|'
p5039
NNNI3
I1
I0
tp5040
bS'P12'
p5041
tp5042
Rp5043
ag931
(g570
(S'S2'
p5044
I0
I1
tp5045
Rp5046
(I3
S'|'
p5047
NNNI2
I1
I0
tp5048
bS'P8'
p5049
tp5050
Rp5051
ag931
(g570
(S'S3'
p5052
I0
I1
tp5053
Rp5054
(I3
S'|'
p5055
NNNI3
I1
I0
tp5056
bS'P11'
p5057
tp5058
Rp5059
ag931
(g570
(S'S3'
p5060
I0
I1
tp5061
Rp5062
(I3
S'|'
p5063
NNNI3
I1
I0
tp5064
bS'P40'
p5065
tp5066
Rp5067
ag931
(g570
(S'S3'
p5068
I0
I1
tp5069
Rp5070
(I3
S'|'
p5071
NNNI3
I1
I0
tp5072
bS'P10'
p5073
tp5074
Rp5075
ag931
(g570
(S'S2'
p5076
I0
I1
tp5077
Rp5078
(I3
S'|'
p5079
NNNI2
I1
I0
tp5080
bS'P4'
p5081
tp5082
Rp5083
ag931
(g570
(S'S2'
p5084
I0
I1
tp5085
Rp5086
(I3
S'|'
p5087
NNNI2
I1
I0
tp5088
bS'P7'
p5089
tp5090
Rp5091
ag931
(g570
(S'S3'
p5092
I0
I1
tp5093
Rp5094
(I3
S'|'
p5095
NNNI3
I1
I0
tp5096
bS'P25'
p5097
tp5098
Rp5099
ag931
(g570
(S'S3'
p5100
I0
I1
tp5101
Rp5102
(I3
S'|'
p5103
NNNI3
I1
I0
tp5104
bS'P17'
p5105
tp5106
Rp5107
ag931
(g570
(S'S3'
p5108
I0
I1
tp5109
Rp5110
(I3
S'|'
p5111
NNNI3
I1
I0
tp5112
bS'P32'
p5113
tp5114
Rp5115
ag931
(g570
(S'S3'
p5116
I0
I1
tp5117
Rp5118
(I3
S'|'
p5119
NNNI3
I1
I0
tp5120
bS'P37'
p5121
tp5122
Rp5123
ag931
(g570
(S'S2'
p5124
I0
I1
tp5125
Rp5126
(I3
S'|'
p5127
NNNI2
I1
I0
tp5128
bS'P5'
p5129
tp5130
Rp5131
ag931
(g570
(S'S3'
p5132
I0
I1
tp5133
Rp5134
(I3
S'|'
p5135
NNNI3
I1
I0
tp5136
bS'P20'
p5137
tp5138
Rp5139
ag931
(g570
(S'S3'
p5140
I0
I1
tp5141
Rp5142
(I3
S'|'
p5143
NNNI3
I1
I0
tp5144
bS'P18'
p5145
tp5146
Rp5147
aa(lp5148
g931
(g570
(S'S2'
p5149
I0
I1
tp5150
Rp5151
(I3
S'|'
p5152
NNNI2
I1
I0
tp5153
bS'P1'
p5154
tp5155
Rp5156
ag931
(g570
(S'S3'
p5157
I0
I1
tp5158
Rp5159
(I3
S'|'
p5160
NNNI3
I1
I0
tp5161
bS'P26'
p5162
tp5163
Rp5164
aa(lp5165
g931
(g570
(S'S3'
p5166
I0
I1
tp5167
Rp5168
(I3
S'|'
p5169
NNNI3
I1
I0
tp5170
bS'P13'
p5171
tp5172
Rp5173
ag931
(g570
(S'S3'
p5174
I0
I1
tp5175
Rp5176
(I3
S'|'
p5177
NNNI3
I1
I0
tp5178
bS'P11'
p5179
tp5180
Rp5181
ag931
(g570
(S'S3'
p5182
I0
I1
tp5183
Rp5184
(I3
S'|'
p5185
NNNI3
I1
I0
tp5186
bS'P39'
p5187
tp5188
Rp5189
ag931
(g570
(S'S2'
p5190
I0
I1
tp5191
Rp5192
(I3
S'|'
p5193
NNNI2
I1
I0
tp5194
bS'P5'
p5195
tp5196
Rp5197
ag931
(g570
(S'S3'
p5198
I0
I1
tp5199
Rp5200
(I3
S'|'
p5201
NNNI3
I1
I0
tp5202
bS'P14'
p5203
tp5204
Rp5205
aa(lp5206
g931
(g570
(S'S2'
p5207
I0
I1
tp5208
Rp5209
(I3
S'|'
p5210
NNNI2
I1
I0
tp5211
bS'P5'
p5212
tp5213
Rp5214
ag931
(g570
(S'S3'
p5215
I0
I1
tp5216
Rp5217
(I3
S'|'
p5218
NNNI3
I1
I0
tp5219
bS'P10'
p5220
tp5221
Rp5222
ag931
(g570
(S'S3'
p5223
I0
I1
tp5224
Rp5225
(I3
S'|'
p5226
NNNI3
I1
I0
tp5227
bS'P25'
p5228
tp5229
Rp5230
ag931
(g570
(S'S2'
p5231
I0
I1
tp5232
Rp5233
(I3
S'|'
p5234
NNNI2
I1
I0
tp5235
bS'P1'
p5236
tp5237
Rp5238
ag931
(g570
(S'S3'
p5239
I0
I1
tp5240
Rp5241
(I3
S'|'
p5242
NNNI3
I1
I0
tp5243
bS'P18'
p5244
tp5245
Rp5246
ag931
(g570
(S'S3'
p5247
I0
I1
tp5248
Rp5249
(I3
S'|'
p5250
NNNI3
I1
I0
tp5251
bS'P35'
p5252
tp5253
Rp5254
ag931
(g570
(S'S2'
p5255
I0
I1
tp5256
Rp5257
(I3
S'|'
p5258
NNNI2
I1
I0
tp5259
bS'P8'
p5260
tp5261
Rp5262
ag931
(g570
(S'S3'
p5263
I0
I1
tp5264
Rp5265
(I3
S'|'
p5266
NNNI3
I1
I0
tp5267
bS'P14'
p5268
tp5269
Rp5270
ag931
(g570
(S'S3'
p5271
I0
I1
tp5272
Rp5273
(I3
S'|'
p5274
NNNI3
I1
I0
tp5275
bS'P26'
p5276
tp5277
Rp5278
ag931
(g570
(S'S3'
p5279
I0
I1
tp5280
Rp5281
(I3
S'|'
p5282
NNNI3
I1
I0
tp5283
bS'P24'
p5284
tp5285
Rp5286
ag931
(g570
(S'S2'
p5287
I0
I1
tp5288
Rp5289
(I3
S'|'
p5290
NNNI2
I1
I0
tp5291
bS'P2'
p5292
tp5293
Rp5294
ag931
(g570
(S'S2'
p5295
I0
I1
tp5296
Rp5297
(I3
S'|'
p5298
NNNI2
I1
I0
tp5299
bS'P7'
p5300
tp5301
Rp5302
ag931
(g570
(S'S3'
p5303
I0
I1
tp5304
Rp5305
(I3
S'|'
p5306
NNNI3
I1
I0
tp5307
bS'P20'
p5308
tp5309
Rp5310
ag931
(g570
(S'S3'
p5311
I0
I1
tp5312
Rp5313
(I3
S'|'
p5314
NNNI3
I1
I0
tp5315
bS'P27'
p5316
tp5317
Rp5318
ag931
(g570
(S'S3'
p5319
I0
I1
tp5320
Rp5321
(I3
S'|'
p5322
NNNI3
I1
I0
tp5323
bS'P30'
p5324
tp5325
Rp5326
ag931
(g570
(S'S3'
p5327
I0
I1
tp5328
Rp5329
(I3
S'|'
p5330
NNNI3
I1
I0
tp5331
bS'P11'
p5332
tp5333
Rp5334
ag931
(g570
(S'S2'
p5335
I0
I1
tp5336
Rp5337
(I3
S'|'
p5338
NNNI2
I1
I0
tp5339
bS'P9'
p5340
tp5341
Rp5342
ag931
(g570
(S'S3'
p5343
I0
I1
tp5344
Rp5345
(I3
S'|'
p5346
NNNI3
I1
I0
tp5347
bS'P29'
p5348
tp5349
Rp5350
ag931
(g570
(S'S3'
p5351
I0
I1
tp5352
Rp5353
(I3
S'|'
p5354
NNNI3
I1
I0
tp5355
bS'P23'
p5356
tp5357
Rp5358
ag931
(g570
(S'S3'
p5359
I0
I1
tp5360
Rp5361
(I3
S'|'
p5362
NNNI3
I1
I0
tp5363
bS'P15'
p5364
tp5365
Rp5366
ag931
(g570
(S'S3'
p5367
I0
I1
tp5368
Rp5369
(I3
S'|'
p5370
NNNI3
I1
I0
tp5371
bS'P40'
p5372
tp5373
Rp5374
ag931
(g570
(S'S3'
p5375
I0
I1
tp5376
Rp5377
(I3
S'|'
p5378
NNNI3
I1
I0
tp5379
bS'P32'
p5380
tp5381
Rp5382
ag931
(g570
(S'S3'
p5383
I0
I1
tp5384
Rp5385
(I3
S'|'
p5386
NNNI3
I1
I0
tp5387
bS'P17'
p5388
tp5389
Rp5390
ag931
(g570
(S'S3'
p5391
I0
I1
tp5392
Rp5393
(I3
S'|'
p5394
NNNI3
I1
I0
tp5395
bS'P31'
p5396
tp5397
Rp5398
ag931
(g570
(S'S2'
p5399
I0
I1
tp5400
Rp5401
(I3
S'|'
p5402
NNNI2
I1
I0
tp5403
bS'P4'
p5404
tp5405
Rp5406
ag931
(g570
(S'S3'
p5407
I0
I1
tp5408
Rp5409
(I3
S'|'
p5410
NNNI3
I1
I0
tp5411
bS'P21'
p5412
tp5413
Rp5414
ag931
(g570
(S'S3'
p5415
I0
I1
tp5416
Rp5417
(I3
S'|'
p5418
NNNI3
I1
I0
tp5419
bS'P19'
p5420
tp5421
Rp5422
ag931
(g570
(S'S3'
p5423
I0
I1
tp5424
Rp5425
(I3
S'|'
p5426
NNNI3
I1
I0
tp5427
bS'P38'
p5428
tp5429
Rp5430
ag931
(g570
(S'S3'
p5431
I0
I1
tp5432
Rp5433
(I3
S'|'
p5434
NNNI3
I1
I0
tp5435
bS'P33'
p5436
tp5437
Rp5438
ag931
(g570
(S'S3'
p5439
I0
I1
tp5440
Rp5441
(I3
S'|'
p5442
NNNI3
I1
I0
tp5443
bS'P37'
p5444
tp5445
Rp5446
ag931
(g570
(S'S2'
p5447
I0
I1
tp5448
Rp5449
(I3
S'|'
p5450
NNNI2
I1
I0
tp5451
bS'P6'
p5452
tp5453
Rp5454
ag931
(g570
(S'S3'
p5455
I0
I1
tp5456
Rp5457
(I3
S'|'
p5458
NNNI3
I1
I0
tp5459
bS'P28'
p5460
tp5461
Rp5462
ag931
(g570
(S'S3'
p5463
I0
I1
tp5464
Rp5465
(I3
S'|'
p5466
NNNI3
I1
I0
tp5467
bS'P16'
p5468
tp5469
Rp5470
aa(lp5471
g931
(g570
(S'S2'
p5472
I0
I1
tp5473
Rp5474
(I3
S'|'
p5475
NNNI2
I1
I0
tp5476
bS'P4'
p5477
tp5478
Rp5479
ag931
(g570
(S'S3'
p5480
I0
I1
tp5481
Rp5482
(I3
S'|'
p5483
NNNI3
I1
I0
tp5484
bS'P32'
p5485
tp5486
Rp5487
ag931
(g570
(S'S3'
p5488
I0
I1
tp5489
Rp5490
(I3
S'|'
p5491
NNNI3
I1
I0
tp5492
bS'P34'
p5493
tp5494
Rp5495
ag931
(g570
(S'S3'
p5496
I0
I1
tp5497
Rp5498
(I3
S'|'
p5499
NNNI3
I1
I0
tp5500
bS'P14'
p5501
tp5502
Rp5503
ag931
(g570
(S'S3'
p5504
I0
I1
tp5505
Rp5506
(I3
S'|'
p5507
NNNI3
I1
I0
tp5508
bS'P13'
p5509
tp5510
Rp5511
ag931
(g570
(S'S3'
p5512
I0
I1
tp5513
Rp5514
(I3
S'|'
p5515
NNNI3
I1
I0
tp5516
bS'P12'
p5517
tp5518
Rp5519
ag931
(g570
(S'S3'
p5520
I0
I1
tp5521
Rp5522
(I3
S'|'
p5523
NNNI3
I1
I0
tp5524
bS'P11'
p5525
tp5526
Rp5527
ag931
(g570
(S'S3'
p5528
I0
I1
tp5529
Rp5530
(I3
S'|'
p5531
NNNI3
I1
I0
tp5532
bS'P24'
p5533
tp5534
Rp5535
aa(lp5536
g931
(g570
(S'S3'
p5537
I0
I1
tp5538
Rp5539
(I3
S'|'
p5540
NNNI3
I1
I0
tp5541
bS'P40'
p5542
tp5543
Rp5544
ag931
(g570
(S'S2'
p5545
I0
I1
tp5546
Rp5547
(I3
S'|'
p5548
NNNI2
I1
I0
tp5549
bS'P2'
p5550
tp5551
Rp5552
ag931
(g570
(S'S3'
p5553
I0
I1
tp5554
Rp5555
(I3
S'|'
p5556
NNNI3
I1
I0
tp5557
bS'P27'
p5558
tp5559
Rp5560
ag931
(g570
(S'S2'
p5561
I0
I1
tp5562
Rp5563
(I3
S'|'
p5564
NNNI2
I1
I0
tp5565
bS'P8'
p5566
tp5567
Rp5568
aa(lp5569
g931
(g570
(S'S3'
p5570
I0
I1
tp5571
Rp5572
(I3
S'|'
p5573
NNNI3
I1
I0
tp5574
bS'P36'
p5575
tp5576
Rp5577
ag931
(g570
(S'S3'
p5578
I0
I1
tp5579
Rp5580
(I3
S'|'
p5581
NNNI3
I1
I0
tp5582
bS'P17'
p5583
tp5584
Rp5585
ag931
(g570
(S'S3'
p5586
I0
I1
tp5587
Rp5588
(I3
S'|'
p5589
NNNI3
I1
I0
tp5590
bS'P29'
p5591
tp5592
Rp5593
ag931
(g570
(S'S3'
p5594
I0
I1
tp5595
Rp5596
(I3
S'|'
p5597
NNNI3
I1
I0
tp5598
bS'P15'
p5599
tp5600
Rp5601
ag931
(g570
(S'S3'
p5602
I0
I1
tp5603
Rp5604
(I3
S'|'
p5605
NNNI3
I1
I0
tp5606
bS'P40'
p5607
tp5608
Rp5609
ag931
(g570
(S'S3'
p5610
I0
I1
tp5611
Rp5612
(I3
S'|'
p5613
NNNI3
I1
I0
tp5614
bS'P25'
p5615
tp5616
Rp5617
ag931
(g570
(S'S3'
p5618
I0
I1
tp5619
Rp5620
(I3
S'|'
p5621
NNNI3
I1
I0
tp5622
bS'P24'
p5623
tp5624
Rp5625
ag931
(g570
(S'S3'
p5626
I0
I1
tp5627
Rp5628
(I3
S'|'
p5629
NNNI3
I1
I0
tp5630
bS'P18'
p5631
tp5632
Rp5633
ag931
(g570
(S'S2'
p5634
I0
I1
tp5635
Rp5636
(I3
S'|'
p5637
NNNI2
I1
I0
tp5638
bS'P8'
p5639
tp5640
Rp5641
ag931
(g570
(S'S2'
p5642
I0
I1
tp5643
Rp5644
(I3
S'|'
p5645
NNNI2
I1
I0
tp5646
bS'P7'
p5647
tp5648
Rp5649
ag931
(g570
(S'S3'
p5650
I0
I1
tp5651
Rp5652
(I3
S'|'
p5653
NNNI3
I1
I0
tp5654
bS'P35'
p5655
tp5656
Rp5657
ag931
(g570
(S'S2'
p5658
I0
I1
tp5659
Rp5660
(I3
S'|'
p5661
NNNI2
I1
I0
tp5662
bS'P9'
p5663
tp5664
Rp5665
ag931
(g570
(S'S2'
p5666
I0
I1
tp5667
Rp5668
(I3
S'|'
p5669
NNNI2
I1
I0
tp5670
bS'P5'
p5671
tp5672
Rp5673
ag931
(g570
(S'S3'
p5674
I0
I1
tp5675
Rp5676
(I3
S'|'
p5677
NNNI3
I1
I0
tp5678
bS'P33'
p5679
tp5680
Rp5681
ag931
(g570
(S'S3'
p5682
I0
I1
tp5683
Rp5684
(I3
S'|'
p5685
NNNI3
I1
I0
tp5686
bS'P34'
p5687
tp5688
Rp5689
ag931
(g570
(S'S2'
p5690
I0
I1
tp5691
Rp5692
(I3
S'|'
p5693
NNNI2
I1
I0
tp5694
bS'P3'
p5695
tp5696
Rp5697
ag931
(g570
(S'S2'
p5698
I0
I1
tp5699
Rp5700
(I3
S'|'
p5701
NNNI2
I1
I0
tp5702
bS'P2'
p5703
tp5704
Rp5705
ag931
(g570
(S'S3'
p5706
I0
I1
tp5707
Rp5708
(I3
S'|'
p5709
NNNI3
I1
I0
tp5710
bS'P11'
p5711
tp5712
Rp5713
ag931
(g570
(S'S3'
p5714
I0
I1
tp5715
Rp5716
(I3
S'|'
p5717
NNNI3
I1
I0
tp5718
bS'P39'
p5719
tp5720
Rp5721
ag931
(g570
(S'S3'
p5722
I0
I1
tp5723
Rp5724
(I3
S'|'
p5725
NNNI3
I1
I0
tp5726
bS'P38'
p5727
tp5728
Rp5729
ag931
(g570
(S'S3'
p5730
I0
I1
tp5731
Rp5732
(I3
S'|'
p5733
NNNI3
I1
I0
tp5734
bS'P16'
p5735
tp5736
Rp5737
ag931
(g570
(S'S3'
p5738
I0
I1
tp5739
Rp5740
(I3
S'|'
p5741
NNNI3
I1
I0
tp5742
bS'P14'
p5743
tp5744
Rp5745
ag931
(g570
(S'S2'
p5746
I0
I1
tp5747
Rp5748
(I3
S'|'
p5749
NNNI2
I1
I0
tp5750
bS'P4'
p5751
tp5752
Rp5753
ag931
(g570
(S'S3'
p5754
I0
I1
tp5755
Rp5756
(I3
S'|'
p5757
NNNI3
I1
I0
tp5758
bS'P27'
p5759
tp5760
Rp5761
ag931
(g570
(S'S3'
p5762
I0
I1
tp5763
Rp5764
(I3
S'|'
p5765
NNNI3
I1
I0
tp5766
bS'P20'
p5767
tp5768
Rp5769
ag931
(g570
(S'S3'
p5770
I0
I1
tp5771
Rp5772
(I3
S'|'
p5773
NNNI3
I1
I0
tp5774
bS'P26'
p5775
tp5776
Rp5777
aa(lp5778
g931
(g570
(S'S3'
p5779
I0
I1
tp5780
Rp5781
(I3
S'|'
p5782
NNNI3
I1
I0
tp5783
bS'P14'
p5784
tp5785
Rp5786
ag931
(g570
(S'S3'
p5787
I0
I1
tp5788
Rp5789
(I3
S'|'
p5790
NNNI3
I1
I0
tp5791
bS'P32'
p5792
tp5793
Rp5794
ag931
(g570
(S'S3'
p5795
I0
I1
tp5796
Rp5797
(I3
S'|'
p5798
NNNI3
I1
I0
tp5799
bS'P16'
p5800
tp5801
Rp5802
ag931
(g570
(S'S3'
p5803
I0
I1
tp5804
Rp5805
(I3
S'|'
p5806
NNNI3
I1
I0
tp5807
bS'P17'
p5808
tp5809
Rp5810
ag931
(g570
(S'S3'
p5811
I0
I1
tp5812
Rp5813
(I3
S'|'
p5814
NNNI3
I1
I0
tp5815
bS'P29'
p5816
tp5817
Rp5818
ag931
(g570
(S'S3'
p5819
I0
I1
tp5820
Rp5821
(I3
S'|'
p5822
NNNI3
I1
I0
tp5823
bS'P33'
p5824
tp5825
Rp5826
ag931
(g570
(S'S3'
p5827
I0
I1
tp5828
Rp5829
(I3
S'|'
p5830
NNNI3
I1
I0
tp5831
bS'P28'
p5832
tp5833
Rp5834
ag931
(g570
(S'S3'
p5835
I0
I1
tp5836
Rp5837
(I3
S'|'
p5838
NNNI3
I1
I0
tp5839
bS'P27'
p5840
tp5841
Rp5842
ag931
(g570
(S'S3'
p5843
I0
I1
tp5844
Rp5845
(I3
S'|'
p5846
NNNI3
I1
I0
tp5847
bS'P34'
p5848
tp5849
Rp5850
ag931
(g570
(S'S3'
p5851
I0
I1
tp5852
Rp5853
(I3
S'|'
p5854
NNNI3
I1
I0
tp5855
bS'P13'
p5856
tp5857
Rp5858
ag931
(g570
(S'S3'
p5859
I0
I1
tp5860
Rp5861
(I3
S'|'
p5862
NNNI3
I1
I0
tp5863
bS'P21'
p5864
tp5865
Rp5866
ag931
(g570
(S'S2'
p5867
I0
I1
tp5868
Rp5869
(I3
S'|'
p5870
NNNI2
I1
I0
tp5871
bS'P7'
p5872
tp5873
Rp5874
ag931
(g570
(S'S3'
p5875
I0
I1
tp5876
Rp5877
(I3
S'|'
p5878
NNNI3
I1
I0
tp5879
bS'P38'
p5880
tp5881
Rp5882
ag931
(g570
(S'S2'
p5883
I0
I1
tp5884
Rp5885
(I3
S'|'
p5886
NNNI2
I1
I0
tp5887
bS'P6'
p5888
tp5889
Rp5890
ag931
(g570
(S'S3'
p5891
I0
I1
tp5892
Rp5893
(I3
S'|'
p5894
NNNI3
I1
I0
tp5895
bS'P10'
p5896
tp5897
Rp5898
ag931
(g570
(S'S3'
p5899
I0
I1
tp5900
Rp5901
(I3
S'|'
p5902
NNNI3
I1
I0
tp5903
bS'P26'
p5904
tp5905
Rp5906
ag931
(g570
(S'S2'
p5907
I0
I1
tp5908
Rp5909
(I3
S'|'
p5910
NNNI2
I1
I0
tp5911
bS'P3'
p5912
tp5913
Rp5914
ag931
(g570
(S'S3'
p5915
I0
I1
tp5916
Rp5917
(I3
S'|'
p5918
NNNI3
I1
I0
tp5919
bS'P25'
p5920
tp5921
Rp5922
ag931
(g570
(S'S3'
p5923
I0
I1
tp5924
Rp5925
(I3
S'|'
p5926
NNNI3
I1
I0
tp5927
bS'P30'
p5928
tp5929
Rp5930
ag931
(g570
(S'S2'
p5931
I0
I1
tp5932
Rp5933
(I3
S'|'
p5934
NNNI2
I1
I0
tp5935
bS'P9'
p5936
tp5937
Rp5938
ag931
(g570
(S'S3'
p5939
I0
I1
tp5940
Rp5941
(I3
S'|'
p5942
NNNI3
I1
I0
tp5943
bS'P36'
p5944
tp5945
Rp5946
ag931
(g570
(S'S3'
p5947
I0
I1
tp5948
Rp5949
(I3
S'|'
p5950
NNNI3
I1
I0
tp5951
bS'P15'
p5952
tp5953
Rp5954
ag931
(g570
(S'S2'
p5955
I0
I1
tp5956
Rp5957
(I3
S'|'
p5958
NNNI2
I1
I0
tp5959
bS'P5'
p5960
tp5961
Rp5962
ag931
(g570
(S'S3'
p5963
I0
I1
tp5964
Rp5965
(I3
S'|'
p5966
NNNI3
I1
I0
tp5967
bS'P24'
p5968
tp5969
Rp5970
ag931
(g570
(S'S3'
p5971
I0
I1
tp5972
Rp5973
(I3
S'|'
p5974
NNNI3
I1
I0
tp5975
bS'P19'
p5976
tp5977
Rp5978
ag931
(g570
(S'S2'
p5979
I0
I1
tp5980
Rp5981
(I3
S'|'
p5982
NNNI2
I1
I0
tp5983
bS'P4'
p5984
tp5985
Rp5986
ag931
(g570
(S'S3'
p5987
I0
I1
tp5988
Rp5989
(I3
S'|'
p5990
NNNI3
I1
I0
tp5991
bS'P11'
p5992
tp5993
Rp5994
ag931
(g570
(S'S3'
p5995
I0
I1
tp5996
Rp5997
(I3
S'|'
p5998
NNNI3
I1
I0
tp5999
bS'P22'
p6000
tp6001
Rp6002
aa(lp6003
g931
(g570
(S'S2'
p6004
I0
I1
tp6005
Rp6006
(I3
S'|'
p6007
NNNI2
I1
I0
tp6008
bS'P2'
p6009
tp6010
Rp6011
ag931
(g570
(S'S3'
p6012
I0
I1
tp6013
Rp6014
(I3
S'|'
p6015
NNNI3
I1
I0
tp6016
bS'P23'
p6017
tp6018
Rp6019
ag931
(g570
(S'S3'
p6020
I0
I1
tp6021
Rp6022
(I3
S'|'
p6023
NNNI3
I1
I0
tp6024
bS'P34'
p6025
tp6026
Rp6027
ag931
(g570
(S'S3'
p6028
I0
I1
tp6029
Rp6030
(I3
S'|'
p6031
NNNI3
I1
I0
tp6032
bS'P40'
p6033
tp6034
Rp6035
ag931
(g570
(S'S3'
p6036
I0
I1
tp6037
Rp6038
(I3
S'|'
p6039
NNNI3
I1
I0
tp6040
bS'P15'
p6041
tp6042
Rp6043
ag931
(g570
(S'S3'
p6044
I0
I1
tp6045
Rp6046
(I3
S'|'
p6047
NNNI3
I1
I0
tp6048
bS'P38'
p6049
tp6050
Rp6051
ag931
(g570
(S'S3'
p6052
I0
I1
tp6053
Rp6054
(I3
S'|'
p6055
NNNI3
I1
I0
tp6056
bS'P37'
p6057
tp6058
Rp6059
ag931
(g570
(S'S3'
p6060
I0
I1
tp6061
Rp6062
(I3
S'|'
p6063
NNNI3
I1
I0
tp6064
bS'P16'
p6065
tp6066
Rp6067
ag931
(g570
(S'S2'
p6068
I0
I1
tp6069
Rp6070
(I3
S'|'
p6071
NNNI2
I1
I0
tp6072
bS'P7'
p6073
tp6074
Rp6075
ag931
(g570
(S'S3'
p6076
I0
I1
tp6077
Rp6078
(I3
S'|'
p6079
NNNI3
I1
I0
tp6080
bS'P30'
p6081
tp6082
Rp6083
ag931
(g570
(S'S3'
p6084
I0
I1
tp6085
Rp6086
(I3
S'|'
p6087
NNNI3
I1
I0
tp6088
bS'P25'
p6089
tp6090
Rp6091
ag931
(g570
(S'S3'
p6092
I0
I1
tp6093
Rp6094
(I3
S'|'
p6095
NNNI3
I1
I0
tp6096
bS'P36'
p6097
tp6098
Rp6099
ag931
(g570
(S'S3'
p6100
I0
I1
tp6101
Rp6102
(I3
S'|'
p6103
NNNI3
I1
I0
tp6104
bS'P20'
p6105
tp6106
Rp6107
ag931
(g570
(S'S3'
p6108
I0
I1
tp6109
Rp6110
(I3
S'|'
p6111
NNNI3
I1
I0
tp6112
bS'P22'
p6113
tp6114
Rp6115
ag931
(g570
(S'S3'
p6116
I0
I1
tp6117
Rp6118
(I3
S'|'
p6119
NNNI3
I1
I0
tp6120
bS'P11'
p6121
tp6122
Rp6123
ag931
(g570
(S'S3'
p6124
I0
I1
tp6125
Rp6126
(I3
S'|'
p6127
NNNI3
I1
I0
tp6128
bS'P27'
p6129
tp6130
Rp6131
ag931
(g570
(S'S3'
p6132
I0
I1
tp6133
Rp6134
(I3
S'|'
p6135
NNNI3
I1
I0
tp6136
bS'P28'
p6137
tp6138
Rp6139
ag931
(g570
(S'S2'
p6140
I0
I1
tp6141
Rp6142
(I3
S'|'
p6143
NNNI2
I1
I0
tp6144
bS'P1'
p6145
tp6146
Rp6147
ag931
(g570
(S'S2'
p6148
I0
I1
tp6149
Rp6150
(I3
S'|'
p6151
NNNI2
I1
I0
tp6152
bS'P6'
p6153
tp6154
Rp6155
ag931
(g570
(S'S3'
p6156
I0
I1
tp6157
Rp6158
(I3
S'|'
p6159
NNNI3
I1
I0
tp6160
bS'P39'
p6161
tp6162
Rp6163
ag931
(g570
(S'S3'
p6164
I0
I1
tp6165
Rp6166
(I3
S'|'
p6167
NNNI3
I1
I0
tp6168
bS'P26'
p6169
tp6170
Rp6171
ag931
(g570
(S'S2'
p6172
I0
I1
tp6173
Rp6174
(I3
S'|'
p6175
NNNI2
I1
I0
tp6176
bS'P3'
p6177
tp6178
Rp6179
ag931
(g570
(S'S3'
p6180
I0
I1
tp6181
Rp6182
(I3
S'|'
p6183
NNNI3
I1
I0
tp6184
bS'P35'
p6185
tp6186
Rp6187
ag931
(g570
(S'S3'
p6188
I0
I1
tp6189
Rp6190
(I3
S'|'
p6191
NNNI3
I1
I0
tp6192
bS'P29'
p6193
tp6194
Rp6195
ag931
(g570
(S'S3'
p6196
I0
I1
tp6197
Rp6198
(I3
S'|'
p6199
NNNI3
I1
I0
tp6200
bS'P14'
p6201
tp6202
Rp6203
ag931
(g570
(S'S3'
p6204
I0
I1
tp6205
Rp6206
(I3
S'|'
p6207
NNNI3
I1
I0
tp6208
bS'P31'
p6209
tp6210
Rp6211
aasS'delta_fix'
p6212
(lp6213
g931
(g570
(S'f8'
p6214
I0
I1
tp6215
Rp6216
(I3
S'<'
p6217
NNNI-1
I-1
I0
tp6218
bS'*|\xc5\xaa\\\xddd@'
p6219
tp6220
Rp6221
ag931
(g6216
S'?:(\x00\x0bL_@'
p6222
tp6223
Rp6224
ag931
(g6216
S'{\\\x8a\x9c? c@'
p6225
tp6226
Rp6227
ag931
(g6216
S'*|\xc5\xaa\\\xddd@'
p6228
tp6229
Rp6230
ag931
(g6216
S'\xe2\xfa\xb1\xe3\xd0\xd1[@'
p6231
tp6232
Rp6233
ag931
(g6216
S'\xcd<O\x8e"ca@'
p6234
tp6235
Rp6236
ag931
(g6216
S'*|\xc5\xaa\\\xddd@'
p6237
tp6238
Rp6239
ag931
(g6216
S'?:(\x00\x0bL_@'
p6240
tp6241
Rp6242
ag931
(g6216
S'\xe2\xfa\xb1\xe3\xd0\xd1[@'
p6243
tp6244
Rp6245
ag931
(g6216
S'\xe2\xfa\xb1\xe3\xd0\xd1[@'
p6246
tp6247
Rp6248
ag931
(g6216
S'{\\\x8a\x9c? c@'
p6249
tp6250
Rp6251
ag931
(g6216
S'?:(\x00\x0bL_@'
p6252
tp6253
Rp6254
ag931
(g6216
S'\xcd<O\x8e"ca@'
p6255
tp6256
Rp6257
ag931
(g6216
S'?:(\x00\x0bL_@'
p6258
tp6259
Rp6260
ag931
(g6216
S'*|\xc5\xaa\\\xddd@'
p6261
tp6262
Rp6263
ag931
(g6216
S'?:(\x00\x0bL_@'
p6264
tp6265
Rp6266
ag931
(g6216
S'\xcd<O\x8e"ca@'
p6267
tp6268
Rp6269
ag931
(g6216
S'\xe2\xfa\xb1\xe3\xd0\xd1[@'
p6270
tp6271
Rp6272
ag931
(g6216
S'{\\\x8a\x9c? c@'
p6273
tp6274
Rp6275
ag931
(g6216
S'{\\\x8a\x9c? c@'
p6276
tp6277
Rp6278
ag931
(g6216
S'\xcd<O\x8e"ca@'
p6279
tp6280
Rp6281
ag931
(g6216
S'\xe2\xfa\xb1\xe3\xd0\xd1[@'
p6282
tp6283
Rp6284
ag931
(g6216
S'*|\xc5\xaa\\\xddd@'
p6285
tp6286
Rp6287
ag931
(g6216
S'\xcd<O\x8e"ca@'
p6288
tp6289
Rp6290
ag931
(g6216
S'\xe2\xfa\xb1\xe3\xd0\xd1[@'
p6291
tp6292
Rp6293
asS'delta'
p6294
(lp6295
F0.013059927944778433
aF0.0026664785451459504
aF0.0035658895452546934
aF0.006643956053773055
aF0.0072587001820436136
aF0.008585457539686682
aF0.008975435446505711
aF0.012604107523111507
aF0.001202596397083101
aF0.0026771506319116668
aF0.009223003124761976
aF0.013805143800824133
aF0.00289902004437131
aF0.008993607112379697
aF0.006300934202266822
aF0.007630117616561356
aF0.020030584903729554
aF0.002258942522174281
aF0.017770864350763416
aF0.0013962321949933943
aF0.006587531399110237
aF0.003694458778585277
aF0.010559545708151884
aF0.004492558186108967
aF0.015369079788618423
asS'alpha'
p6296
(lp6297
(lp6298
g521
aS'4.85'
p6299
ag521
aS'5.12'
p6300
ag521
ag521
ag521
ag521
aS'5.32'
p6301
ag521
ag521
ag521
aS'3.67'
p6302
ag521
ag521
aS'8.98'
p6303
aS'9.60'
p6304
aS'16.88'
p6305
ag521
aS'4.36'
p6306
ag521
ag521
ag521
ag521
aS'0.84'
p6307
aa(lp6308
g521
aS'4.77'
p6309
aS'19.97'
p6310
aS'4.50'
p6311
ag521
aS'1.50'
p6312
ag521
ag521
aS'9.06'
p6313
aS'7.14'
p6314
ag521
aS'18.58'
p6315
ag521
ag521
ag521
ag521
ag521
ag521
ag521
aS'29.32'
p6316
ag521
aS'13.86'
p6317
aS'3.24'
p6318
ag521
aS'3.99'
p6319
aa(lp6320
g521
aS'11.11'
p6321
aS'11.34'
p6322
aS'11.76'
p6323
aS'12.58'
p6324
ag521
ag521
ag521
aS'3.70'
p6325
aS'9.93'
p6326
aS'4.19'
p6327
aS'20.89'
p6328
ag521
ag521
aS'8.07'
p6329
ag521
aS'1.29'
p6330
ag521
ag521
ag521
ag521
ag521
aS'2.70'
p6331
aS'5.73'
p6332
aS'12.15'
p6333
aa(lp6334
g521
aS'4.58'
p6335
aS'16.15'
p6336
ag521
ag521
aS'35.12'
p6337
ag521
ag521
aS'2.77'
p6338
aS'7.76'
p6339
aS'10.09'
p6340
aS'16.92'
p6341
ag521
ag521
ag521
ag521
aS'9.97'
p6342
ag521
ag521
aS'17.98'
p6343
aS'7.27'
p6344
ag521
aS'43.96'
p6345
aS'1.77'
p6346
ag521
aa(lp6347
g521
aS'9.20'
p6348
aS'1.81'
p6349
aS'7.78'
p6350
ag521
aS'7.23'
p6351
aS'28.71'
p6352
ag521
ag521
ag521
ag521
aS'2.44'
p6353
ag521
aS'15.82'
p6354
ag521
ag521
aS'26.68'
p6355
ag521
aS'1.64'
p6356
aS'17.01'
p6357
ag521
ag521
aS'14.15'
p6358
aS'6.66'
p6359
ag521
aa(lp6360
S'12.64'
p6361
aS'2.54'
p6362
ag521
aS'19.23'
p6363
ag521
ag521
ag521
aS'6.92'
p6364
ag521
aS'8.13'
p6365
aS'9.18'
p6366
ag521
ag521
ag521
ag521
ag521
ag521
ag521
ag521
aS'5.15'
p6367
ag521
ag521
ag521
aS'4.67'
p6368
aS'13.59'
p6369
aa(lp6370
S'13.04'
p6371
aS'1.38'
p6372
ag521
ag521
aS'2.41'
p6373
aS'7.61'
p6374
ag521
ag521
ag521
ag521
ag521
aS'21.47'
p6375
ag521
ag521
ag521
aS'19.17'
p6376
aS'4.20'
p6377
ag521
ag521
aS'12.25'
p6378
ag521
ag521
aS'4.77'
p6379
aS'2.56'
p6380
aS'12.10'
p6381
aa(lp6382
S'9.23'
p6383
ag521
ag521
aS'9.09'
p6384
ag521
aS'6.38'
p6385
ag521
ag521
ag521
ag521
aS'4.54'
p6386
ag521
aS'7.34'
p6387
ag521
ag521
ag521
aS'6.97'
p6388
ag521
ag521
aS'2.30'
p6389
ag521
aS'2.77'
p6390
aS'10.34'
p6391
ag521
ag521
aa(lp6392
g521
ag521
aS'7.22'
p6393
aS'1.04'
p6394
ag521
aS'4.26'
p6395
aS'8.49'
p6396
ag521
ag521
ag521
aS'8.82'
p6397
ag521
ag521
ag521
ag521
ag521
ag521
ag521
ag521
aS'9.45'
p6398
ag521
ag521
aS'14.76'
p6399
aS'33.89'
p6400
ag521
aa(lp6401
g521
ag521
ag521
aS'12.69'
p6402
aS'6.27'
p6403
aS'12.17'
p6404
ag521
ag521
aS'24.22'
p6405
ag521
ag521
aS'18.25'
p6406
aS'9.44'
p6407
ag521
ag521
ag521
aS'0.53'
p6408
ag521
ag521
aS'8.50'
p6409
ag521
ag521
ag521
aS'7.52'
p6410
ag521
aa(lp6411
g521
ag521
aS'9.40'
p6412
ag521
ag521
ag521
ag521
aS'16.84'
p6413
aS'18.88'
p6414
ag521
ag521
aS'6.25'
p6415
ag521
ag521
aS'21.53'
p6416
ag521
aS'44.74'
p6417
ag521
aS'1.29'
p6418
aS'1.39'
p6419
aS'3.92'
p6420
ag521
aS'9.99'
p6421
aS'21.43'
p6422
aS'5.24'
p6423
aa(lp6424
g521
ag521
aS'13.58'
p6425
ag521
ag521
aS'6.15'
p6426
aS'0.85'
p6427
ag521
aS'1.22'
p6428
aS'3.00'
p6429
aS'1.79'
p6430
ag521
ag521
ag521
aS'8.66'
p6431
ag521
aS'18.47'
p6432
ag521
ag521
ag521
aS'6.74'
p6433
ag521
ag521
ag521
ag521
aa(lp6434
g521
aS'16.07'
p6435
aS'8.65'
p6436
aS'6.80'
p6437
ag521
aS'7.34'
p6438
aS'12.52'
p6439
ag521
ag521
aS'10.36'
p6440
aS'10.98'
p6441
ag521
aS'18.35'
p6442
aS'2.10'
p6443
ag521
aS'10.44'
p6444
ag521
ag521
aS'15.67'
p6445
ag521
aS'2.46'
p6446
ag521
ag521
aS'7.70'
p6447
ag521
aa(lp6448
g521
aS'11.97'
p6449
aS'2.98'
p6450
aS'25.88'
p6451
ag521
aS'18.09'
p6452
ag521
ag521
aS'1.70'
p6453
aS'16.05'
p6454
ag521
ag521
ag521
ag521
ag521
ag521
aS'6.10'
p6455
ag521
aS'8.35'
p6456
aS'2.44'
p6457
aS'12.11'
p6458
ag521
aS'5.70'
p6459
aS'1.29'
p6460
aS'1.68'
p6461
aa(lp6462
g521
aS'2.29'
p6463
aS'22.13'
p6464
aS'13.66'
p6465
aS'16.35'
p6466
aS'1.88'
p6467
ag521
ag521
aS'19.53'
p6468
ag521
aS'6.05'
p6469
ag521
ag521
aS'26.48'
p6470
aS'7.59'
p6471
ag521
aS'3.54'
p6472
ag521
ag521
aS'14.66'
p6473
ag521
ag521
aS'5.61'
p6474
aS'14.46'
p6475
aS'20.88'
p6476
aa(lp6477
S'18.88'
p6478
aS'19.21'
p6479
aS'10.19'
p6480
aS'18.04'
p6481
ag521
ag521
ag521
ag521
ag521
ag521
ag521
ag521
ag521
ag521
aS'26.22'
p6482
ag521
aS'3.23'
p6483
ag521
ag521
aS'18.09'
p6484
ag521
ag521
aS'4.44'
p6485
aS'5.87'
p6486
aS'28.04'
p6487
aa(lp6488
g521
aS'4.41'
p6489
aS'8.80'
p6490
aS'4.68'
p6491
ag521
aS'2.94'
p6492
ag521
aS'1.20'
p6493
aS'7.59'
p6494
aS'5.62'
p6495
ag521
aS'26.21'
p6496
ag521
aS'8.15'
p6497
ag521
ag521
aS'4.20'
p6498
ag521
ag521
aS'11.90'
p6499
ag521
ag521
aS'11.76'
p6500
aS'8.90'
p6501
ag521
aa(lp6502
S'39.11'
p6503
aS'32.48'
p6504
ag521
aS'0.56'
p6505
ag521
aS'6.20'
p6506
ag521
ag521
aS'8.17'
p6507
aS'4.77'
p6508
ag521
aS'11.22'
p6509
ag521
ag521
ag521
ag521
aS'11.91'
p6510
ag521
ag521
aS'6.14'
p6511
ag521
ag521
aS'15.20'
p6512
ag521
ag521
aa(lp6513
S'8.07'
p6514
aS'4.25'
p6515
ag521
aS'2.12'
p6516
ag521
aS'15.70'
p6517
ag521
ag521
ag521
aS'14.33'
p6518
ag521
ag521
ag521
ag521
ag521
aS'6.79'
p6519
aS'17.75'
p6520
ag521
ag521
aS'5.43'
p6521
ag521
ag521
ag521
aS'18.58'
p6522
ag521
aa(lp6523
S'3.65'
p6524
ag521
ag521
aS'7.33'
p6525
ag521
aS'1.33'
p6526
ag521
aS'1.86'
p6527
aS'8.30'
p6528
ag521
ag521
ag521
aS'10.98'
p6529
ag521
ag521
aS'9.27'
p6530
aS'18.76'
p6531
ag521
ag521
aS'9.73'
p6532
ag521
ag521
aS'6.24'
p6533
ag521
aS'9.43'
p6534
aa(lp6535
g521
ag521
aS'11.82'
p6536
aS'5.95'
p6537
aS'6.58'
p6538
aS'11.34'
p6539
ag521
ag521
aS'40.80'
p6540
aS'12.11'
p6541
ag521
aS'1.19'
p6542
ag521
ag521
ag521
ag521
aS'1.21'
p6543
ag521
ag521
aS'4.24'
p6544
ag521
ag521
ag521
aS'7.53'
p6545
ag521
aa(lp6546
g521
aS'3.95'
p6547
aS'5.78'
p6548
aS'4.62'
p6549
aS'8.91'
p6550
aS'3.59'
p6551
ag521
aS'15.79'
p6552
ag521
aS'5.43'
p6553
aS'11.11'
p6554
ag521
aS'10.98'
p6555
aS'23.42'
p6556
ag521
aS'4.55'
p6557
aS'1.37'
p6558
ag521
ag521
ag521
ag521
ag521
ag521
aS'6.52'
p6559
aS'2.05'
p6560
aa(lp6561
S'4.41'
p6562
aS'13.82'
p6563
aS'19.49'
p6564
aS'11.22'
p6565
ag521
aS'18.71'
p6566
aS'13.61'
p6567
ag521
ag521
ag521
aS'5.34'
p6568
aS'37.20'
p6569
ag521
ag521
aS'11.55'
p6570
ag521
aS'4.74'
p6571
ag521
ag521
aS'23.24'
p6572
ag521
ag521
ag521
ag521
aS'38.55'
p6573
aa(lp6574
g521
aS'26.76'
p6575
aS'3.48'
p6576
aS'16.63'
p6577
ag521
aS'5.75'
p6578
ag521
aS'42.27'
p6579
aS'4.86'
p6580
aS'2.58'
p6581
ag521
ag521
ag521
aS'7.78'
p6582
ag521
ag521
ag521
ag521
ag521
aS'3.66'
p6583
aS'10.73'
p6584
ag521
aS'17.89'
p6585
aS'6.16'
p6586
ag521
aa(lp6587
S'8.61'
p6588
aS'3.01'
p6589
aS'1.34'
p6590
aS'5.53'
p6591
ag521
aS'8.53'
p6592
ag521
aS'2.48'
p6593
aS'2.53'
p6594
aS'8.88'
p6595
aS'22.18'
p6596
aS'4.36'
p6597
aS'3.95'
p6598
ag521
aS'4.49'
p6599
ag521
aS'3.63'
p6600
ag521
ag521
aS'18.62'
p6601
ag521
ag521
aS'16.92'
p6602
aS'7.06'
p6603
aS'1.04'
p6604
aa(lp6605
g521
aS'15.23'
p6606
aS'4.16'
p6607
aS'1.59'
p6608
ag521
aS'3.49'
p6609
ag521
ag521
ag521
aS'4.90'
p6610
aS'8.19'
p6611
ag521
ag521
aS'25.71'
p6612
aS'10.60'
p6613
aS'15.01'
p6614
ag521
aS'24.99'
p6615
ag521
aS'10.61'
p6616
ag521
ag521
aS'1.92'
p6617
aS'21.25'
p6618
aS'19.95'
p6619
aa(lp6620
g521
aS'18.21'
p6621
aS'8.46'
p6622
aS'3.44'
p6623
aS'6.05'
p6624
aS'1.63'
p6625
ag521
ag521
aS'6.87'
p6626
ag521
ag521
ag521
ag521
aS'5.06'
p6627
aS'15.35'
p6628
ag521
aS'9.53'
p6629
ag521
ag521
aS'20.22'
p6630
ag521
aS'3.97'
p6631
aS'14.54'
p6632
aS'5.36'
p6633
aS'12.75'
p6634
aa(lp6635
S'5.99'
p6636
aS'26.14'
p6637
ag521
aS'1.66'
p6638
ag521
ag521
ag521
ag521
aS'9.39'
p6639
aS'4.66'
p6640
aS'8.77'
p6641
aS'14.07'
p6642
ag521
ag521
aS'3.53'
p6643
aS'12.00'
p6644
aS'6.74'
p6645
ag521
ag521
aS'5.08'
p6646
ag521
ag521
ag521
aS'7.54'
p6647
aS'17.47'
p6648
aa(lp6649
S'19.67'
p6650
aS'26.41'
p6651
aS'3.83'
p6652
aS'8.37'
p6653
aS'5.86'
p6654
aS'11.79'
p6655
aS'6.61'
p6656
ag521
ag521
ag521
aS'5.75'
p6657
aS'32.34'
p6658
ag521
ag521
aS'8.86'
p6659
ag521
aS'3.60'
p6660
ag521
ag521
aS'8.36'
p6661
ag521
ag521
aS'18.10'
p6662
aS'31.05'
p6663
aS'4.58'
p6664
aa(lp6665
S'3.22'
p6666
aS'4.21'
p6667
aS'1.61'
p6668
aS'2.64'
p6669
aS'30.97'
p6670
aS'16.45'
p6671
ag521
ag521
aS'6.15'
p6672
ag521
aS'5.63'
p6673
ag521
ag521
ag521
aS'5.63'
p6674
aS'6.80'
p6675
ag521
ag521
ag521
aS'7.62'
p6676
ag521
ag521
ag521
aS'2.19'
p6677
aS'15.56'
p6678
aa(lp6679
g521
aS'12.95'
p6680
ag521
ag521
aS'4.77'
p6681
aS'4.13'
p6682
aS'11.40'
p6683
aS'5.03'
p6684
aS'1.15'
p6685
aS'2.76'
p6686
aS'10.05'
p6687
aS'4.91'
p6688
aS'0.73'
p6689
ag521
aS'2.18'
p6690
ag521
ag521
ag521
ag521
aS'9.62'
p6691
ag521
ag521
ag521
ag521
aS'3.63'
p6692
aa(lp6693
g521
aS'7.24'
p6694
aS'19.81'
p6695
aS'4.59'
p6696
aS'18.00'
p6697
aS'7.23'
p6698
aS'6.28'
p6699
ag521
aS'4.92'
p6700
aS'3.08'
p6701
aS'12.50'
p6702
aS'4.71'
p6703
ag521
ag521
ag521
ag521
aS'14.12'
p6704
ag521
ag521
aS'3.13'
p6705
aS'10.61'
p6706
ag521
ag521
aS'2.55'
p6707
ag521
aa(lp6708
S'29.52'
p6709
aS'8.39'
p6710
ag521
aS'11.53'
p6711
ag521
aS'21.29'
p6712
ag521
aS'5.38'
p6713
aS'36.81'
p6714
ag521
aS'5.27'
p6715
ag521
aS'18.98'
p6716
ag521
ag521
ag521
aS'10.56'
p6717
ag521
ag521
aS'1.11'
p6718
ag521
ag521
aS'15.93'
p6719
aS'9.57'
p6720
ag521
aa(lp6721
S'2.52'
p6722
ag521
aS'9.26'
p6723
aS'28.04'
p6724
ag521
ag521
aS'2.37'
p6725
ag521
aS'10.32'
p6726
aS'6.55'
p6727
ag521
aS'3.91'
p6728
ag521
ag521
ag521
aS'2.75'
p6729
aS'4.83'
p6730
ag521
ag521
ag521
aS'18.46'
p6731
ag521
aS'9.26'
p6732
aS'5.50'
p6733
aS'21.76'
p6734
aa(lp6735
g521
aS'3.29'
p6736
ag521
aS'9.11'
p6737
aS'27.71'
p6738
aS'17.90'
p6739
aS'19.10'
p6740
ag521
ag521
ag521
aS'10.15'
p6741
ag521
ag521
ag521
aS'6.64'
p6742
ag521
aS'7.35'
p6743
ag521
ag521
aS'8.92'
p6744
ag521
ag521
aS'9.76'
p6745
ag521
aS'12.00'
p6746
aa(lp6747
g521
aS'1.22'
p6748
aS'9.76'
p6749
aS'8.99'
p6750
aS'14.37'
p6751
aS'1.96'
p6752
aS'12.63'
p6753
ag521
ag521
ag521
ag521
aS'4.28'
p6754
aS'7.72'
p6755
ag521
aS'25.01'
p6756
aS'9.36'
p6757
aS'8.50'
p6758
ag521
ag521
ag521
ag521
ag521
aS'19.98'
p6759
aS'7.55'
p6760
aS'5.64'
p6761
aa(lp6762
S'22.06'
p6763
aS'13.51'
p6764
aS'2.12'
p6765
aS'2.34'
p6766
aS'42.48'
p6767
ag521
ag521
ag521
ag521
aS'11.35'
p6768
ag521
ag521
aS'20.72'
p6769
ag521
ag521
ag521
aS'14.83'
p6770
ag521
ag521
aS'18.50'
p6771
ag521
ag521
ag521
ag521
aS'4.38'
p6772
aa(lp6773
g521
aS'12.39'
p6774
ag521
aS'12.88'
p6775
ag521
ag521
ag521
ag521
aS'10.06'
p6776
aS'8.84'
p6777
aS'4.36'
p6778
aS'4.24'
p6779
ag521
ag521
aS'4.08'
p6780
aS'18.30'
p6781
aS'5.65'
p6782
ag521
ag521
aS'22.63'
p6783
ag521
ag521
aS'5.80'
p6784
aS'14.68'
p6785
aS'1.76'
p6786
aa(lp6787
S'2.20'
p6788
ag521
aS'4.14'
p6789
aS'5.15'
p6790
ag521
ag521
ag521
ag521
aS'10.22'
p6791
ag521
ag521
aS'9.36'
p6792
aS'5.74'
p6793
ag521
ag521
aS'3.67'
p6794
aS'13.98'
p6795
ag521
aS'4.54'
p6796
ag521
ag521
ag521
aS'5.97'
p6797
ag521
aS'10.49'
p6798
aa(lp6799
g521
ag521
aS'23.11'
p6800
aS'26.76'
p6801
aS'5.35'
p6802
ag521
ag521
ag521
aS'9.97'
p6803
ag521
aS'3.64'
p6804
ag521
ag521
ag521
aS'36.98'
p6805
aS'11.14'
p6806
aS'7.20'
p6807
ag521
ag521
aS'9.43'
p6808
ag521
aS'4.07'
p6809
aS'16.92'
p6810
ag521
aS'8.03'
p6811
aasS'fname2'
p6812
S'py_inst_p40f25t12_0.dat'
p6813
sS'sigma'
p6814
(lp6815
(lp6816
g521
aF61.14
ag521
aF62.77
ag521
ag521
ag521
ag521
aF60.48
ag521
ag521
ag521
aF58.76
ag521
ag521
aF57.85
aF61.25
aF59.15
ag521
aF57.83
ag521
ag521
ag521
ag521
aF60.88
aa(lp6817
g521
aF30.37
aF31.87
aF29.15
ag521
aF29.76
ag521
ag521
aF28.28
aF28.82
ag521
aF31.62
ag521
ag521
ag521
ag521
ag521
ag521
ag521
aF29.28
ag521
aF30.45
aF30.37
ag521
aF29.06
aa(lp6818
g521
aF127.28
aF124.84
aF124.15
aF117.62
ag521
ag521
ag521
aF122.9
aF125.69
aF120.18
aF124.81
ag521
ag521
aF114.82
ag521
aF131.37
ag521
ag521
ag521
ag521
ag521
aF125.04
aF120.9
aF131.31
aa(lp6819
g521
aF57.77
aF61.1
ag521
ag521
aF54.61
ag521
ag521
aF63.41
aF61.46
aF57.14
aF59.98
ag521
ag521
ag521
ag521
aF56.91
ag521
ag521
aF57.56
aF60.08
ag521
aF58.68
aF52.16
ag521
aa(lp6820
g521
aF107.15
aF107.58
aF113.66
ag521
aF106.15
aF110.01
ag521
ag521
ag521
ag521
aF112.58
ag521
aF112.68
ag521
ag521
aF103.75
ag521
aF110.9
aF111.94
ag521
ag521
aF109.5
aF112.76
ag521
aa(lp6821
F5.12
aF4.29
ag521
aF4.81
ag521
ag521
ag521
aF4.4
ag521
aF4.74
aF4.97
ag521
ag521
ag521
ag521
ag521
ag521
ag521
ag521
aF4.72
ag521
ag521
ag521
aF4.84
aF4.56
aa(lp6822
F17.9
aF17.89
ag521
ag521
aF18.73
aF17.03
ag521
ag521
ag521
ag521
ag521
aF18.57
ag521
ag521
ag521
aF17.86
aF18.27
ag521
ag521
aF18.09
ag521
ag521
aF18.39
aF18.06
aF17.77
aa(lp6823
F8.73
ag521
ag521
aF8.99
ag521
aF8.57
ag521
ag521
ag521
ag521
aF9.44
ag521
aF8.62
ag521
ag521
ag521
aF8.75
ag521
ag521
aF8.51
ag521
aF8.47
aF8.68
ag521
ag521
aa(lp6824
g521
ag521
aF68.57
aF68.37
ag521
aF70.6
aF67.74
ag521
ag521
ag521
aF66.5
ag521
ag521
ag521
ag521
ag521
ag521
ag521
ag521
aF72.44
ag521
ag521
aF68.89
aF69.53
ag521
aa(lp6825
g521
ag521
ag521
aF54.85
aF59.52
aF58.4
ag521
ag521
aF57.71
ag521
ag521
aF54.76
aF52.27
ag521
ag521
ag521
aF61.8
ag521
ag521
aF55.74
ag521
ag521
ag521
aF58.14
ag521
aa(lp6826
g521
ag521
aF12.48
ag521
ag521
ag521
ag521
aF11.99
aF11.85
ag521
ag521
aF12.31
ag521
ag521
aF12.38
ag521
aF11.42
ag521
aF11.3
aF11.54
aF11.1
ag521
aF11.7
aF11.53
aF11.72
aa(lp6827
g521
ag521
aF60.99
ag521
ag521
aF60.56
aF63.45
ag521
aF61.16
aF62.49
aF61.47
ag521
ag521
ag521
aF61.18
ag521
aF57.44
ag521
ag521
ag521
aF65.34
ag521
ag521
ag521
ag521
aa(lp6828
g521
aF85.19
aF83.96
aF88.45
ag521
aF84.12
aF83.57
ag521
ag521
aF88.99
aF84.65
ag521
aF76.74
aF86.0
ag521
aF85.86
ag521
ag521
aF90.24
ag521
aF89.41
ag521
ag521
aF89.7
ag521
aa(lp6829
g521
aF32.01
aF31.97
aF32.44
ag521
aF34.01
ag521
ag521
aF29.94
aF33.03
ag521
ag521
ag521
ag521
ag521
ag521
aF32.24
ag521
aF32.15
aF32.78
aF31.7
ag521
aF32.77
aF33.6
aF33.04
aa(lp6830
g521
aF131.28
aF135.97
aF143.45
aF137.86
aF139.34
ag521
ag521
aF130.85
ag521
aF136.7
ag521
ag521
aF134.93
aF144.31
ag521
aF135.69
ag521
ag521
aF137.31
ag521
ag521
aF130.45
aF134.14
aF143.47
aa(lp6831
F71.33
aF72.29
aF62.82
aF71.41
ag521
ag521
ag521
ag521
ag521
ag521
ag521
ag521
ag521
ag521
aF68.76
ag521
aF64.03
ag521
ag521
aF63.64
ag521
ag521
aF68.0
aF73.34
aF65.42
aa(lp6832
g521
aF36.35
aF38.5
aF38.8
ag521
aF37.82
ag521
aF38.5
aF37.78
aF36.27
ag521
aF35.96
ag521
aF37.96
ag521
ag521
aF38.04
ag521
ag521
aF38.45
ag521
ag521
aF37.47
aF37.93
ag521
aa(lp6833
F64.35
aF59.7
ag521
aF62.6
ag521
aF64.06
ag521
ag521
aF64.09
aF59.48
ag521
aF63.79
ag521
ag521
ag521
ag521
aF59.3
ag521
ag521
aF61.32
ag521
ag521
aF66.29
ag521
ag521
aa(lp6834
F26.42
aF25.97
ag521
aF24.65
ag521
aF27.86
ag521
ag521
ag521
aF26.25
ag521
ag521
ag521
ag521
ag521
aF25.55
aF26.22
ag521
ag521
aF25.66
ag521
ag521
ag521
aF25.84
ag521
aa(lp6835
F113.33
ag521
ag521
aF115.41
ag521
aF114.79
ag521
aF114.57
aF113.57
ag521
ag521
ag521
aF116.13
ag521
ag521
aF111.71
aF113.75
ag521
ag521
aF113.08
ag521
ag521
aF106.38
ag521
aF113.47
aa(lp6836
g521
ag521
aF33.05
aF33.2
aF32.15
aF33.68
ag521
ag521
aF34.23
aF33.2
ag521
aF33.27
ag521
ag521
ag521
ag521
aF34.1
ag521
ag521
aF36.21
ag521
ag521
ag521
aF31.87
ag521
aa(lp6837
g521
aF4.86
aF4.58
aF4.74
aF4.82
aF4.67
ag521
aF4.57
ag521
aF4.95
aF5.05
ag521
aF4.73
aF4.34
ag521
aF4.77
aF4.72
ag521
ag521
ag521
ag521
ag521
ag521
aF4.53
aF4.79
aa(lp6838
F92.32
aF97.85
aF94.97
aF88.83
ag521
aF97.08
aF88.11
ag521
ag521
ag521
aF91.32
aF91.58
ag521
ag521
aF97.0
ag521
aF90.01
ag521
ag521
aF96.9
ag521
ag521
ag521
ag521
aF93.69
aa(lp6839
g521
aF77.54
aF77.21
aF72.47
ag521
aF78.85
ag521
aF77.01
aF79.0
aF77.72
ag521
ag521
ag521
aF72.67
ag521
ag521
ag521
ag521
ag521
aF78.88
aF76.83
ag521
aF71.52
aF73.37
ag521
aa(lp6840
F83.02
aF85.16
aF76.62
aF82.95
ag521
aF74.74
ag521
aF76.45
aF79.78
aF84.98
aF84.77
aF76.76
aF73.69
ag521
aF77.98
ag521
aF85.77
ag521
ag521
aF76.9
ag521
ag521
aF79.36
aF81.29
aF75.76
aa(lp6841
g521
aF35.6
aF35.92
aF37.99
ag521
aF38.61
ag521
ag521
ag521
aF36.72
aF36.23
ag521
ag521
aF34.78
aF40.17
aF39.99
ag521
aF35.25
ag521
aF38.93
ag521
ag521
aF39.02
aF36.51
aF39.31
aa(lp6842
g521
aF9.41
aF9.3
aF9.02
aF8.33
aF9.31
ag521
ag521
aF9.15
ag521
ag521
ag521
ag521
aF9.84
aF9.39
ag521
aF9.46
ag521
ag521
aF9.54
ag521
aF9.39
aF9.4
aF8.86
aF9.09
aa(lp6843
F15.16
aF15.2
ag521
aF14.87
ag521
ag521
ag521
ag521
aF14.46
aF14.01
aF14.65
aF14.67
ag521
ag521
aF15.23
aF14.53
aF15.99
ag521
ag521
aF14.38
ag521
ag521
ag521
aF13.16
aF15.4
aa(lp6844
F115.71
aF115.86
aF115.22
aF116.61
aF106.84
aF116.32
aF114.53
ag521
ag521
ag521
aF112.9
aF112.58
ag521
ag521
aF111.13
ag521
aF109.53
ag521
ag521
aF118.71
ag521
ag521
aF117.89
aF113.72
aF112.08
aa(lp6845
F23.38
aF23.54
aF25.44
aF21.37
aF23.78
aF23.16
ag521
ag521
aF22.86
ag521
aF23.57
ag521
ag521
ag521
aF23.91
aF23.76
ag521
ag521
ag521
aF22.7
ag521
ag521
ag521
aF22.37
aF25.13
aa(lp6846
g521
aF40.29
ag521
ag521
aF36.93
aF35.2
aF36.01
aF36.91
aF38.26
aF37.62
aF35.83
aF37.56
aF36.86
ag521
aF36.45
ag521
ag521
ag521
ag521
aF36.43
ag521
ag521
ag521
ag521
aF39.11
aa(lp6847
g521
aF69.47
aF71.22
aF70.43
aF70.82
aF71.06
aF65.61
ag521
aF66.64
aF70.37
aF62.07
aF68.63
ag521
ag521
ag521
ag521
aF68.98
ag521
ag521
aF65.19
aF72.55
ag521
ag521
aF69.93
ag521
aa(lp6848
F84.62
aF84.46
ag521
aF78.22
ag521
aF78.5
ag521
aF79.67
aF81.33
ag521
aF79.64
ag521
aF79.83
ag521
ag521
ag521
aF81.36
ag521
ag521
aF80.07
ag521
ag521
aF81.83
aF77.6
ag521
aa(lp6849
F39.11
ag521
aF36.46
aF35.56
ag521
ag521
aF36.97
ag521
aF37.65
aF34.77
ag521
aF36.75
ag521
ag521
ag521
aF38.23
aF35.91
ag521
ag521
ag521
aF35.81
ag521
aF39.04
aF38.23
aF37.78
aa(lp6850
g521
aF111.56
ag521
aF102.56
aF102.06
aF104.32
aF96.65
ag521
ag521
ag521
aF104.68
ag521
ag521
ag521
aF109.39
ag521
aF96.3
ag521
ag521
aF105.16
ag521
ag521
aF106.88
ag521
aF106.05
aa(lp6851
g521
aF47.85
aF56.18
aF52.51
aF56.93
aF53.3
aF58.79
ag521
ag521
ag521
ag521
aF55.23
aF53.47
ag521
aF53.27
aF53.22
aF54.58
ag521
ag521
ag521
ag521
ag521
aF53.55
aF50.02
aF54.61
aa(lp6852
F76.02
aF75.16
aF75.52
aF76.67
aF71.19
ag521
ag521
ag521
ag521
aF73.1
ag521
ag521
aF79.49
ag521
ag521
ag521
aF75.18
ag521
ag521
aF73.95
ag521
ag521
ag521
ag521
aF79.98
aa(lp6853
g521
aF104.73
ag521
aF102.71
ag521
ag521
ag521
ag521
aF106.32
aF98.97
aF101.58
aF99.77
ag521
ag521
aF99.76
aF108.78
aF108.98
ag521
ag521
aF110.75
ag521
ag521
aF101.13
aF101.92
aF111.12
aa(lp6854
F32.16
ag521
aF32.67
aF32.08
ag521
ag521
ag521
ag521
aF31.77
ag521
ag521
aF34.94
aF32.41
ag521
ag521
aF33.62
aF35.4
ag521
aF32.91
ag521
ag521
ag521
aF31.96
ag521
aF31.16
aa(lp6855
g521
ag521
aF16.77
aF17.45
aF16.19
ag521
ag521
ag521
aF17.09
ag521
aF17.34
ag521
ag521
ag521
aF15.63
aF16.74
aF16.81
ag521
ag521
aF16.16
ag521
aF15.8
aF16.45
ag521
aF16.4
aasS'FM'
p6856
(lp6857
g931
(g6216
S'4\xdbv\xd5\xb3\x14\x9a@'
p6858
tp6859
Rp6860
ag931
(g6216
S'g$\x19\xe0\x86\x8f\x93@'
p6861
tp6862
Rp6863
ag931
(g6216
S'\x9a\xf3\xac\x83O\xe8\x97@'
p6864
tp6865
Rp6866
ag931
(g6216
S'4\xdbv\xd5\xb3\x14\x9a@'
p6867
tp6868
Rp6869
ag931
(g6216
S'\xcd<O\x8e"c\x91@'
p6870
tp6871
Rp6872
ag931
(g6216
S'\x00\x0c\xe31\xeb\xbb\x95@'
p6873
tp6874
Rp6875
ag931
(g6216
S'4\xdbv\xd5\xb3\x14\x9a@'
p6876
tp6877
Rp6878
ag931
(g6216
S'g$\x19\xe0\x86\x8f\x93@'
p6879
tp6880
Rp6881
ag931
(g6216
S'\xcd<O\x8e"c\x91@'
p6882
tp6883
Rp6884
ag931
(g6216
S'\xcd<O\x8e"c\x91@'
p6885
tp6886
Rp6887
ag931
(g6216
S'\x9a\xf3\xac\x83O\xe8\x97@'
p6888
tp6889
Rp6890
ag931
(g6216
S'g$\x19\xe0\x86\x8f\x93@'
p6891
tp6892
Rp6893
ag931
(g6216
S'\x00\x0c\xe31\xeb\xbb\x95@'
p6894
tp6895
Rp6896
ag931
(g6216
S'g$\x19\xe0\x86\x8f\x93@'
p6897
tp6898
Rp6899
ag931
(g6216
S'4\xdbv\xd5\xb3\x14\x9a@'
p6900
tp6901
Rp6902
ag931
(g6216
S'g$\x19\xe0\x86\x8f\x93@'
p6903
tp6904
Rp6905
ag931
(g6216
S'\x00\x0c\xe31\xeb\xbb\x95@'
p6906
tp6907
Rp6908
ag931
(g6216
S'\xcd<O\x8e"c\x91@'
p6909
tp6910
Rp6911
ag931
(g6216
S'\x9a\xf3\xac\x83O\xe8\x97@'
p6912
tp6913
Rp6914
ag931
(g6216
S'\x9a\xf3\xac\x83O\xe8\x97@'
p6915
tp6916
Rp6917
ag931
(g6216
S'\x00\x0c\xe31\xeb\xbb\x95@'
p6918
tp6919
Rp6920
ag931
(g6216
S'\xcd<O\x8e"c\x91@'
p6921
tp6922
Rp6923
ag931
(g6216
S'4\xdbv\xd5\xb3\x14\x9a@'
p6924
tp6925
Rp6926
ag931
(g6216
S'\x00\x0c\xe31\xeb\xbb\x95@'
p6927
tp6928
Rp6929
ag931
(g6216
S'\xcd<O\x8e"c\x91@'
p6930
tp6931
Rp6932
asS'fname'
p6933
S'inst_p40f25t12_0.dat'
p6934
sb.