(i__main__
Instancia
p0
(dp1
S'Fp'
p2
(lp3
(lp4
S'f1'
p5
aS'f3'
p6
aS'f5'
p7
aS'f6'
p8
aS'f8'
p9
aS'f9'
p10
aS'f10'
p11
aS'f11'
p12
aS'f12'
p13
aS'f14'
p14
aa(lp15
S'f1'
p16
aS'f3'
p17
aS'f5'
p18
aS'f8'
p19
aS'f9'
p20
aS'f10'
p21
aS'f11'
p22
aS'f12'
p23
aS'f14'
p24
aa(lp25
S'f1'
p26
aS'f3'
p27
aS'f4'
p28
aS'f5'
p29
aS'f8'
p30
aS'f9'
p31
aS'f11'
p32
aS'f12'
p33
aS'f13'
p34
aS'f14'
p35
aa(lp36
S'f1'
p37
aS'f3'
p38
aS'f4'
p39
aS'f5'
p40
aS'f6'
p41
aS'f8'
p42
aS'f11'
p43
aS'f12'
p44
aS'f14'
p45
aS'f15'
p46
aa(lp47
S'f1'
p48
aS'f3'
p49
aS'f4'
p50
aS'f5'
p51
aS'f6'
p52
aS'f8'
p53
aS'f11'
p54
aS'f12'
p55
aS'f14'
p56
aa(lp57
S'f3'
p58
aS'f5'
p59
aS'f8'
p60
aS'f9'
p61
aS'f10'
p62
aS'f11'
p63
aS'f12'
p64
aS'f14'
p65
aS'f15'
p66
aa(lp67
S'f3'
p68
aS'f4'
p69
aS'f7'
p70
aS'f8'
p71
aS'f9'
p72
aS'f11'
p73
aS'f12'
p74
aS'f14'
p75
aS'f15'
p76
aa(lp77
S'f1'
p78
aS'f3'
p79
aS'f5'
p80
aS'f6'
p81
aS'f8'
p82
aS'f12'
p83
aS'f14'
p84
aa(lp85
S'f2'
p86
aS'f3'
p87
aS'f4'
p88
aS'f5'
p89
aS'f8'
p90
aS'f9'
p91
aS'f10'
p92
aS'f11'
p93
aS'f14'
p94
aa(lp95
S'f1'
p96
aS'f3'
p97
aS'f5'
p98
aS'f8'
p99
aS'f9'
p100
aS'f11'
p101
aS'f12'
p102
aS'f14'
p103
aa(lp104
S'f1'
p105
aS'f2'
p106
aS'f3'
p107
aS'f4'
p108
aS'f5'
p109
aS'f6'
p110
aS'f8'
p111
aS'f10'
p112
aS'f12'
p113
aS'f14'
p114
aa(lp115
S'f3'
p116
aS'f4'
p117
aS'f5'
p118
aS'f8'
p119
aS'f9'
p120
aS'f10'
p121
aS'f11'
p122
aS'f14'
p123
aa(lp124
S'f1'
p125
aS'f3'
p126
aS'f6'
p127
aS'f8'
p128
aS'f10'
p129
aS'f11'
p130
aS'f12'
p131
aS'f14'
p132
aa(lp133
S'f1'
p134
aS'f3'
p135
aS'f5'
p136
aS'f6'
p137
aS'f8'
p138
aS'f11'
p139
aS'f12'
p140
aS'f14'
p141
aa(lp142
S'f1'
p143
aS'f3'
p144
aS'f6'
p145
aS'f8'
p146
aS'f9'
p147
aS'f10'
p148
aS'f12'
p149
aS'f14'
p150
aS'f15'
p151
aa(lp152
S'f2'
p153
aS'f3'
p154
aS'f5'
p155
aS'f9'
p156
aS'f10'
p157
aS'f11'
p158
aS'f12'
p159
aS'f14'
p160
aS'f15'
p161
aa(lp162
S'f3'
p163
aS'f5'
p164
aS'f7'
p165
aS'f9'
p166
aS'f11'
p167
aS'f12'
p168
aS'f14'
p169
aa(lp170
S'f2'
p171
aS'f3'
p172
aS'f4'
p173
aS'f5'
p174
aS'f6'
p175
aS'f8'
p176
aS'f11'
p177
aS'f14'
p178
aS'f15'
p179
aa(lp180
S'f1'
p181
aS'f3'
p182
aS'f4'
p183
aS'f6'
p184
aS'f8'
p185
aS'f9'
p186
aS'f11'
p187
aS'f14'
p188
aa(lp189
S'f1'
p190
aS'f3'
p191
aS'f5'
p192
aS'f7'
p193
aS'f8'
p194
aS'f10'
p195
aS'f12'
p196
aS'f14'
p197
aa(lp198
S'f2'
p199
aS'f3'
p200
aS'f5'
p201
aS'f8'
p202
aS'f10'
p203
aS'f14'
p204
aa(lp205
S'f3'
p206
aS'f5'
p207
aS'f8'
p208
aS'f11'
p209
aS'f12'
p210
aS'f14'
p211
aS'f15'
p212
aa(lp213
S'f1'
p214
aS'f3'
p215
aS'f5'
p216
aS'f8'
p217
aS'f9'
p218
aS'f10'
p219
aS'f11'
p220
aS'f12'
p221
aS'f14'
p222
aa(lp223
S'f1'
p224
aS'f3'
p225
aS'f4'
p226
aS'f5'
p227
aS'f6'
p228
aS'f8'
p229
aS'f9'
p230
aS'f10'
p231
aS'f11'
p232
aS'f14'
p233
aS'f15'
p234
aa(lp235
S'f1'
p236
aS'f3'
p237
aS'f5'
p238
aS'f8'
p239
aS'f11'
p240
aS'f12'
p241
aS'f14'
p242
aa(lp243
S'f2'
p244
aS'f3'
p245
aS'f5'
p246
aS'f6'
p247
aS'f9'
p248
aS'f10'
p249
aS'f11'
p250
aS'f12'
p251
aS'f14'
p252
aS'f15'
p253
aa(lp254
S'f1'
p255
aS'f2'
p256
aS'f3'
p257
aS'f5'
p258
aS'f8'
p259
aS'f9'
p260
aS'f11'
p261
aS'f15'
p262
aa(lp263
S'f1'
p264
aS'f2'
p265
aS'f3'
p266
aS'f5'
p267
aS'f6'
p268
aS'f8'
p269
aS'f9'
p270
aS'f11'
p271
aS'f12'
p272
aS'f14'
p273
aa(lp274
S'f3'
p275
aS'f5'
p276
aS'f8'
p277
aS'f9'
p278
aS'f10'
p279
aS'f11'
p280
aS'f12'
p281
aS'f14'
p282
aa(lp283
S'f1'
p284
aS'f2'
p285
aS'f3'
p286
aS'f4'
p287
aS'f5'
p288
aS'f9'
p289
aS'f10'
p290
aS'f11'
p291
aS'f12'
p292
aS'f14'
p293
aasS'LM'
p294
(lp295
(lp296
I10
aS'.'
p297
aI0
ag297
aI2
aI2
ag297
aI0
aI6
aI5
aI32
aI0
ag297
aI0
ag297
aa(lp298
I5
ag297
aI4
ag297
aI10
ag297
ag297
aI10
aI30
aI30
aI0
aI0
ag297
aI10
ag297
aa(lp299
I9
ag297
aI20
aI8
aI14
ag297
ag297
aI14
aI27
ag297
aI0
aI7
aI9
aI10
ag297
aa(lp300
I8
ag297
aI4
aI24
aI100
aI8
ag297
aI40
ag297
ag297
aI10
aI0
ag297
aI0
aI24
aa(lp301
I12
ag297
aI2
aI2
aI2
aI6
ag297
aI0
ag297
ag297
aI9
aI18
ag297
aI20
ag297
aa(lp302
g297
ag297
aI10
ag297
aI12
ag297
ag297
aI25
aI28
aI18
aI10
aI28
ag297
aI20
aI14
aa(lp303
g297
ag297
aI9
aI36
ag297
ag297
aI0
aI9
aI19
ag297
aI27
aI6
ag297
aI3
aI9
aa(lp304
I34
ag297
aI6
ag297
aI17
aI0
ag297
aI10
ag297
ag297
ag297
aI17
ag297
aI8
ag297
aa(lp305
g297
aI8
aI0
aI22
aI3
ag297
ag297
aI28
aI0
aI0
aI66
ag297
ag297
aI66
ag297
aa(lp306
I0
ag297
aI13
ag297
aI0
ag297
ag297
aI5
aI18
ag297
aI54
aI54
ag297
aI9
ag297
aa(lp307
I0
aI4
aI3
aI3
aI0
aI15
ag297
aI0
ag297
aI54
ag297
aI0
ag297
aI12
ag297
aa(lp308
g297
ag297
aI38
aI18
aI18
ag297
ag297
aI36
aI3
aI3
aI0
ag297
ag297
aI38
ag297
aa(lp309
I39
ag297
aI0
ag297
ag297
aI0
ag297
aI0
ag297
aI0
aI5
aI12
ag297
aI18
ag297
aa(lp310
I24
ag297
aI0
ag297
aI8
aI8
ag297
aI0
ag297
ag297
aI0
aI5
ag297
aI32
ag297
aa(lp311
I8
ag297
aI4
ag297
ag297
aI2
ag297
aI4
aI4
aI6
ag297
aI4
ag297
aI6
aI0
aa(lp312
g297
aI18
aI12
ag297
aI36
ag297
ag297
ag297
aI18
aI18
aI3
aI9
ag297
aI27
aI12
aa(lp313
g297
ag297
aI34
ag297
aI0
ag297
aI0
ag297
aI0
ag297
aI0
aI0
ag297
aI8
ag297
aa(lp314
g297
aI10
aI10
aI0
aI12
aI0
ag297
aI26
ag297
ag297
aI4
ag297
ag297
aI81
aI5
aa(lp315
I10
ag297
aI10
aI30
ag297
aI15
ag297
aI18
aI0
ag297
aI93
ag297
ag297
aI35
ag297
aa(lp316
I30
ag297
aI14
ag297
aI45
ag297
aI10
aI15
ag297
aI28
ag297
aI14
ag297
aI0
ag297
aa(lp317
g297
aI26
aI0
ag297
aI0
ag297
ag297
aI10
ag297
aI0
ag297
ag297
ag297
aI16
ag297
aa(lp318
g297
ag297
aI24
ag297
aI0
ag297
ag297
aI26
ag297
ag297
aI32
aI39
ag297
aI52
aI16
aa(lp319
I0
ag297
aI12
ag297
aI0
ag297
ag297
aI19
aI30
aI0
aI9
aI57
ag297
aI0
ag297
aa(lp320
I12
ag297
aI0
aI8
aI16
aI4
ag297
aI25
aI4
aI25
aI25
ag297
ag297
aI15
aI8
aa(lp321
I0
ag297
aI14
ag297
aI30
ag297
ag297
aI7
ag297
ag297
aI12
aI0
ag297
aI9
ag297
aa(lp322
g297
aI0
aI10
ag297
aI20
aI6
ag297
ag297
aI10
aI4
aI80
aI12
ag297
aI0
aI30
aa(lp323
I22
aI44
aI7
ag297
aI11
ag297
ag297
aI15
aI10
ag297
aI44
ag297
ag297
ag297
aI0
aa(lp324
I100
aI0
aI12
ag297
aI6
aI8
ag297
aI0
aI15
ag297
aI6
aI24
ag297
aI18
ag297
aa(lp325
g297
ag297
aI1
ag297
aI0
ag297
ag297
aI0
aI6
aI3
aI3
aI0
ag297
aI0
ag297
aa(lp326
I28
aI8
aI4
aI7
aI0
ag297
ag297
ag297
aI14
aI36
aI0
aI14
ag297
aI0
ag297
aasS'D'
p327
(lp328
cnumpy.core.multiarray
_reconstruct
p329
(cnumpy
ndarray
p330
(I0
tp331
S'b'
p332
tp333
Rp334
(I1
(I6
tp335
cnumpy
dtype
p336
(S'i8'
p337
I0
I1
tp338
Rp339
(I3
S'<'
p340
NNNI-1
I-1
I0
tp341
bI00
S'j\x00\x00\x00\x00\x00\x00\x00@\x00\x00\x00\x00\x00\x00\x00Y\x00\x00\x00\x00\x00\x00\x00\x16\x00\x00\x00\x00\x00\x00\x00\x9a\x00\x00\x00\x00\x00\x00\x006\x00\x00\x00\x00\x00\x00\x00'
p342
tp343
bag329
(g330
(I0
tp344
g332
tp345
Rp346
(I1
(I6
tp347
g339
I00
S'2\x00\x00\x00\x00\x00\x00\x00\x13\x00\x00\x00\x00\x00\x00\x00\x1f\x00\x00\x00\x00\x00\x00\x00i\x00\x00\x00\x00\x00\x00\x00\\\x00\x00\x00\x00\x00\x00\x00\x03\x00\x00\x00\x00\x00\x00\x00'
p348
tp349
bag329
(g330
(I0
tp350
g332
tp351
Rp352
(I1
(I6
tp353
g339
I00
S'p\x00\x00\x00\x00\x00\x00\x00\x1e\x00\x00\x00\x00\x00\x00\x00k\x00\x00\x00\x00\x00\x00\x00\x13\x01\x00\x00\x00\x00\x00\x00c\x00\x00\x00\x00\x00\x00\x00\xe1\x00\x00\x00\x00\x00\x00\x00'
p354
tp355
bag329
(g330
(I0
tp356
g332
tp357
Rp358
(I1
(I6
tp359
g339
I00
S'\x97\x00\x00\x00\x00\x00\x00\x00\xb8\x00\x00\x00\x00\x00\x00\x00d\x00\x00\x00\x00\x00\x00\x00c\x00\x00\x00\x00\x00\x00\x00$\x00\x00\x00\x00\x00\x00\x00\xb8\x00\x00\x00\x00\x00\x00\x00'
p360
tp361
bag329
(g330
(I0
tp362
g332
tp363
Rp364
(I1
(I6
tp365
g339
I00
S'r\x00\x00\x00\x00\x00\x00\x00\x1d\x00\x00\x00\x00\x00\x00\x00R\x00\x00\x00\x00\x00\x00\x00`\x00\x00\x00\x00\x00\x00\x00\x06\x00\x00\x00\x00\x00\x00\x00?\x00\x00\x00\x00\x00\x00\x00'
p366
tp367
bag329
(g330
(I0
tp368
g332
tp369
Rp370
(I1
(I6
tp371
g339
I00
S'\xc5\x00\x00\x00\x00\x00\x00\x00\x08\x01\x00\x00\x00\x00\x00\x00\x90\x00\x00\x00\x00\x00\x00\x00-\x00\x00\x00\x00\x00\x00\x00y\x00\x00\x00\x00\x00\x00\x00[\x00\x00\x00\x00\x00\x00\x00'
p372
tp373
bag329
(g330
(I0
tp374
g332
tp375
Rp376
(I1
(I6
tp377
g339
I00
S'\x81\x00\x00\x00\x00\x00\x00\x00.\x00\x00\x00\x00\x00\x00\x00"\x00\x00\x00\x00\x00\x00\x00Y\x00\x00\x00\x00\x00\x00\x00\x0e\x01\x00\x00\x00\x00\x00\x00\x0e\x00\x00\x00\x00\x00\x00\x00'
p378
tp379
bag329
(g330
(I0
tp380
g332
tp381
Rp382
(I1
(I6
tp383
g339
I00
S'\xc3\x00\x00\x00\x00\x00\x00\x00\x99\x00\x00\x00\x00\x00\x00\x00(\x00\x00\x00\x00\x00\x00\x00\xca\x00\x00\x00\x00\x00\x00\x00\xd7\x00\x00\x00\x00\x00\x00\x00\xe8\x00\x00\x00\x00\x00\x00\x00'
p384
tp385
bag329
(g330
(I0
tp386
g332
tp387
Rp388
(I1
(I6
tp389
g339
I00
S'\xc1\x00\x00\x00\x00\x00\x00\x00\x18\x00\x00\x00\x00\x00\x00\x00\x02\x00\x00\x00\x00\x00\x00\x00\xcd\x00\x00\x00\x00\x00\x00\x00\xf4\x00\x00\x00\x00\x00\x00\x00\x11\x00\x00\x00\x00\x00\x00\x00'
p390
tp391
bag329
(g330
(I0
tp392
g332
tp393
Rp394
(I1
(I6
tp395
g339
I00
S'\x85\x00\x00\x00\x00\x00\x00\x006\x00\x00\x00\x00\x00\x00\x00\xd9\x00\x00\x00\x00\x00\x00\x00\x9a\x00\x00\x00\x00\x00\x00\x00\xbb\x00\x00\x00\x00\x00\x00\x00S\x00\x00\x00\x00\x00\x00\x00'
p396
tp397
bag329
(g330
(I0
tp398
g332
tp399
Rp400
(I1
(I6
tp401
g339
I00
S'\xab\x00\x00\x00\x00\x00\x00\x00L\x00\x00\x00\x00\x00\x00\x00`\x00\x00\x00\x00\x00\x00\x00\x1b\x00\x00\x00\x00\x00\x00\x00\xb5\x00\x00\x00\x00\x00\x00\x00\x06\x00\x00\x00\x00\x00\x00\x00'
p402
tp403
bag329
(g330
(I0
tp404
g332
tp405
Rp406
(I1
(I6
tp407
g339
I00
S'\xe7\x00\x00\x00\x00\x00\x00\x00i\x00\x00\x00\x00\x00\x00\x00]\x00\x00\x00\x00\x00\x00\x00r\x00\x00\x00\x00\x00\x00\x00\x1a\x00\x00\x00\x00\x00\x00\x00\x0b\x00\x00\x00\x00\x00\x00\x00'
p408
tp409
bag329
(g330
(I0
tp410
g332
tp411
Rp412
(I1
(I6
tp413
g339
I00
S'\xeb\x00\x00\x00\x00\x00\x00\x00\xcc\x00\x00\x00\x00\x00\x00\x00\x1b\x00\x00\x00\x00\x00\x00\x00|\x00\x00\x00\x00\x00\x00\x004\x00\x00\x00\x00\x00\x00\x00\x8c\x00\x00\x00\x00\x00\x00\x00'
p414
tp415
bag329
(g330
(I0
tp416
g332
tp417
Rp418
(I1
(I6
tp419
g339
I00
S'"\x00\x00\x00\x00\x00\x00\x00#\x00\x00\x00\x00\x00\x00\x00\x99\x00\x00\x00\x00\x00\x00\x006\x00\x00\x00\x00\x00\x00\x00\x1c\x00\x00\x00\x00\x00\x00\x00\xb3\x00\x00\x00\x00\x00\x00\x00'
p420
tp421
bag329
(g330
(I0
tp422
g332
tp423
Rp424
(I1
(I6
tp425
g339
I00
S'\x14\x00\x00\x00\x00\x00\x00\x00g\x00\x00\x00\x00\x00\x00\x00\t\x00\x00\x00\x00\x00\x00\x00Y\x00\x00\x00\x00\x00\x00\x00(\x00\x00\x00\x00\x00\x00\x00d\x00\x00\x00\x00\x00\x00\x00'
p426
tp427
bag329
(g330
(I0
tp428
g332
tp429
Rp430
(I1
(I6
tp431
g339
I00
S'\xb9\x00\x00\x00\x00\x00\x00\x00/\x00\x00\x00\x00\x00\x00\x00\x85\x00\x00\x00\x00\x00\x00\x00\x84\x00\x00\x00\x00\x00\x00\x00-\x00\x00\x00\x00\x00\x00\x00\x0b\x00\x00\x00\x00\x00\x00\x00'
p432
tp433
bag329
(g330
(I0
tp434
g332
tp435
Rp436
(I1
(I6
tp437
g339
I00
S'p\x00\x00\x00\x00\x00\x00\x00\x8c\x00\x00\x00\x00\x00\x00\x00\x8e\x00\x00\x00\x00\x00\x00\x00\x16\x00\x00\x00\x00\x00\x00\x003\x00\x00\x00\x00\x00\x00\x006\x00\x00\x00\x00\x00\x00\x00'
p438
tp439
bag329
(g330
(I0
tp440
g332
tp441
Rp442
(I1
(I6
tp443
g339
I00
S'i\x00\x00\x00\x00\x00\x00\x00\xc2\x00\x00\x00\x00\x00\x00\x00\xb5\x00\x00\x00\x00\x00\x00\x00\x1a\x00\x00\x00\x00\x00\x00\x00\xff\x00\x00\x00\x00\x00\x00\x00@\x00\x00\x00\x00\x00\x00\x00'
p444
tp445
bag329
(g330
(I0
tp446
g332
tp447
Rp448
(I1
(I6
tp449
g339
I00
S'\xbc\x00\x00\x00\x00\x00\x00\x00\xbb\x00\x00\x00\x00\x00\x00\x00P\x00\x00\x00\x00\x00\x00\x00\xa4\x00\x00\x00\x00\x00\x00\x00a\x00\x00\x00\x00\x00\x00\x00\xd6\x00\x00\x00\x00\x00\x00\x00'
p450
tp451
bag329
(g330
(I0
tp452
g332
tp453
Rp454
(I1
(I6
tp455
g339
I00
S'\xb5\x00\x00\x00\x00\x00\x00\x00\x9f\x00\x00\x00\x00\x00\x00\x00\xa6\x00\x00\x00\x00\x00\x00\x00\xd5\x00\x00\x00\x00\x00\x00\x00L\x00\x00\x00\x00\x00\x00\x00\x82\x00\x00\x00\x00\x00\x00\x00'
p456
tp457
bag329
(g330
(I0
tp458
g332
tp459
Rp460
(I1
(I6
tp461
g339
I00
S'K\x00\x00\x00\x00\x00\x00\x00\xfc\x00\x00\x00\x00\x00\x00\x00\xb3\x00\x00\x00\x00\x00\x00\x00\xc0\x00\x00\x00\x00\x00\x00\x00\x06\x00\x00\x00\x00\x00\x00\x00U\x00\x00\x00\x00\x00\x00\x00'
p462
tp463
bag329
(g330
(I0
tp464
g332
tp465
Rp466
(I1
(I6
tp467
g339
I00
S'\x9c\x00\x00\x00\x00\x00\x00\x00\xb1\x00\x00\x00\x00\x00\x00\x00n\x00\x00\x00\x00\x00\x00\x00\xac\x00\x00\x00\x00\x00\x00\x00\xba\x00\x00\x00\x00\x00\x00\x00\x03\x00\x00\x00\x00\x00\x00\x00'
p468
tp469
bag329
(g330
(I0
tp470
g332
tp471
Rp472
(I1
(I6
tp473
g339
I00
S'\x0c\x00\x00\x00\x00\x00\x00\x00\xa8\x00\x00\x00\x00\x00\x00\x00\xbf\x00\x00\x00\x00\x00\x00\x00Q\x00\x00\x00\x00\x00\x00\x00<\x00\x00\x00\x00\x00\x00\x00?\x00\x00\x00\x00\x00\x00\x00'
p474
tp475
bag329
(g330
(I0
tp476
g332
tp477
Rp478
(I1
(I6
tp479
g339
I00
S'\xf9\x00\x00\x00\x00\x00\x00\x00\x9b\x00\x00\x00\x00\x00\x00\x00\\\x00\x00\x00\x00\x00\x00\x00B\x00\x00\x00\x00\x00\x00\x00A\x00\x00\x00\x00\x00\x00\x00|\x00\x00\x00\x00\x00\x00\x00'
p480
tp481
bag329
(g330
(I0
tp482
g332
tp483
Rp484
(I1
(I6
tp485
g339
I00
S'\x9d\x00\x00\x00\x00\x00\x00\x00(\x00\x00\x00\x00\x00\x00\x00[\x00\x00\x00\x00\x00\x00\x00\x98\x00\x00\x00\x00\x00\x00\x00\x87\x00\x00\x00\x00\x00\x00\x00D\x00\x00\x00\x00\x00\x00\x00'
p486
tp487
bag329
(g330
(I0
tp488
g332
tp489
Rp490
(I1
(I6
tp491
g339
I00
S'j\x00\x00\x00\x00\x00\x00\x00!\x00\x00\x00\x00\x00\x00\x00\x99\x00\x00\x00\x00\x00\x00\x00u\x00\x00\x00\x00\x00\x00\x00p\x00\x00\x00\x00\x00\x00\x00\\\x00\x00\x00\x00\x00\x00\x00'
p492
tp493
bag329
(g330
(I0
tp494
g332
tp495
Rp496
(I1
(I6
tp497
g339
I00
S'k\x00\x00\x00\x00\x00\x00\x00\xa4\x00\x00\x00\x00\x00\x00\x00/\x00\x00\x00\x00\x00\x00\x00\xbf\x00\x00\x00\x00\x00\x00\x00\x0b\x00\x00\x00\x00\x00\x00\x00\x9a\x00\x00\x00\x00\x00\x00\x00'
p498
tp499
bag329
(g330
(I0
tp500
g332
tp501
Rp502
(I1
(I6
tp503
g339
I00
S'\xa9\x00\x00\x00\x00\x00\x00\x00\xa5\x00\x00\x00\x00\x00\x00\x00\x9a\x00\x00\x00\x00\x00\x00\x00,\x00\x00\x00\x00\x00\x00\x00\xa8\x00\x00\x00\x00\x00\x00\x00O\x00\x00\x00\x00\x00\x00\x00'
p504
tp505
bag329
(g330
(I0
tp506
g332
tp507
Rp508
(I1
(I6
tp509
g339
I00
S'4\x00\x00\x00\x00\x00\x00\x00-\x00\x00\x00\x00\x00\x00\x00\x03\x00\x00\x00\x00\x00\x00\x00\x14\x00\x00\x00\x00\x00\x00\x008\x00\x00\x00\x00\x00\x00\x00>\x00\x00\x00\x00\x00\x00\x00'
p510
tp511
bag329
(g330
(I0
tp512
g332
tp513
Rp514
(I1
(I6
tp515
g339
I00
S'\x9a\x00\x00\x00\x00\x00\x00\x00\x9c\x00\x00\x00\x00\x00\x00\x00\x1c\x00\x00\x00\x00\x00\x00\x00\xcf\x00\x00\x00\x00\x00\x00\x00L\x00\x00\x00\x00\x00\x00\x00\xed\x00\x00\x00\x00\x00\x00\x00'
p516
tp517
basS'F'
p518
(lp519
S'f1'
p520
aS'f2'
p521
aS'f3'
p522
aS'f4'
p523
aS'f5'
p524
aS'f6'
p525
aS'f7'
p526
aS'f8'
p527
aS'f9'
p528
aS'f10'
p529
aS'f11'
p530
aS'f12'
p531
aS'f13'
p532
aS'f14'
p533
aS'f15'
p534
asS's0'
p535
(lp536
I0
aI0
aI0
aI0
aI0
aI0
aI0
aI0
aI0
aI0
aI0
aI0
aI0
aI0
aI0
aI0
aI0
aI0
aI0
aI0
aI0
aI0
aI0
aI0
aI0
aI0
aI0
aI0
aI0
aI0
asS'lambd'
p537
(lp538
F0.0011328772297861003
aF0.0011298428049835133
aF0.0011246301893017676
aF0.0011412927529545383
aF0.0011224777783457247
aF0.0011350403899308048
aF0.0011881331203368204
aF0.0011953430438965207
aF0.0011297421614994963
aF0.0011221374827917623
aF0.0011726164281320162
aF0.0011872832265750724
aF0.0011876514168045207
aF0.0011326077888572214
aF0.0011250760132811486
aF0.0011817509148056085
aF0.0011881485177647423
aF0.0011552824832029292
aF0.001199511713207292
aF0.0011911263836975202
aF0.0011539958411759083
aF0.0012024285317030845
aF0.0011574854314088064
aF0.0011898125114279943
aF0.0011393941653048637
aF0.001129939134970061
aF0.0012017057325587473
aF0.0012056002805107956
aF0.0011441602138284187
aF0.0011202970824906737
asS'n'
p539
I6
sS'P'
p540
(lp541
S'P1'
p542
aS'P2'
p543
aS'P3'
p544
aS'P4'
p545
aS'P5'
p546
aS'P6'
p547
aS'P7'
p548
aS'P8'
p549
aS'P9'
p550
aS'P10'
p551
aS'P11'
p552
aS'P12'
p553
aS'P13'
p554
aS'P14'
p555
aS'P15'
p556
aS'P16'
p557
aS'P17'
p558
aS'P18'
p559
aS'P19'
p560
aS'P20'
p561
aS'P21'
p562
aS'P22'
p563
aS'P23'
p564
aS'P24'
p565
aS'P25'
p566
aS'P26'
p567
aS'P27'
p568
aS'P28'
p569
aS'P29'
p570
aS'P30'
p571
asS'LT'
p572
(lp573
(lp574
I2
ag297
aI2
ag297
aI0
aI1
ag297
aI0
aI4
aI1
aI0
aI0
ag297
aI2
ag297
aa(lp575
I1
ag297
aI1
ag297
aI1
ag297
ag297
aI1
aI0
aI1
aI1
aI2
ag297
aI0
ag297
aa(lp576
I2
ag297
aI2
aI2
aI0
ag297
ag297
aI0
aI3
ag297
aI1
aI0
aI1
aI0
ag297
aa(lp577
I1
ag297
aI2
aI1
aI0
aI1
ag297
aI2
ag297
ag297
aI2
aI1
ag297
aI0
aI1
aa(lp578
I0
ag297
aI0
aI0
aI0
aI2
ag297
aI0
ag297
ag297
aI4
aI0
ag297
aI1
ag297
aa(lp579
g297
ag297
aI1
ag297
aI1
ag297
ag297
aI1
aI0
aI2
aI0
aI2
ag297
aI3
aI1
aa(lp580
g297
ag297
aI1
aI0
ag297
ag297
aI2
aI0
aI0
ag297
aI5
aI0
ag297
aI0
aI1
aa(lp581
I1
ag297
aI0
ag297
aI3
aI1
ag297
aI3
ag297
ag297
ag297
aI0
ag297
aI1
ag297
aa(lp582
g297
aI0
aI2
aI1
aI2
ag297
ag297
aI0
aI1
aI1
aI0
ag297
ag297
aI0
ag297
aa(lp583
I0
ag297
aI0
ag297
aI1
ag297
ag297
aI2
aI1
ag297
aI0
aI2
ag297
aI0
ag297
aa(lp584
I0
aI3
aI1
aI2
aI1
aI0
ag297
aI1
ag297
aI1
ag297
aI1
ag297
aI1
ag297
aa(lp585
g297
ag297
aI0
aI0
aI1
ag297
ag297
aI3
aI1
aI3
aI1
ag297
ag297
aI1
ag297
aa(lp586
I2
ag297
aI3
ag297
ag297
aI0
ag297
aI2
ag297
aI1
aI1
aI0
ag297
aI1
ag297
aa(lp587
I2
ag297
aI3
ag297
aI0
aI1
ag297
aI1
ag297
ag297
aI2
aI4
ag297
aI2
ag297
aa(lp588
I0
ag297
aI2
ag297
ag297
aI1
ag297
aI1
aI1
aI1
ag297
aI2
ag297
aI3
aI1
aa(lp589
g297
aI0
aI0
ag297
aI1
ag297
ag297
ag297
aI1
aI2
aI2
aI0
ag297
aI0
aI1
aa(lp590
g297
ag297
aI0
ag297
aI1
ag297
aI1
ag297
aI1
ag297
aI1
aI0
ag297
aI2
ag297
aa(lp591
g297
aI0
aI2
aI4
aI0
aI2
ag297
aI1
ag297
ag297
aI1
ag297
ag297
aI3
aI2
aa(lp592
I1
ag297
aI0
aI2
ag297
aI2
ag297
aI1
aI1
ag297
aI0
ag297
ag297
aI0
ag297
aa(lp593
I0
ag297
aI2
ag297
aI0
ag297
aI0
aI2
ag297
aI2
ag297
aI1
ag297
aI2
ag297
aa(lp594
g297
aI1
aI1
ag297
aI0
ag297
ag297
aI2
ag297
aI0
ag297
ag297
ag297
aI2
ag297
aa(lp595
g297
ag297
aI2
ag297
aI2
ag297
ag297
aI1
ag297
ag297
aI1
aI0
ag297
aI1
aI1
aa(lp596
I3
ag297
aI0
ag297
aI1
ag297
ag297
aI2
aI0
aI2
aI1
aI0
ag297
aI1
ag297
aa(lp597
I1
ag297
aI1
aI0
aI0
aI1
ag297
aI1
aI0
aI1
aI1
ag297
ag297
aI0
aI0
aa(lp598
I0
ag297
aI2
ag297
aI1
ag297
ag297
aI2
ag297
ag297
aI2
aI3
ag297
aI0
ag297
aa(lp599
g297
aI1
aI1
ag297
aI0
aI0
ag297
ag297
aI1
aI1
aI2
aI2
ag297
aI2
aI0
aa(lp600
I1
aI0
aI0
ag297
aI1
ag297
ag297
aI0
aI2
ag297
aI1
ag297
ag297
ag297
aI3
aa(lp601
I0
aI0
aI0
ag297
aI1
aI1
ag297
aI1
aI2
ag297
aI1
aI1
ag297
aI3
ag297
aa(lp602
g297
ag297
aI1
ag297
aI0
ag297
ag297
aI1
aI0
aI1
aI2
aI0
ag297
aI1
ag297
aa(lp603
I0
aI1
aI1
aI1
aI1
ag297
ag297
ag297
aI0
aI1
aI1
aI4
ag297
aI2
ag297
aasS'beta'
p604
(lp605
(lp606
cnumpy.core.multiarray
scalar
p607
(g339
S'\x0f\x00\x00\x00\x00\x00\x00\x00'
p608
tp609
Rp610
ag297
ag607
(g339
S'\x1e\x00\x00\x00\x00\x00\x00\x00'
p611
tp612
Rp613
ag297
ag607
(g339
S'\x1e\x00\x00\x00\x00\x00\x00\x00'
p614
tp615
Rp616
ag607
(g339
S'\x1e\x00\x00\x00\x00\x00\x00\x00'
p617
tp618
Rp619
ag297
ag607
(g339
S'\x05\x00\x00\x00\x00\x00\x00\x00'
p620
tp621
Rp622
ag607
(g339
S'\x19\x00\x00\x00\x00\x00\x00\x00'
p623
tp624
Rp625
ag607
(g339
S'\x0f\x00\x00\x00\x00\x00\x00\x00'
p626
tp627
Rp628
ag607
(g339
S'\n\x00\x00\x00\x00\x00\x00\x00'
p629
tp630
Rp631
ag607
(g339
S'\x0f\x00\x00\x00\x00\x00\x00\x00'
p632
tp633
Rp634
ag297
ag607
(g339
S'\x1e\x00\x00\x00\x00\x00\x00\x00'
p635
tp636
Rp637
ag297
aa(lp638
g607
(g339
S'\n\x00\x00\x00\x00\x00\x00\x00'
p639
tp640
Rp641
ag297
ag607
(g339
S'\x1e\x00\x00\x00\x00\x00\x00\x00'
p642
tp643
Rp644
ag297
ag607
(g339
S'\x05\x00\x00\x00\x00\x00\x00\x00'
p645
tp646
Rp647
ag297
ag297
ag607
(g339
S'\x05\x00\x00\x00\x00\x00\x00\x00'
p648
tp649
Rp650
ag607
(g339
S'\x05\x00\x00\x00\x00\x00\x00\x00'
p651
tp652
Rp653
ag607
(g339
S'\x05\x00\x00\x00\x00\x00\x00\x00'
p654
tp655
Rp656
ag607
(g339
S'\x19\x00\x00\x00\x00\x00\x00\x00'
p657
tp658
Rp659
ag607
(g339
S'\x14\x00\x00\x00\x00\x00\x00\x00'
p660
tp661
Rp662
ag297
ag607
(g339
S'\x05\x00\x00\x00\x00\x00\x00\x00'
p663
tp664
Rp665
ag297
aa(lp666
g607
(g339
S'\x0f\x00\x00\x00\x00\x00\x00\x00'
p667
tp668
Rp669
ag297
ag607
(g339
S'\x19\x00\x00\x00\x00\x00\x00\x00'
p670
tp671
Rp672
ag607
(g339
S'\x1e\x00\x00\x00\x00\x00\x00\x00'
p673
tp674
Rp675
ag607
(g339
S'\x14\x00\x00\x00\x00\x00\x00\x00'
p676
tp677
Rp678
ag297
ag297
ag607
(g339
S'\x14\x00\x00\x00\x00\x00\x00\x00'
p679
tp680
Rp681
ag607
(g339
S'\x0f\x00\x00\x00\x00\x00\x00\x00'
p682
tp683
Rp684
ag297
ag607
(g339
S'\x0f\x00\x00\x00\x00\x00\x00\x00'
p685
tp686
Rp687
ag607
(g339
S'\x14\x00\x00\x00\x00\x00\x00\x00'
p688
tp689
Rp690
ag607
(g339
S'\x0f\x00\x00\x00\x00\x00\x00\x00'
p691
tp692
Rp693
ag607
(g339
S'\x19\x00\x00\x00\x00\x00\x00\x00'
p694
tp695
Rp696
ag297
aa(lp697
g607
(g339
S'\x0f\x00\x00\x00\x00\x00\x00\x00'
p698
tp699
Rp700
ag297
ag607
(g339
S'\x1e\x00\x00\x00\x00\x00\x00\x00'
p701
tp702
Rp703
ag607
(g339
S'\n\x00\x00\x00\x00\x00\x00\x00'
p704
tp705
Rp706
ag607
(g339
S'\x05\x00\x00\x00\x00\x00\x00\x00'
p707
tp708
Rp709
ag607
(g339
S'\x0f\x00\x00\x00\x00\x00\x00\x00'
p710
tp711
Rp712
ag297
ag607
(g339
S'\x0f\x00\x00\x00\x00\x00\x00\x00'
p713
tp714
Rp715
ag297
ag297
ag607
(g339
S'\x19\x00\x00\x00\x00\x00\x00\x00'
p716
tp717
Rp718
ag607
(g339
S'\x19\x00\x00\x00\x00\x00\x00\x00'
p719
tp720
Rp721
ag297
ag607
(g339
S'\x05\x00\x00\x00\x00\x00\x00\x00'
p722
tp723
Rp724
ag607
(g339
S'\n\x00\x00\x00\x00\x00\x00\x00'
p725
tp726
Rp727
aa(lp728
g607
(g339
S'\x0f\x00\x00\x00\x00\x00\x00\x00'
p729
tp730
Rp731
ag297
ag607
(g339
S'\x19\x00\x00\x00\x00\x00\x00\x00'
p732
tp733
Rp734
ag607
(g339
S'\x1e\x00\x00\x00\x00\x00\x00\x00'
p735
tp736
Rp737
ag607
(g339
S'\x19\x00\x00\x00\x00\x00\x00\x00'
p738
tp739
Rp740
ag607
(g339
S'\n\x00\x00\x00\x00\x00\x00\x00'
p741
tp742
Rp743
ag297
ag607
(g339
S'\x1e\x00\x00\x00\x00\x00\x00\x00'
p744
tp745
Rp746
ag297
ag297
ag607
(g339
S'\x14\x00\x00\x00\x00\x00\x00\x00'
p747
tp748
Rp749
ag607
(g339
S'\n\x00\x00\x00\x00\x00\x00\x00'
p750
tp751
Rp752
ag297
ag607
(g339
S'\x0f\x00\x00\x00\x00\x00\x00\x00'
p753
tp754
Rp755
ag297
aa(lp756
g297
ag297
ag607
(g339
S'\x19\x00\x00\x00\x00\x00\x00\x00'
p757
tp758
Rp759
ag297
ag607
(g339
S'\x1e\x00\x00\x00\x00\x00\x00\x00'
p760
tp761
Rp762
ag297
ag297
ag607
(g339
S'\x19\x00\x00\x00\x00\x00\x00\x00'
p763
tp764
Rp765
ag607
(g339
S'\x05\x00\x00\x00\x00\x00\x00\x00'
p766
tp767
Rp768
ag607
(g339
S'\x0f\x00\x00\x00\x00\x00\x00\x00'
p769
tp770
Rp771
ag607
(g339
S'\x19\x00\x00\x00\x00\x00\x00\x00'
p772
tp773
Rp774
ag607
(g339
S'\x05\x00\x00\x00\x00\x00\x00\x00'
p775
tp776
Rp777
ag297
ag607
(g339
S'\x1e\x00\x00\x00\x00\x00\x00\x00'
p778
tp779
Rp780
ag607
(g339
S'\n\x00\x00\x00\x00\x00\x00\x00'
p781
tp782
Rp783
aa(lp784
g297
ag297
ag607
(g339
S'\n\x00\x00\x00\x00\x00\x00\x00'
p785
tp786
Rp787
ag607
(g339
S'\n\x00\x00\x00\x00\x00\x00\x00'
p788
tp789
Rp790
ag297
ag297
ag607
(g339
S'\x1e\x00\x00\x00\x00\x00\x00\x00'
p791
tp792
Rp793
ag607
(g339
S'\n\x00\x00\x00\x00\x00\x00\x00'
p794
tp795
Rp796
ag607
(g339
S'\x05\x00\x00\x00\x00\x00\x00\x00'
p797
tp798
Rp799
ag297
ag607
(g339
S'\n\x00\x00\x00\x00\x00\x00\x00'
p800
tp801
Rp802
ag607
(g339
S'\x19\x00\x00\x00\x00\x00\x00\x00'
p803
tp804
Rp805
ag297
ag607
(g339
S'\x19\x00\x00\x00\x00\x00\x00\x00'
p806
tp807
Rp808
ag607
(g339
S'\n\x00\x00\x00\x00\x00\x00\x00'
p809
tp810
Rp811
aa(lp812
g607
(g339
S'\n\x00\x00\x00\x00\x00\x00\x00'
p813
tp814
Rp815
ag297
ag607
(g339
S'\x19\x00\x00\x00\x00\x00\x00\x00'
p816
tp817
Rp818
ag297
ag607
(g339
S'\n\x00\x00\x00\x00\x00\x00\x00'
p819
tp820
Rp821
ag607
(g339
S'\x19\x00\x00\x00\x00\x00\x00\x00'
p822
tp823
Rp824
ag297
ag607
(g339
S'\x1e\x00\x00\x00\x00\x00\x00\x00'
p825
tp826
Rp827
ag297
ag297
ag297
ag607
(g339
S'\n\x00\x00\x00\x00\x00\x00\x00'
p828
tp829
Rp830
ag297
ag607
(g339
S'\x14\x00\x00\x00\x00\x00\x00\x00'
p831
tp832
Rp833
ag297
aa(lp834
g297
ag607
(g339
S'\x19\x00\x00\x00\x00\x00\x00\x00'
p835
tp836
Rp837
ag607
(g339
S'\n\x00\x00\x00\x00\x00\x00\x00'
p838
tp839
Rp840
ag607
(g339
S'\x05\x00\x00\x00\x00\x00\x00\x00'
p841
tp842
Rp843
ag607
(g339
S'\x1e\x00\x00\x00\x00\x00\x00\x00'
p844
tp845
Rp846
ag297
ag297
ag607
(g339
S'\x0f\x00\x00\x00\x00\x00\x00\x00'
p847
tp848
Rp849
ag607
(g339
S'\x0f\x00\x00\x00\x00\x00\x00\x00'
p850
tp851
Rp852
ag607
(g339
S'\x1e\x00\x00\x00\x00\x00\x00\x00'
p853
tp854
Rp855
ag607
(g339
S'\x05\x00\x00\x00\x00\x00\x00\x00'
p856
tp857
Rp858
ag297
ag297
ag607
(g339
S'\x05\x00\x00\x00\x00\x00\x00\x00'
p859
tp860
Rp861
ag297
aa(lp862
g607
(g339
S'\x05\x00\x00\x00\x00\x00\x00\x00'
p863
tp864
Rp865
ag297
ag607
(g339
S'\n\x00\x00\x00\x00\x00\x00\x00'
p866
tp867
Rp868
ag297
ag607
(g339
S'\x0f\x00\x00\x00\x00\x00\x00\x00'
p869
tp870
Rp871
ag297
ag297
ag607
(g339
S'\x19\x00\x00\x00\x00\x00\x00\x00'
p872
tp873
Rp874
ag607
(g339
S'\x0f\x00\x00\x00\x00\x00\x00\x00'
p875
tp876
Rp877
ag297
ag607
(g339
S'\x05\x00\x00\x00\x00\x00\x00\x00'
p878
tp879
Rp880
ag607
(g339
S'\x05\x00\x00\x00\x00\x00\x00\x00'
p881
tp882
Rp883
ag297
ag607
(g339
S'\x0f\x00\x00\x00\x00\x00\x00\x00'
p884
tp885
Rp886
ag297
aa(lp887
g607
(g339
S'\x14\x00\x00\x00\x00\x00\x00\x00'
p888
tp889
Rp890
ag607
(g339
S'\x14\x00\x00\x00\x00\x00\x00\x00'
p891
tp892
Rp893
ag607
(g339
S'\x1e\x00\x00\x00\x00\x00\x00\x00'
p894
tp895
Rp896
ag607
(g339
S'\x19\x00\x00\x00\x00\x00\x00\x00'
p897
tp898
Rp899
ag607
(g339
S'\x1e\x00\x00\x00\x00\x00\x00\x00'
p900
tp901
Rp902
ag607
(g339
S'\x19\x00\x00\x00\x00\x00\x00\x00'
p903
tp904
Rp905
ag297
ag607
(g339
S'\x19\x00\x00\x00\x00\x00\x00\x00'
p906
tp907
Rp908
ag297
ag607
(g339
S'\x05\x00\x00\x00\x00\x00\x00\x00'
p909
tp910
Rp911
ag297
ag607
(g339
S'\x05\x00\x00\x00\x00\x00\x00\x00'
p912
tp913
Rp914
ag297
ag607
(g339
S'\x0f\x00\x00\x00\x00\x00\x00\x00'
p915
tp916
Rp917
ag297
aa(lp918
g297
ag297
ag607
(g339
S'\x05\x00\x00\x00\x00\x00\x00\x00'
p919
tp920
Rp921
ag607
(g339
S'\x0f\x00\x00\x00\x00\x00\x00\x00'
p922
tp923
Rp924
ag607
(g339
S'\n\x00\x00\x00\x00\x00\x00\x00'
p925
tp926
Rp927
ag297
ag297
ag607
(g339
S'\n\x00\x00\x00\x00\x00\x00\x00'
p928
tp929
Rp930
ag607
(g339
S'\x1e\x00\x00\x00\x00\x00\x00\x00'
p931
tp932
Rp933
ag607
(g339
S'\x1e\x00\x00\x00\x00\x00\x00\x00'
p934
tp935
Rp936
ag607
(g339
S'\x05\x00\x00\x00\x00\x00\x00\x00'
p937
tp938
Rp939
ag297
ag297
ag607
(g339
S'\x05\x00\x00\x00\x00\x00\x00\x00'
p940
tp941
Rp942
ag297
aa(lp943
g607
(g339
S'\n\x00\x00\x00\x00\x00\x00\x00'
p944
tp945
Rp946
ag297
ag607
(g339
S'\x1e\x00\x00\x00\x00\x00\x00\x00'
p947
tp948
Rp949
ag297
ag297
ag607
(g339
S'\x05\x00\x00\x00\x00\x00\x00\x00'
p950
tp951
Rp952
ag297
ag607
(g339
S'\x05\x00\x00\x00\x00\x00\x00\x00'
p953
tp954
Rp955
ag297
ag607
(g339
S'\x19\x00\x00\x00\x00\x00\x00\x00'
p956
tp957
Rp958
ag607
(g339
S'\x19\x00\x00\x00\x00\x00\x00\x00'
p959
tp960
Rp961
ag607
(g339
S'\x1e\x00\x00\x00\x00\x00\x00\x00'
p962
tp963
Rp964
ag297
ag607
(g339
S'\x14\x00\x00\x00\x00\x00\x00\x00'
p965
tp966
Rp967
ag297
aa(lp968
g607
(g339
S'\n\x00\x00\x00\x00\x00\x00\x00'
p969
tp970
Rp971
ag297
ag607
(g339
S'\x05\x00\x00\x00\x00\x00\x00\x00'
p972
tp973
Rp974
ag297
ag607
(g339
S'\n\x00\x00\x00\x00\x00\x00\x00'
p975
tp976
Rp977
ag607
(g339
S'\x14\x00\x00\x00\x00\x00\x00\x00'
p978
tp979
Rp980
ag297
ag607
(g339
S'\x1e\x00\x00\x00\x00\x00\x00\x00'
p981
tp982
Rp983
ag297
ag297
ag607
(g339
S'\x19\x00\x00\x00\x00\x00\x00\x00'
p984
tp985
Rp986
ag607
(g339
S'\x0f\x00\x00\x00\x00\x00\x00\x00'
p987
tp988
Rp989
ag297
ag607
(g339
S'\x05\x00\x00\x00\x00\x00\x00\x00'
p990
tp991
Rp992
ag297
aa(lp993
g607
(g339
S'\x0f\x00\x00\x00\x00\x00\x00\x00'
p994
tp995
Rp996
ag297
ag607
(g339
S'\x19\x00\x00\x00\x00\x00\x00\x00'
p997
tp998
Rp999
ag297
ag297
ag607
(g339
S'\x1e\x00\x00\x00\x00\x00\x00\x00'
p1000
tp1001
Rp1002
ag297
ag607
(g339
S'\x19\x00\x00\x00\x00\x00\x00\x00'
p1003
tp1004
Rp1005
ag607
(g339
S'\x0f\x00\x00\x00\x00\x00\x00\x00'
p1006
tp1007
Rp1008
ag607
(g339
S'\n\x00\x00\x00\x00\x00\x00\x00'
p1009
tp1010
Rp1011
ag297
ag607
(g339
S'\x0f\x00\x00\x00\x00\x00\x00\x00'
p1012
tp1013
Rp1014
ag297
ag607
(g339
S'\n\x00\x00\x00\x00\x00\x00\x00'
p1015
tp1016
Rp1017
ag607
(g339
S'\x05\x00\x00\x00\x00\x00\x00\x00'
p1018
tp1019
Rp1020
aa(lp1021
g297
ag607
(g339
S'\n\x00\x00\x00\x00\x00\x00\x00'
p1022
tp1023
Rp1024
ag607
(g339
S'\x0f\x00\x00\x00\x00\x00\x00\x00'
p1025
tp1026
Rp1027
ag297
ag607
(g339
S'\x05\x00\x00\x00\x00\x00\x00\x00'
p1028
tp1029
Rp1030
ag297
ag297
ag297
ag607
(g339
S'\x05\x00\x00\x00\x00\x00\x00\x00'
p1031
tp1032
Rp1033
ag607
(g339
S'\n\x00\x00\x00\x00\x00\x00\x00'
p1034
tp1035
Rp1036
ag607
(g339
S'\x1e\x00\x00\x00\x00\x00\x00\x00'
p1037
tp1038
Rp1039
ag607
(g339
S'\x1e\x00\x00\x00\x00\x00\x00\x00'
p1040
tp1041
Rp1042
ag297
ag607
(g339
S'\n\x00\x00\x00\x00\x00\x00\x00'
p1043
tp1044
Rp1045
ag607
(g339
S'\x14\x00\x00\x00\x00\x00\x00\x00'
p1046
tp1047
Rp1048
aa(lp1049
g297
ag297
ag607
(g339
S'\x05\x00\x00\x00\x00\x00\x00\x00'
p1050
tp1051
Rp1052
ag297
ag607
(g339
S'\x1e\x00\x00\x00\x00\x00\x00\x00'
p1053
tp1054
Rp1055
ag297
ag607
(g339
S'\x1e\x00\x00\x00\x00\x00\x00\x00'
p1056
tp1057
Rp1058
ag297
ag607
(g339
S'\x05\x00\x00\x00\x00\x00\x00\x00'
p1059
tp1060
Rp1061
ag297
ag607
(g339
S'\n\x00\x00\x00\x00\x00\x00\x00'
p1062
tp1063
Rp1064
ag607
(g339
S'\x19\x00\x00\x00\x00\x00\x00\x00'
p1065
tp1066
Rp1067
ag297
ag607
(g339
S'\x1e\x00\x00\x00\x00\x00\x00\x00'
p1068
tp1069
Rp1070
ag297
aa(lp1071
g297
ag607
(g339
S'\x19\x00\x00\x00\x00\x00\x00\x00'
p1072
tp1073
Rp1074
ag607
(g339
S'\x19\x00\x00\x00\x00\x00\x00\x00'
p1075
tp1076
Rp1077
ag607
(g339
S'\n\x00\x00\x00\x00\x00\x00\x00'
p1078
tp1079
Rp1080
ag607
(g339
S'\x1e\x00\x00\x00\x00\x00\x00\x00'
p1081
tp1082
Rp1083
ag607
(g339
S'\n\x00\x00\x00\x00\x00\x00\x00'
p1084
tp1085
Rp1086
ag297
ag607
(g339
S'\n\x00\x00\x00\x00\x00\x00\x00'
p1087
tp1088
Rp1089
ag297
ag297
ag607
(g339
S'\x1e\x00\x00\x00\x00\x00\x00\x00'
p1090
tp1091
Rp1092
ag297
ag297
ag607
(g339
S'\x05\x00\x00\x00\x00\x00\x00\x00'
p1093
tp1094
Rp1095
ag607
(g339
S'\x19\x00\x00\x00\x00\x00\x00\x00'
p1096
tp1097
Rp1098
aa(lp1099
g607
(g339
S'\x0f\x00\x00\x00\x00\x00\x00\x00'
p1100
tp1101
Rp1102
ag297
ag607
(g339
S'\x0f\x00\x00\x00\x00\x00\x00\x00'
p1103
tp1104
Rp1105
ag607
(g339
S'\n\x00\x00\x00\x00\x00\x00\x00'
p1106
tp1107
Rp1108
ag297
ag607
(g339
S'\x1e\x00\x00\x00\x00\x00\x00\x00'
p1109
tp1110
Rp1111
ag297
ag607
(g339
S'\x19\x00\x00\x00\x00\x00\x00\x00'
p1112
tp1113
Rp1114
ag607
(g339
S'\x19\x00\x00\x00\x00\x00\x00\x00'
p1115
tp1116
Rp1117
ag297
ag607
(g339
S'\x05\x00\x00\x00\x00\x00\x00\x00'
p1118
tp1119
Rp1120
ag297
ag297
ag607
(g339
S'\x14\x00\x00\x00\x00\x00\x00\x00'
p1121
tp1122
Rp1123
ag297
aa(lp1124
g607
(g339
S'\n\x00\x00\x00\x00\x00\x00\x00'
p1125
tp1126
Rp1127
ag297
ag607
(g339
S'\x14\x00\x00\x00\x00\x00\x00\x00'
p1128
tp1129
Rp1130
ag297
ag607
(g339
S'\n\x00\x00\x00\x00\x00\x00\x00'
p1131
tp1132
Rp1133
ag297
ag607
(g339
S'\x0f\x00\x00\x00\x00\x00\x00\x00'
p1134
tp1135
Rp1136
ag607
(g339
S'\n\x00\x00\x00\x00\x00\x00\x00'
p1137
tp1138
Rp1139
ag297
ag607
(g339
S'\x14\x00\x00\x00\x00\x00\x00\x00'
p1140
tp1141
Rp1142
ag297
ag607
(g339
S'\x14\x00\x00\x00\x00\x00\x00\x00'
p1143
tp1144
Rp1145
ag297
ag607
(g339
S'\x05\x00\x00\x00\x00\x00\x00\x00'
p1146
tp1147
Rp1148
ag297
aa(lp1149
g297
ag607
(g339
S'\x05\x00\x00\x00\x00\x00\x00\x00'
p1150
tp1151
Rp1152
ag607
(g339
S'\x05\x00\x00\x00\x00\x00\x00\x00'
p1153
tp1154
Rp1155
ag297
ag607
(g339
S'\x0f\x00\x00\x00\x00\x00\x00\x00'
p1156
tp1157
Rp1158
ag297
ag297
ag607
(g339
S'\x19\x00\x00\x00\x00\x00\x00\x00'
p1159
tp1160
Rp1161
ag297
ag607
(g339
S'\x1e\x00\x00\x00\x00\x00\x00\x00'
p1162
tp1163
Rp1164
ag297
ag297
ag297
ag607
(g339
S'\x1e\x00\x00\x00\x00\x00\x00\x00'
p1165
tp1166
Rp1167
ag297
aa(lp1168
g297
ag297
ag607
(g339
S'\x0f\x00\x00\x00\x00\x00\x00\x00'
p1169
tp1170
Rp1171
ag297
ag607
(g339
S'\x19\x00\x00\x00\x00\x00\x00\x00'
p1172
tp1173
Rp1174
ag297
ag297
ag607
(g339
S'\n\x00\x00\x00\x00\x00\x00\x00'
p1175
tp1176
Rp1177
ag297
ag297
ag607
(g339
S'\x0f\x00\x00\x00\x00\x00\x00\x00'
p1178
tp1179
Rp1180
ag607
(g339
S'\n\x00\x00\x00\x00\x00\x00\x00'
p1181
tp1182
Rp1183
ag297
ag607
(g339
S'\x05\x00\x00\x00\x00\x00\x00\x00'
p1184
tp1185
Rp1186
ag607
(g339
S'\x0f\x00\x00\x00\x00\x00\x00\x00'
p1187
tp1188
Rp1189
aa(lp1190
g607
(g339
S'\x1e\x00\x00\x00\x00\x00\x00\x00'
p1191
tp1192
Rp1193
ag297
ag607
(g339
S'\x19\x00\x00\x00\x00\x00\x00\x00'
p1194
tp1195
Rp1196
ag297
ag607
(g339
S'\x05\x00\x00\x00\x00\x00\x00\x00'
p1197
tp1198
Rp1199
ag297
ag297
ag607
(g339
S'\x05\x00\x00\x00\x00\x00\x00\x00'
p1200
tp1201
Rp1202
ag607
(g339
S'\x0f\x00\x00\x00\x00\x00\x00\x00'
p1203
tp1204
Rp1205
ag607
(g339
S'\x19\x00\x00\x00\x00\x00\x00\x00'
p1206
tp1207
Rp1208
ag607
(g339
S'\n\x00\x00\x00\x00\x00\x00\x00'
p1209
tp1210
Rp1211
ag607
(g339
S'\x05\x00\x00\x00\x00\x00\x00\x00'
p1212
tp1213
Rp1214
ag297
ag607
(g339
S'\x1e\x00\x00\x00\x00\x00\x00\x00'
p1215
tp1216
Rp1217
ag297
aa(lp1218
g607
(g339
S'\x14\x00\x00\x00\x00\x00\x00\x00'
p1219
tp1220
Rp1221
ag297
ag607
(g339
S'\x19\x00\x00\x00\x00\x00\x00\x00'
p1222
tp1223
Rp1224
ag607
(g339
S'\x0f\x00\x00\x00\x00\x00\x00\x00'
p1225
tp1226
Rp1227
ag607
(g339
S'\x0f\x00\x00\x00\x00\x00\x00\x00'
p1228
tp1229
Rp1230
ag607
(g339
S'\x1e\x00\x00\x00\x00\x00\x00\x00'
p1231
tp1232
Rp1233
ag297
ag607
(g339
S'\x05\x00\x00\x00\x00\x00\x00\x00'
p1234
tp1235
Rp1236
ag607
(g339
S'\x1e\x00\x00\x00\x00\x00\x00\x00'
p1237
tp1238
Rp1239
ag607
(g339
S'\x05\x00\x00\x00\x00\x00\x00\x00'
p1240
tp1241
Rp1242
ag607
(g339
S'\x05\x00\x00\x00\x00\x00\x00\x00'
p1243
tp1244
Rp1245
ag297
ag297
ag607
(g339
S'\x19\x00\x00\x00\x00\x00\x00\x00'
p1246
tp1247
Rp1248
ag607
(g339
S'\x1e\x00\x00\x00\x00\x00\x00\x00'
p1249
tp1250
Rp1251
aa(lp1252
g607
(g339
S'\x1e\x00\x00\x00\x00\x00\x00\x00'
p1253
tp1254
Rp1255
ag297
ag607
(g339
S'\x0f\x00\x00\x00\x00\x00\x00\x00'
p1256
tp1257
Rp1258
ag297
ag607
(g339
S'\n\x00\x00\x00\x00\x00\x00\x00'
p1259
tp1260
Rp1261
ag297
ag297
ag607
(g339
S'\x0f\x00\x00\x00\x00\x00\x00\x00'
p1262
tp1263
Rp1264
ag297
ag297
ag607
(g339
S'\x19\x00\x00\x00\x00\x00\x00\x00'
p1265
tp1266
Rp1267
ag607
(g339
S'\x0f\x00\x00\x00\x00\x00\x00\x00'
p1268
tp1269
Rp1270
ag297
ag607
(g339
S'\x1e\x00\x00\x00\x00\x00\x00\x00'
p1271
tp1272
Rp1273
ag297
aa(lp1274
g297
ag607
(g339
S'\x0f\x00\x00\x00\x00\x00\x00\x00'
p1275
tp1276
Rp1277
ag607
(g339
S'\x14\x00\x00\x00\x00\x00\x00\x00'
p1278
tp1279
Rp1280
ag297
ag607
(g339
S'\n\x00\x00\x00\x00\x00\x00\x00'
p1281
tp1282
Rp1283
ag607
(g339
S'\x0f\x00\x00\x00\x00\x00\x00\x00'
p1284
tp1285
Rp1286
ag297
ag297
ag607
(g339
S'\x14\x00\x00\x00\x00\x00\x00\x00'
p1287
tp1288
Rp1289
ag607
(g339
S'\x19\x00\x00\x00\x00\x00\x00\x00'
p1290
tp1291
Rp1292
ag607
(g339
S'\x05\x00\x00\x00\x00\x00\x00\x00'
p1293
tp1294
Rp1295
ag607
(g339
S'\x19\x00\x00\x00\x00\x00\x00\x00'
p1296
tp1297
Rp1298
ag297
ag607
(g339
S'\x19\x00\x00\x00\x00\x00\x00\x00'
p1299
tp1300
Rp1301
ag607
(g339
S'\n\x00\x00\x00\x00\x00\x00\x00'
p1302
tp1303
Rp1304
aa(lp1305
g607
(g339
S'\n\x00\x00\x00\x00\x00\x00\x00'
p1306
tp1307
Rp1308
ag607
(g339
S'\x05\x00\x00\x00\x00\x00\x00\x00'
p1309
tp1310
Rp1311
ag607
(g339
S'\x0f\x00\x00\x00\x00\x00\x00\x00'
p1312
tp1313
Rp1314
ag297
ag607
(g339
S'\n\x00\x00\x00\x00\x00\x00\x00'
p1315
tp1316
Rp1317
ag297
ag297
ag607
(g339
S'\x14\x00\x00\x00\x00\x00\x00\x00'
p1318
tp1319
Rp1320
ag607
(g339
S'\x14\x00\x00\x00\x00\x00\x00\x00'
p1321
tp1322
Rp1323
ag297
ag607
(g339
S'\x05\x00\x00\x00\x00\x00\x00\x00'
p1324
tp1325
Rp1326
ag297
ag297
ag297
ag607
(g339
S'\x0f\x00\x00\x00\x00\x00\x00\x00'
p1327
tp1328
Rp1329
aa(lp1330
g607
(g339
S'\x05\x00\x00\x00\x00\x00\x00\x00'
p1331
tp1332
Rp1333
ag607
(g339
S'\x0f\x00\x00\x00\x00\x00\x00\x00'
p1334
tp1335
Rp1336
ag607
(g339
S'\x14\x00\x00\x00\x00\x00\x00\x00'
p1337
tp1338
Rp1339
ag297
ag607
(g339
S'\x14\x00\x00\x00\x00\x00\x00\x00'
p1340
tp1341
Rp1342
ag607
(g339
S'\x1e\x00\x00\x00\x00\x00\x00\x00'
p1343
tp1344
Rp1345
ag297
ag607
(g339
S'\x1e\x00\x00\x00\x00\x00\x00\x00'
p1346
tp1347
Rp1348
ag607
(g339
S'\x19\x00\x00\x00\x00\x00\x00\x00'
p1349
tp1350
Rp1351
ag297
ag607
(g339
S'\x14\x00\x00\x00\x00\x00\x00\x00'
p1352
tp1353
Rp1354
ag607
(g339
S'\n\x00\x00\x00\x00\x00\x00\x00'
p1355
tp1356
Rp1357
ag297
ag607
(g339
S'\x14\x00\x00\x00\x00\x00\x00\x00'
p1358
tp1359
Rp1360
ag297
aa(lp1361
g297
ag297
ag607
(g339
S'\x19\x00\x00\x00\x00\x00\x00\x00'
p1362
tp1363
Rp1364
ag297
ag607
(g339
S'\x05\x00\x00\x00\x00\x00\x00\x00'
p1365
tp1366
Rp1367
ag297
ag297
ag607
(g339
S'\x05\x00\x00\x00\x00\x00\x00\x00'
p1368
tp1369
Rp1370
ag607
(g339
S'\n\x00\x00\x00\x00\x00\x00\x00'
p1371
tp1372
Rp1373
ag607
(g339
S'\x19\x00\x00\x00\x00\x00\x00\x00'
p1374
tp1375
Rp1376
ag607
(g339
S'\n\x00\x00\x00\x00\x00\x00\x00'
p1377
tp1378
Rp1379
ag607
(g339
S'\n\x00\x00\x00\x00\x00\x00\x00'
p1380
tp1381
Rp1382
ag297
ag607
(g339
S'\x14\x00\x00\x00\x00\x00\x00\x00'
p1383
tp1384
Rp1385
ag297
aa(lp1386
g607
(g339
S'\n\x00\x00\x00\x00\x00\x00\x00'
p1387
tp1388
Rp1389
ag607
(g339
S'\x1e\x00\x00\x00\x00\x00\x00\x00'
p1390
tp1391
Rp1392
ag607
(g339
S'\x1e\x00\x00\x00\x00\x00\x00\x00'
p1393
tp1394
Rp1395
ag607
(g339
S'\x14\x00\x00\x00\x00\x00\x00\x00'
p1396
tp1397
Rp1398
ag607
(g339
S'\x1e\x00\x00\x00\x00\x00\x00\x00'
p1399
tp1400
Rp1401
ag297
ag297
ag297
ag607
(g339
S'\n\x00\x00\x00\x00\x00\x00\x00'
p1402
tp1403
Rp1404
ag607
(g339
S'\x0f\x00\x00\x00\x00\x00\x00\x00'
p1405
tp1406
Rp1407
ag607
(g339
S'\x1e\x00\x00\x00\x00\x00\x00\x00'
p1408
tp1409
Rp1410
ag607
(g339
S'\x14\x00\x00\x00\x00\x00\x00\x00'
p1411
tp1412
Rp1413
ag297
ag607
(g339
S'\x14\x00\x00\x00\x00\x00\x00\x00'
p1414
tp1415
Rp1416
ag297
aasS'Pf'
p1417
(lp1418
(lp1419
g607
(g336
(S'S2'
p1420
I0
I1
tp1421
Rp1422
(I3
S'|'
p1423
NNNI2
I1
I0
tp1424
bS'P8'
p1425
tp1426
Rp1427
ag607
(g336
(S'S2'
p1428
I0
I1
tp1429
Rp1430
(I3
S'|'
p1431
NNNI2
I1
I0
tp1432
bS'P4'
p1433
tp1434
Rp1435
ag607
(g336
(S'S3'
p1436
I0
I1
tp1437
Rp1438
(I3
S'|'
p1439
NNNI3
I1
I0
tp1440
bS'P27'
p1441
tp1442
Rp1443
ag607
(g336
(S'S2'
p1444
I0
I1
tp1445
Rp1446
(I3
S'|'
p1447
NNNI2
I1
I0
tp1448
bS'P3'
p1449
tp1450
Rp1451
ag607
(g336
(S'S3'
p1452
I0
I1
tp1453
Rp1454
(I3
S'|'
p1455
NNNI3
I1
I0
tp1456
bS'P24'
p1457
tp1458
Rp1459
ag607
(g336
(S'S3'
p1460
I0
I1
tp1461
Rp1462
(I3
S'|'
p1463
NNNI3
I1
I0
tp1464
bS'P10'
p1465
tp1466
Rp1467
ag607
(g336
(S'S3'
p1468
I0
I1
tp1469
Rp1470
(I3
S'|'
p1471
NNNI3
I1
I0
tp1472
bS'P28'
p1473
tp1474
Rp1475
ag607
(g336
(S'S3'
p1476
I0
I1
tp1477
Rp1478
(I3
S'|'
p1479
NNNI3
I1
I0
tp1480
bS'P25'
p1481
tp1482
Rp1483
ag607
(g336
(S'S3'
p1484
I0
I1
tp1485
Rp1486
(I3
S'|'
p1487
NNNI3
I1
I0
tp1488
bS'P14'
p1489
tp1490
Rp1491
ag607
(g336
(S'S3'
p1492
I0
I1
tp1493
Rp1494
(I3
S'|'
p1495
NNNI3
I1
I0
tp1496
bS'P30'
p1497
tp1498
Rp1499
ag607
(g336
(S'S2'
p1500
I0
I1
tp1501
Rp1502
(I3
S'|'
p1503
NNNI2
I1
I0
tp1504
bS'P1'
p1505
tp1506
Rp1507
ag607
(g336
(S'S3'
p1508
I0
I1
tp1509
Rp1510
(I3
S'|'
p1511
NNNI3
I1
I0
tp1512
bS'P15'
p1513
tp1514
Rp1515
ag607
(g336
(S'S3'
p1516
I0
I1
tp1517
Rp1518
(I3
S'|'
p1519
NNNI3
I1
I0
tp1520
bS'P20'
p1521
tp1522
Rp1523
ag607
(g336
(S'S3'
p1524
I0
I1
tp1525
Rp1526
(I3
S'|'
p1527
NNNI3
I1
I0
tp1528
bS'P13'
p1529
tp1530
Rp1531
ag607
(g336
(S'S2'
p1532
I0
I1
tp1533
Rp1534
(I3
S'|'
p1535
NNNI2
I1
I0
tp1536
bS'P5'
p1537
tp1538
Rp1539
ag607
(g336
(S'S3'
p1540
I0
I1
tp1541
Rp1542
(I3
S'|'
p1543
NNNI3
I1
I0
tp1544
bS'P11'
p1545
tp1546
Rp1547
ag607
(g336
(S'S3'
p1548
I0
I1
tp1549
Rp1550
(I3
S'|'
p1551
NNNI3
I1
I0
tp1552
bS'P23'
p1553
tp1554
Rp1555
ag607
(g336
(S'S3'
p1556
I0
I1
tp1557
Rp1558
(I3
S'|'
p1559
NNNI3
I1
I0
tp1560
bS'P19'
p1561
tp1562
Rp1563
ag607
(g336
(S'S2'
p1564
I0
I1
tp1565
Rp1566
(I3
S'|'
p1567
NNNI2
I1
I0
tp1568
bS'P2'
p1569
tp1570
Rp1571
aa(lp1572
g607
(g336
(S'S3'
p1573
I0
I1
tp1574
Rp1575
(I3
S'|'
p1576
NNNI3
I1
I0
tp1577
bS'P27'
p1578
tp1579
Rp1580
ag607
(g336
(S'S2'
p1581
I0
I1
tp1582
Rp1583
(I3
S'|'
p1584
NNNI2
I1
I0
tp1585
bS'P9'
p1586
tp1587
Rp1588
ag607
(g336
(S'S3'
p1589
I0
I1
tp1590
Rp1591
(I3
S'|'
p1592
NNNI3
I1
I0
tp1593
bS'P28'
p1594
tp1595
Rp1596
ag607
(g336
(S'S3'
p1597
I0
I1
tp1598
Rp1599
(I3
S'|'
p1600
NNNI3
I1
I0
tp1601
bS'P21'
p1602
tp1603
Rp1604
ag607
(g336
(S'S3'
p1605
I0
I1
tp1606
Rp1607
(I3
S'|'
p1608
NNNI3
I1
I0
tp1609
bS'P11'
p1610
tp1611
Rp1612
ag607
(g336
(S'S3'
p1613
I0
I1
tp1614
Rp1615
(I3
S'|'
p1616
NNNI3
I1
I0
tp1617
bS'P16'
p1618
tp1619
Rp1620
ag607
(g336
(S'S3'
p1621
I0
I1
tp1622
Rp1623
(I3
S'|'
p1624
NNNI3
I1
I0
tp1625
bS'P18'
p1626
tp1627
Rp1628
ag607
(g336
(S'S3'
p1629
I0
I1
tp1630
Rp1631
(I3
S'|'
p1632
NNNI3
I1
I0
tp1633
bS'P26'
p1634
tp1635
Rp1636
ag607
(g336
(S'S3'
p1637
I0
I1
tp1638
Rp1639
(I3
S'|'
p1640
NNNI3
I1
I0
tp1641
bS'P30'
p1642
tp1643
Rp1644
aa(lp1645
g607
(g336
(S'S3'
p1646
I0
I1
tp1647
Rp1648
(I3
S'|'
p1649
NNNI3
I1
I0
tp1650
bS'P19'
p1651
tp1652
Rp1653
ag607
(g336
(S'S3'
p1654
I0
I1
tp1655
Rp1656
(I3
S'|'
p1657
NNNI3
I1
I0
tp1658
bS'P21'
p1659
tp1660
Rp1661
ag607
(g336
(S'S3'
p1662
I0
I1
tp1663
Rp1664
(I3
S'|'
p1665
NNNI3
I1
I0
tp1666
bS'P20'
p1667
tp1668
Rp1669
ag607
(g336
(S'S3'
p1670
I0
I1
tp1671
Rp1672
(I3
S'|'
p1673
NNNI3
I1
I0
tp1674
bS'P29'
p1675
tp1676
Rp1677
ag607
(g336
(S'S2'
p1678
I0
I1
tp1679
Rp1680
(I3
S'|'
p1681
NNNI2
I1
I0
tp1682
bS'P7'
p1683
tp1684
Rp1685
ag607
(g336
(S'S2'
p1686
I0
I1
tp1687
Rp1688
(I3
S'|'
p1689
NNNI2
I1
I0
tp1690
bS'P8'
p1691
tp1692
Rp1693
ag607
(g336
(S'S2'
p1694
I0
I1
tp1695
Rp1696
(I3
S'|'
p1697
NNNI2
I1
I0
tp1698
bS'P9'
p1699
tp1700
Rp1701
ag607
(g336
(S'S3'
p1702
I0
I1
tp1703
Rp1704
(I3
S'|'
p1705
NNNI3
I1
I0
tp1706
bS'P25'
p1707
tp1708
Rp1709
ag607
(g336
(S'S3'
p1710
I0
I1
tp1711
Rp1712
(I3
S'|'
p1713
NNNI3
I1
I0
tp1714
bS'P18'
p1715
tp1716
Rp1717
ag607
(g336
(S'S3'
p1718
I0
I1
tp1719
Rp1720
(I3
S'|'
p1721
NNNI3
I1
I0
tp1722
bS'P28'
p1723
tp1724
Rp1725
ag607
(g336
(S'S2'
p1726
I0
I1
tp1727
Rp1728
(I3
S'|'
p1729
NNNI2
I1
I0
tp1730
bS'P5'
p1731
tp1732
Rp1733
ag607
(g336
(S'S3'
p1734
I0
I1
tp1735
Rp1736
(I3
S'|'
p1737
NNNI3
I1
I0
tp1738
bS'P27'
p1739
tp1740
Rp1741
ag607
(g336
(S'S3'
p1742
I0
I1
tp1743
Rp1744
(I3
S'|'
p1745
NNNI3
I1
I0
tp1746
bS'P12'
p1747
tp1748
Rp1749
ag607
(g336
(S'S3'
p1750
I0
I1
tp1751
Rp1752
(I3
S'|'
p1753
NNNI3
I1
I0
tp1754
bS'P10'
p1755
tp1756
Rp1757
ag607
(g336
(S'S3'
p1758
I0
I1
tp1759
Rp1760
(I3
S'|'
p1761
NNNI3
I1
I0
tp1762
bS'P24'
p1763
tp1764
Rp1765
ag607
(g336
(S'S3'
p1766
I0
I1
tp1767
Rp1768
(I3
S'|'
p1769
NNNI3
I1
I0
tp1770
bS'P23'
p1771
tp1772
Rp1773
ag607
(g336
(S'S2'
p1774
I0
I1
tp1775
Rp1776
(I3
S'|'
p1777
NNNI2
I1
I0
tp1778
bS'P6'
p1779
tp1780
Rp1781
ag607
(g336
(S'S2'
p1782
I0
I1
tp1783
Rp1784
(I3
S'|'
p1785
NNNI2
I1
I0
tp1786
bS'P2'
p1787
tp1788
Rp1789
ag607
(g336
(S'S3'
p1790
I0
I1
tp1791
Rp1792
(I3
S'|'
p1793
NNNI3
I1
I0
tp1794
bS'P16'
p1795
tp1796
Rp1797
ag607
(g336
(S'S3'
p1798
I0
I1
tp1799
Rp1800
(I3
S'|'
p1801
NNNI3
I1
I0
tp1802
bS'P15'
p1803
tp1804
Rp1805
ag607
(g336
(S'S2'
p1806
I0
I1
tp1807
Rp1808
(I3
S'|'
p1809
NNNI2
I1
I0
tp1810
bS'P3'
p1811
tp1812
Rp1813
ag607
(g336
(S'S2'
p1814
I0
I1
tp1815
Rp1816
(I3
S'|'
p1817
NNNI2
I1
I0
tp1818
bS'P4'
p1819
tp1820
Rp1821
ag607
(g336
(S'S3'
p1822
I0
I1
tp1823
Rp1824
(I3
S'|'
p1825
NNNI3
I1
I0
tp1826
bS'P22'
p1827
tp1828
Rp1829
ag607
(g336
(S'S3'
p1830
I0
I1
tp1831
Rp1832
(I3
S'|'
p1833
NNNI3
I1
I0
tp1834
bS'P13'
p1835
tp1836
Rp1837
ag607
(g336
(S'S3'
p1838
I0
I1
tp1839
Rp1840
(I3
S'|'
p1841
NNNI3
I1
I0
tp1842
bS'P14'
p1843
tp1844
Rp1845
ag607
(g336
(S'S3'
p1846
I0
I1
tp1847
Rp1848
(I3
S'|'
p1849
NNNI3
I1
I0
tp1850
bS'P30'
p1851
tp1852
Rp1853
ag607
(g336
(S'S3'
p1854
I0
I1
tp1855
Rp1856
(I3
S'|'
p1857
NNNI3
I1
I0
tp1858
bS'P11'
p1859
tp1860
Rp1861
ag607
(g336
(S'S3'
p1862
I0
I1
tp1863
Rp1864
(I3
S'|'
p1865
NNNI3
I1
I0
tp1866
bS'P26'
p1867
tp1868
Rp1869
ag607
(g336
(S'S2'
p1870
I0
I1
tp1871
Rp1872
(I3
S'|'
p1873
NNNI2
I1
I0
tp1874
bS'P1'
p1875
tp1876
Rp1877
ag607
(g336
(S'S3'
p1878
I0
I1
tp1879
Rp1880
(I3
S'|'
p1881
NNNI3
I1
I0
tp1882
bS'P17'
p1883
tp1884
Rp1885
aa(lp1886
g607
(g336
(S'S2'
p1887
I0
I1
tp1888
Rp1889
(I3
S'|'
p1890
NNNI2
I1
I0
tp1891
bS'P9'
p1892
tp1893
Rp1894
ag607
(g336
(S'S2'
p1895
I0
I1
tp1896
Rp1897
(I3
S'|'
p1898
NNNI2
I1
I0
tp1899
bS'P7'
p1900
tp1901
Rp1902
ag607
(g336
(S'S3'
p1903
I0
I1
tp1904
Rp1905
(I3
S'|'
p1906
NNNI3
I1
I0
tp1907
bS'P24'
p1908
tp1909
Rp1910
ag607
(g336
(S'S3'
p1911
I0
I1
tp1912
Rp1913
(I3
S'|'
p1914
NNNI3
I1
I0
tp1915
bS'P18'
p1916
tp1917
Rp1918
ag607
(g336
(S'S3'
p1919
I0
I1
tp1920
Rp1921
(I3
S'|'
p1922
NNNI3
I1
I0
tp1923
bS'P11'
p1924
tp1925
Rp1926
ag607
(g336
(S'S3'
p1927
I0
I1
tp1928
Rp1929
(I3
S'|'
p1930
NNNI3
I1
I0
tp1931
bS'P19'
p1932
tp1933
Rp1934
ag607
(g336
(S'S2'
p1935
I0
I1
tp1936
Rp1937
(I3
S'|'
p1938
NNNI2
I1
I0
tp1939
bS'P5'
p1940
tp1941
Rp1942
ag607
(g336
(S'S3'
p1943
I0
I1
tp1944
Rp1945
(I3
S'|'
p1946
NNNI3
I1
I0
tp1947
bS'P30'
p1948
tp1949
Rp1950
ag607
(g336
(S'S2'
p1951
I0
I1
tp1952
Rp1953
(I3
S'|'
p1954
NNNI2
I1
I0
tp1955
bS'P4'
p1956
tp1957
Rp1958
ag607
(g336
(S'S2'
p1959
I0
I1
tp1960
Rp1961
(I3
S'|'
p1962
NNNI2
I1
I0
tp1963
bS'P3'
p1964
tp1965
Rp1966
ag607
(g336
(S'S3'
p1967
I0
I1
tp1968
Rp1969
(I3
S'|'
p1970
NNNI3
I1
I0
tp1971
bS'P12'
p1972
tp1973
Rp1974
aa(lp1975
g607
(g336
(S'S3'
p1976
I0
I1
tp1977
Rp1978
(I3
S'|'
p1979
NNNI3
I1
I0
tp1980
bS'P20'
p1981
tp1982
Rp1983
ag607
(g336
(S'S3'
p1984
I0
I1
tp1985
Rp1986
(I3
S'|'
p1987
NNNI3
I1
I0
tp1988
bS'P10'
p1989
tp1990
Rp1991
ag607
(g336
(S'S3'
p1992
I0
I1
tp1993
Rp1994
(I3
S'|'
p1995
NNNI3
I1
I0
tp1996
bS'P24'
p1997
tp1998
Rp1999
ag607
(g336
(S'S2'
p2000
I0
I1
tp2001
Rp2002
(I3
S'|'
p2003
NNNI2
I1
I0
tp2004
bS'P9'
p2005
tp2006
Rp2007
ag607
(g336
(S'S3'
p2008
I0
I1
tp2009
Rp2010
(I3
S'|'
p2011
NNNI3
I1
I0
tp2012
bS'P21'
p2013
tp2014
Rp2015
ag607
(g336
(S'S3'
p2016
I0
I1
tp2017
Rp2018
(I3
S'|'
p2019
NNNI3
I1
I0
tp2020
bS'P18'
p2021
tp2022
Rp2023
ag607
(g336
(S'S3'
p2024
I0
I1
tp2025
Rp2026
(I3
S'|'
p2027
NNNI3
I1
I0
tp2028
bS'P11'
p2029
tp2030
Rp2031
ag607
(g336
(S'S3'
p2032
I0
I1
tp2033
Rp2034
(I3
S'|'
p2035
NNNI3
I1
I0
tp2036
bS'P22'
p2037
tp2038
Rp2039
ag607
(g336
(S'S3'
p2040
I0
I1
tp2041
Rp2042
(I3
S'|'
p2043
NNNI3
I1
I0
tp2044
bS'P12'
p2045
tp2046
Rp2047
ag607
(g336
(S'S2'
p2048
I0
I1
tp2049
Rp2050
(I3
S'|'
p2051
NNNI2
I1
I0
tp2052
bS'P8'
p2053
tp2054
Rp2055
ag607
(g336
(S'S3'
p2056
I0
I1
tp2057
Rp2058
(I3
S'|'
p2059
NNNI3
I1
I0
tp2060
bS'P17'
p2061
tp2062
Rp2063
ag607
(g336
(S'S2'
p2064
I0
I1
tp2065
Rp2066
(I3
S'|'
p2067
NNNI2
I1
I0
tp2068
bS'P1'
p2069
tp2070
Rp2071
ag607
(g336
(S'S3'
p2072
I0
I1
tp2073
Rp2074
(I3
S'|'
p2075
NNNI3
I1
I0
tp2076
bS'P27'
p2077
tp2078
Rp2079
ag607
(g336
(S'S3'
p2080
I0
I1
tp2081
Rp2082
(I3
S'|'
p2083
NNNI3
I1
I0
tp2084
bS'P28'
p2085
tp2086
Rp2087
ag607
(g336
(S'S2'
p2088
I0
I1
tp2089
Rp2090
(I3
S'|'
p2091
NNNI2
I1
I0
tp2092
bS'P5'
p2093
tp2094
Rp2095
ag607
(g336
(S'S3'
p2096
I0
I1
tp2097
Rp2098
(I3
S'|'
p2099
NNNI3
I1
I0
tp2100
bS'P16'
p2101
tp2102
Rp2103
ag607
(g336
(S'S3'
p2104
I0
I1
tp2105
Rp2106
(I3
S'|'
p2107
NNNI3
I1
I0
tp2108
bS'P23'
p2109
tp2110
Rp2111
ag607
(g336
(S'S3'
p2112
I0
I1
tp2113
Rp2114
(I3
S'|'
p2115
NNNI3
I1
I0
tp2116
bS'P29'
p2117
tp2118
Rp2119
ag607
(g336
(S'S3'
p2120
I0
I1
tp2121
Rp2122
(I3
S'|'
p2123
NNNI3
I1
I0
tp2124
bS'P26'
p2125
tp2126
Rp2127
ag607
(g336
(S'S2'
p2128
I0
I1
tp2129
Rp2130
(I3
S'|'
p2131
NNNI2
I1
I0
tp2132
bS'P4'
p2133
tp2134
Rp2135
ag607
(g336
(S'S3'
p2136
I0
I1
tp2137
Rp2138
(I3
S'|'
p2139
NNNI3
I1
I0
tp2140
bS'P25'
p2141
tp2142
Rp2143
ag607
(g336
(S'S2'
p2144
I0
I1
tp2145
Rp2146
(I3
S'|'
p2147
NNNI2
I1
I0
tp2148
bS'P3'
p2149
tp2150
Rp2151
ag607
(g336
(S'S3'
p2152
I0
I1
tp2153
Rp2154
(I3
S'|'
p2155
NNNI3
I1
I0
tp2156
bS'P14'
p2157
tp2158
Rp2159
ag607
(g336
(S'S2'
p2160
I0
I1
tp2161
Rp2162
(I3
S'|'
p2163
NNNI2
I1
I0
tp2164
bS'P6'
p2165
tp2166
Rp2167
ag607
(g336
(S'S3'
p2168
I0
I1
tp2169
Rp2170
(I3
S'|'
p2171
NNNI3
I1
I0
tp2172
bS'P30'
p2173
tp2174
Rp2175
ag607
(g336
(S'S2'
p2176
I0
I1
tp2177
Rp2178
(I3
S'|'
p2179
NNNI2
I1
I0
tp2180
bS'P2'
p2181
tp2182
Rp2183
aa(lp2184
g607
(g336
(S'S3'
p2185
I0
I1
tp2186
Rp2187
(I3
S'|'
p2188
NNNI3
I1
I0
tp2189
bS'P28'
p2190
tp2191
Rp2192
ag607
(g336
(S'S2'
p2193
I0
I1
tp2194
Rp2195
(I3
S'|'
p2196
NNNI2
I1
I0
tp2197
bS'P5'
p2198
tp2199
Rp2200
ag607
(g336
(S'S3'
p2201
I0
I1
tp2202
Rp2203
(I3
S'|'
p2204
NNNI3
I1
I0
tp2205
bS'P24'
p2206
tp2207
Rp2208
ag607
(g336
(S'S2'
p2209
I0
I1
tp2210
Rp2211
(I3
S'|'
p2212
NNNI2
I1
I0
tp2213
bS'P4'
p2214
tp2215
Rp2216
ag607
(g336
(S'S3'
p2217
I0
I1
tp2218
Rp2219
(I3
S'|'
p2220
NNNI3
I1
I0
tp2221
bS'P11'
p2222
tp2223
Rp2224
ag607
(g336
(S'S2'
p2225
I0
I1
tp2226
Rp2227
(I3
S'|'
p2228
NNNI2
I1
I0
tp2229
bS'P1'
p2230
tp2231
Rp2232
ag607
(g336
(S'S3'
p2233
I0
I1
tp2234
Rp2235
(I3
S'|'
p2236
NNNI3
I1
I0
tp2237
bS'P18'
p2238
tp2239
Rp2240
ag607
(g336
(S'S3'
p2241
I0
I1
tp2242
Rp2243
(I3
S'|'
p2244
NNNI3
I1
I0
tp2245
bS'P13'
p2246
tp2247
Rp2248
ag607
(g336
(S'S3'
p2249
I0
I1
tp2250
Rp2251
(I3
S'|'
p2252
NNNI3
I1
I0
tp2253
bS'P26'
p2254
tp2255
Rp2256
ag607
(g336
(S'S3'
p2257
I0
I1
tp2258
Rp2259
(I3
S'|'
p2260
NNNI3
I1
I0
tp2261
bS'P15'
p2262
tp2263
Rp2264
ag607
(g336
(S'S3'
p2265
I0
I1
tp2266
Rp2267
(I3
S'|'
p2268
NNNI3
I1
I0
tp2269
bS'P19'
p2270
tp2271
Rp2272
ag607
(g336
(S'S2'
p2273
I0
I1
tp2274
Rp2275
(I3
S'|'
p2276
NNNI2
I1
I0
tp2277
bS'P8'
p2278
tp2279
Rp2280
ag607
(g336
(S'S3'
p2281
I0
I1
tp2282
Rp2283
(I3
S'|'
p2284
NNNI3
I1
I0
tp2285
bS'P14'
p2286
tp2287
Rp2288
aa(lp2289
g607
(g336
(S'S3'
p2290
I0
I1
tp2291
Rp2292
(I3
S'|'
p2293
NNNI3
I1
I0
tp2294
bS'P20'
p2295
tp2296
Rp2297
ag607
(g336
(S'S2'
p2298
I0
I1
tp2299
Rp2300
(I3
S'|'
p2301
NNNI2
I1
I0
tp2302
bS'P7'
p2303
tp2304
Rp2305
ag607
(g336
(S'S3'
p2306
I0
I1
tp2307
Rp2308
(I3
S'|'
p2309
NNNI3
I1
I0
tp2310
bS'P17'
p2311
tp2312
Rp2313
aa(lp2314
g607
(g336
(S'S3'
p2315
I0
I1
tp2316
Rp2317
(I3
S'|'
p2318
NNNI3
I1
I0
tp2319
bS'P12'
p2320
tp2321
Rp2322
ag607
(g336
(S'S2'
p2323
I0
I1
tp2324
Rp2325
(I3
S'|'
p2326
NNNI2
I1
I0
tp2327
bS'P2'
p2328
tp2329
Rp2330
ag607
(g336
(S'S3'
p2331
I0
I1
tp2332
Rp2333
(I3
S'|'
p2334
NNNI3
I1
I0
tp2335
bS'P25'
p2336
tp2337
Rp2338
ag607
(g336
(S'S2'
p2339
I0
I1
tp2340
Rp2341
(I3
S'|'
p2342
NNNI2
I1
I0
tp2343
bS'P1'
p2344
tp2345
Rp2346
ag607
(g336
(S'S3'
p2347
I0
I1
tp2348
Rp2349
(I3
S'|'
p2350
NNNI3
I1
I0
tp2351
bS'P28'
p2352
tp2353
Rp2354
ag607
(g336
(S'S3'
p2355
I0
I1
tp2356
Rp2357
(I3
S'|'
p2358
NNNI3
I1
I0
tp2359
bS'P22'
p2360
tp2361
Rp2362
ag607
(g336
(S'S3'
p2363
I0
I1
tp2364
Rp2365
(I3
S'|'
p2366
NNNI3
I1
I0
tp2367
bS'P18'
p2368
tp2369
Rp2370
ag607
(g336
(S'S3'
p2371
I0
I1
tp2372
Rp2373
(I3
S'|'
p2374
NNNI3
I1
I0
tp2375
bS'P24'
p2376
tp2377
Rp2378
ag607
(g336
(S'S2'
p2379
I0
I1
tp2380
Rp2381
(I3
S'|'
p2382
NNNI2
I1
I0
tp2383
bS'P5'
p2384
tp2385
Rp2386
ag607
(g336
(S'S3'
p2387
I0
I1
tp2388
Rp2389
(I3
S'|'
p2390
NNNI3
I1
I0
tp2391
bS'P21'
p2392
tp2393
Rp2394
ag607
(g336
(S'S3'
p2395
I0
I1
tp2396
Rp2397
(I3
S'|'
p2398
NNNI3
I1
I0
tp2399
bS'P11'
p2400
tp2401
Rp2402
ag607
(g336
(S'S3'
p2403
I0
I1
tp2404
Rp2405
(I3
S'|'
p2406
NNNI3
I1
I0
tp2407
bS'P23'
p2408
tp2409
Rp2410
ag607
(g336
(S'S3'
p2411
I0
I1
tp2412
Rp2413
(I3
S'|'
p2414
NNNI3
I1
I0
tp2415
bS'P10'
p2416
tp2417
Rp2418
ag607
(g336
(S'S3'
p2419
I0
I1
tp2420
Rp2421
(I3
S'|'
p2422
NNNI3
I1
I0
tp2423
bS'P13'
p2424
tp2425
Rp2426
ag607
(g336
(S'S3'
p2427
I0
I1
tp2428
Rp2429
(I3
S'|'
p2430
NNNI3
I1
I0
tp2431
bS'P15'
p2432
tp2433
Rp2434
ag607
(g336
(S'S2'
p2435
I0
I1
tp2436
Rp2437
(I3
S'|'
p2438
NNNI2
I1
I0
tp2439
bS'P8'
p2440
tp2441
Rp2442
ag607
(g336
(S'S2'
p2443
I0
I1
tp2444
Rp2445
(I3
S'|'
p2446
NNNI2
I1
I0
tp2447
bS'P3'
p2448
tp2449
Rp2450
ag607
(g336
(S'S2'
p2451
I0
I1
tp2452
Rp2453
(I3
S'|'
p2454
NNNI2
I1
I0
tp2455
bS'P4'
p2456
tp2457
Rp2458
ag607
(g336
(S'S3'
p2459
I0
I1
tp2460
Rp2461
(I3
S'|'
p2462
NNNI3
I1
I0
tp2463
bS'P14'
p2464
tp2465
Rp2466
ag607
(g336
(S'S3'
p2467
I0
I1
tp2468
Rp2469
(I3
S'|'
p2470
NNNI3
I1
I0
tp2471
bS'P20'
p2472
tp2473
Rp2474
ag607
(g336
(S'S3'
p2475
I0
I1
tp2476
Rp2477
(I3
S'|'
p2478
NNNI3
I1
I0
tp2479
bS'P29'
p2480
tp2481
Rp2482
ag607
(g336
(S'S3'
p2483
I0
I1
tp2484
Rp2485
(I3
S'|'
p2486
NNNI3
I1
I0
tp2487
bS'P19'
p2488
tp2489
Rp2490
ag607
(g336
(S'S2'
p2491
I0
I1
tp2492
Rp2493
(I3
S'|'
p2494
NNNI2
I1
I0
tp2495
bS'P6'
p2496
tp2497
Rp2498
ag607
(g336
(S'S2'
p2499
I0
I1
tp2500
Rp2501
(I3
S'|'
p2502
NNNI2
I1
I0
tp2503
bS'P7'
p2504
tp2505
Rp2506
ag607
(g336
(S'S2'
p2507
I0
I1
tp2508
Rp2509
(I3
S'|'
p2510
NNNI2
I1
I0
tp2511
bS'P9'
p2512
tp2513
Rp2514
ag607
(g336
(S'S3'
p2515
I0
I1
tp2516
Rp2517
(I3
S'|'
p2518
NNNI3
I1
I0
tp2519
bS'P27'
p2520
tp2521
Rp2522
aa(lp2523
g607
(g336
(S'S3'
p2524
I0
I1
tp2525
Rp2526
(I3
S'|'
p2527
NNNI3
I1
I0
tp2528
bS'P30'
p2529
tp2530
Rp2531
ag607
(g336
(S'S2'
p2532
I0
I1
tp2533
Rp2534
(I3
S'|'
p2535
NNNI2
I1
I0
tp2536
bS'P1'
p2537
tp2538
Rp2539
ag607
(g336
(S'S3'
p2540
I0
I1
tp2541
Rp2542
(I3
S'|'
p2543
NNNI3
I1
I0
tp2544
bS'P12'
p2545
tp2546
Rp2547
ag607
(g336
(S'S2'
p2548
I0
I1
tp2549
Rp2550
(I3
S'|'
p2551
NNNI2
I1
I0
tp2552
bS'P6'
p2553
tp2554
Rp2555
ag607
(g336
(S'S2'
p2556
I0
I1
tp2557
Rp2558
(I3
S'|'
p2559
NNNI2
I1
I0
tp2560
bS'P9'
p2561
tp2562
Rp2563
ag607
(g336
(S'S3'
p2564
I0
I1
tp2565
Rp2566
(I3
S'|'
p2567
NNNI3
I1
I0
tp2568
bS'P16'
p2569
tp2570
Rp2571
ag607
(g336
(S'S3'
p2572
I0
I1
tp2573
Rp2574
(I3
S'|'
p2575
NNNI3
I1
I0
tp2576
bS'P17'
p2577
tp2578
Rp2579
ag607
(g336
(S'S3'
p2580
I0
I1
tp2581
Rp2582
(I3
S'|'
p2583
NNNI3
I1
I0
tp2584
bS'P24'
p2585
tp2586
Rp2587
ag607
(g336
(S'S2'
p2588
I0
I1
tp2589
Rp2590
(I3
S'|'
p2591
NNNI2
I1
I0
tp2592
bS'P3'
p2593
tp2594
Rp2595
ag607
(g336
(S'S3'
p2596
I0
I1
tp2597
Rp2598
(I3
S'|'
p2599
NNNI3
I1
I0
tp2600
bS'P10'
p2601
tp2602
Rp2603
ag607
(g336
(S'S2'
p2604
I0
I1
tp2605
Rp2606
(I3
S'|'
p2607
NNNI2
I1
I0
tp2608
bS'P7'
p2609
tp2610
Rp2611
ag607
(g336
(S'S2'
p2612
I0
I1
tp2613
Rp2614
(I3
S'|'
p2615
NNNI2
I1
I0
tp2616
bS'P2'
p2617
tp2618
Rp2619
ag607
(g336
(S'S3'
p2620
I0
I1
tp2621
Rp2622
(I3
S'|'
p2623
NNNI3
I1
I0
tp2624
bS'P29'
p2625
tp2626
Rp2627
ag607
(g336
(S'S3'
p2628
I0
I1
tp2629
Rp2630
(I3
S'|'
p2631
NNNI3
I1
I0
tp2632
bS'P19'
p2633
tp2634
Rp2635
ag607
(g336
(S'S3'
p2636
I0
I1
tp2637
Rp2638
(I3
S'|'
p2639
NNNI3
I1
I0
tp2640
bS'P23'
p2641
tp2642
Rp2643
ag607
(g336
(S'S3'
p2644
I0
I1
tp2645
Rp2646
(I3
S'|'
p2647
NNNI3
I1
I0
tp2648
bS'P26'
p2649
tp2650
Rp2651
ag607
(g336
(S'S3'
p2652
I0
I1
tp2653
Rp2654
(I3
S'|'
p2655
NNNI3
I1
I0
tp2656
bS'P27'
p2657
tp2658
Rp2659
ag607
(g336
(S'S3'
p2660
I0
I1
tp2661
Rp2662
(I3
S'|'
p2663
NNNI3
I1
I0
tp2664
bS'P28'
p2665
tp2666
Rp2667
ag607
(g336
(S'S3'
p2668
I0
I1
tp2669
Rp2670
(I3
S'|'
p2671
NNNI3
I1
I0
tp2672
bS'P15'
p2673
tp2674
Rp2675
aa(lp2676
g607
(g336
(S'S3'
p2677
I0
I1
tp2678
Rp2679
(I3
S'|'
p2680
NNNI3
I1
I0
tp2681
bS'P13'
p2682
tp2683
Rp2684
ag607
(g336
(S'S3'
p2685
I0
I1
tp2686
Rp2687
(I3
S'|'
p2688
NNNI3
I1
I0
tp2689
bS'P30'
p2690
tp2691
Rp2692
ag607
(g336
(S'S3'
p2693
I0
I1
tp2694
Rp2695
(I3
S'|'
p2696
NNNI3
I1
I0
tp2697
bS'P21'
p2698
tp2699
Rp2700
ag607
(g336
(S'S3'
p2701
I0
I1
tp2702
Rp2703
(I3
S'|'
p2704
NNNI3
I1
I0
tp2705
bS'P20'
p2706
tp2707
Rp2708
ag607
(g336
(S'S2'
p2709
I0
I1
tp2710
Rp2711
(I3
S'|'
p2712
NNNI2
I1
I0
tp2713
bS'P2'
p2714
tp2715
Rp2716
ag607
(g336
(S'S2'
p2717
I0
I1
tp2718
Rp2719
(I3
S'|'
p2720
NNNI2
I1
I0
tp2721
bS'P1'
p2722
tp2723
Rp2724
ag607
(g336
(S'S3'
p2725
I0
I1
tp2726
Rp2727
(I3
S'|'
p2728
NNNI3
I1
I0
tp2729
bS'P26'
p2730
tp2731
Rp2732
ag607
(g336
(S'S3'
p2733
I0
I1
tp2734
Rp2735
(I3
S'|'
p2736
NNNI3
I1
I0
tp2737
bS'P29'
p2738
tp2739
Rp2740
ag607
(g336
(S'S3'
p2741
I0
I1
tp2742
Rp2743
(I3
S'|'
p2744
NNNI3
I1
I0
tp2745
bS'P15'
p2746
tp2747
Rp2748
ag607
(g336
(S'S2'
p2749
I0
I1
tp2750
Rp2751
(I3
S'|'
p2752
NNNI2
I1
I0
tp2753
bS'P9'
p2754
tp2755
Rp2756
ag607
(g336
(S'S2'
p2757
I0
I1
tp2758
Rp2759
(I3
S'|'
p2760
NNNI2
I1
I0
tp2761
bS'P6'
p2762
tp2763
Rp2764
ag607
(g336
(S'S3'
p2765
I0
I1
tp2766
Rp2767
(I3
S'|'
p2768
NNNI3
I1
I0
tp2769
bS'P24'
p2770
tp2771
Rp2772
ag607
(g336
(S'S3'
p2773
I0
I1
tp2774
Rp2775
(I3
S'|'
p2776
NNNI3
I1
I0
tp2777
bS'P16'
p2778
tp2779
Rp2780
ag607
(g336
(S'S3'
p2781
I0
I1
tp2782
Rp2783
(I3
S'|'
p2784
NNNI3
I1
I0
tp2785
bS'P23'
p2786
tp2787
Rp2788
ag607
(g336
(S'S3'
p2789
I0
I1
tp2790
Rp2791
(I3
S'|'
p2792
NNNI3
I1
I0
tp2793
bS'P11'
p2794
tp2795
Rp2796
ag607
(g336
(S'S3'
p2797
I0
I1
tp2798
Rp2799
(I3
S'|'
p2800
NNNI3
I1
I0
tp2801
bS'P12'
p2802
tp2803
Rp2804
aa(lp2805
g607
(g336
(S'S3'
p2806
I0
I1
tp2807
Rp2808
(I3
S'|'
p2809
NNNI3
I1
I0
tp2810
bS'P10'
p2811
tp2812
Rp2813
ag607
(g336
(S'S2'
p2814
I0
I1
tp2815
Rp2816
(I3
S'|'
p2817
NNNI2
I1
I0
tp2818
bS'P1'
p2819
tp2820
Rp2821
ag607
(g336
(S'S3'
p2822
I0
I1
tp2823
Rp2824
(I3
S'|'
p2825
NNNI3
I1
I0
tp2826
bS'P16'
p2827
tp2828
Rp2829
ag607
(g336
(S'S3'
p2830
I0
I1
tp2831
Rp2832
(I3
S'|'
p2833
NNNI3
I1
I0
tp2834
bS'P26'
p2835
tp2836
Rp2837
ag607
(g336
(S'S2'
p2838
I0
I1
tp2839
Rp2840
(I3
S'|'
p2841
NNNI2
I1
I0
tp2842
bS'P2'
p2843
tp2844
Rp2845
ag607
(g336
(S'S3'
p2846
I0
I1
tp2847
Rp2848
(I3
S'|'
p2849
NNNI3
I1
I0
tp2850
bS'P22'
p2851
tp2852
Rp2853
ag607
(g336
(S'S3'
p2854
I0
I1
tp2855
Rp2856
(I3
S'|'
p2857
NNNI3
I1
I0
tp2858
bS'P24'
p2859
tp2860
Rp2861
ag607
(g336
(S'S2'
p2862
I0
I1
tp2863
Rp2864
(I3
S'|'
p2865
NNNI2
I1
I0
tp2866
bS'P9'
p2867
tp2868
Rp2869
ag607
(g336
(S'S2'
p2870
I0
I1
tp2871
Rp2872
(I3
S'|'
p2873
NNNI2
I1
I0
tp2874
bS'P5'
p2875
tp2876
Rp2877
ag607
(g336
(S'S2'
p2878
I0
I1
tp2879
Rp2880
(I3
S'|'
p2881
NNNI2
I1
I0
tp2882
bS'P6'
p2883
tp2884
Rp2885
ag607
(g336
(S'S2'
p2886
I0
I1
tp2887
Rp2888
(I3
S'|'
p2889
NNNI2
I1
I0
tp2890
bS'P4'
p2891
tp2892
Rp2893
ag607
(g336
(S'S3'
p2894
I0
I1
tp2895
Rp2896
(I3
S'|'
p2897
NNNI3
I1
I0
tp2898
bS'P28'
p2899
tp2900
Rp2901
ag607
(g336
(S'S2'
p2902
I0
I1
tp2903
Rp2904
(I3
S'|'
p2905
NNNI2
I1
I0
tp2906
bS'P7'
p2907
tp2908
Rp2909
ag607
(g336
(S'S3'
p2910
I0
I1
tp2911
Rp2912
(I3
S'|'
p2913
NNNI3
I1
I0
tp2914
bS'P13'
p2915
tp2916
Rp2917
ag607
(g336
(S'S3'
p2918
I0
I1
tp2919
Rp2920
(I3
S'|'
p2921
NNNI3
I1
I0
tp2922
bS'P29'
p2923
tp2924
Rp2925
ag607
(g336
(S'S3'
p2926
I0
I1
tp2927
Rp2928
(I3
S'|'
p2929
NNNI3
I1
I0
tp2930
bS'P30'
p2931
tp2932
Rp2933
ag607
(g336
(S'S3'
p2934
I0
I1
tp2935
Rp2936
(I3
S'|'
p2937
NNNI3
I1
I0
tp2938
bS'P12'
p2939
tp2940
Rp2941
ag607
(g336
(S'S2'
p2942
I0
I1
tp2943
Rp2944
(I3
S'|'
p2945
NNNI2
I1
I0
tp2946
bS'P3'
p2947
tp2948
Rp2949
ag607
(g336
(S'S3'
p2950
I0
I1
tp2951
Rp2952
(I3
S'|'
p2953
NNNI3
I1
I0
tp2954
bS'P25'
p2955
tp2956
Rp2957
ag607
(g336
(S'S3'
p2958
I0
I1
tp2959
Rp2960
(I3
S'|'
p2961
NNNI3
I1
I0
tp2962
bS'P23'
p2963
tp2964
Rp2965
ag607
(g336
(S'S3'
p2966
I0
I1
tp2967
Rp2968
(I3
S'|'
p2969
NNNI3
I1
I0
tp2970
bS'P27'
p2971
tp2972
Rp2973
ag607
(g336
(S'S3'
p2974
I0
I1
tp2975
Rp2976
(I3
S'|'
p2977
NNNI3
I1
I0
tp2978
bS'P19'
p2979
tp2980
Rp2981
ag607
(g336
(S'S3'
p2982
I0
I1
tp2983
Rp2984
(I3
S'|'
p2985
NNNI3
I1
I0
tp2986
bS'P18'
p2987
tp2988
Rp2989
ag607
(g336
(S'S3'
p2990
I0
I1
tp2991
Rp2992
(I3
S'|'
p2993
NNNI3
I1
I0
tp2994
bS'P14'
p2995
tp2996
Rp2997
ag607
(g336
(S'S3'
p2998
I0
I1
tp2999
Rp3000
(I3
S'|'
p3001
NNNI3
I1
I0
tp3002
bS'P17'
p3003
tp3004
Rp3005
aa(lp3006
g607
(g336
(S'S2'
p3007
I0
I1
tp3008
Rp3009
(I3
S'|'
p3010
NNNI2
I1
I0
tp3011
bS'P6'
p3012
tp3013
Rp3014
ag607
(g336
(S'S2'
p3015
I0
I1
tp3016
Rp3017
(I3
S'|'
p3018
NNNI2
I1
I0
tp3019
bS'P8'
p3020
tp3021
Rp3022
ag607
(g336
(S'S3'
p3023
I0
I1
tp3024
Rp3025
(I3
S'|'
p3026
NNNI3
I1
I0
tp3027
bS'P23'
p3028
tp3029
Rp3030
ag607
(g336
(S'S2'
p3031
I0
I1
tp3032
Rp3033
(I3
S'|'
p3034
NNNI2
I1
I0
tp3035
bS'P2'
p3036
tp3037
Rp3038
ag607
(g336
(S'S3'
p3039
I0
I1
tp3040
Rp3041
(I3
S'|'
p3042
NNNI3
I1
I0
tp3043
bS'P22'
p3044
tp3045
Rp3046
ag607
(g336
(S'S3'
p3047
I0
I1
tp3048
Rp3049
(I3
S'|'
p3050
NNNI3
I1
I0
tp3051
bS'P28'
p3052
tp3053
Rp3054
ag607
(g336
(S'S3'
p3055
I0
I1
tp3056
Rp3057
(I3
S'|'
p3058
NNNI3
I1
I0
tp3059
bS'P16'
p3060
tp3061
Rp3062
ag607
(g336
(S'S3'
p3063
I0
I1
tp3064
Rp3065
(I3
S'|'
p3066
NNNI3
I1
I0
tp3067
bS'P17'
p3068
tp3069
Rp3070
ag607
(g336
(S'S2'
p3071
I0
I1
tp3072
Rp3073
(I3
S'|'
p3074
NNNI2
I1
I0
tp3075
bS'P3'
p3076
tp3077
Rp3078
ag607
(g336
(S'S3'
p3079
I0
I1
tp3080
Rp3081
(I3
S'|'
p3082
NNNI3
I1
I0
tp3083
bS'P20'
p3084
tp3085
Rp3086
ag607
(g336
(S'S2'
p3087
I0
I1
tp3088
Rp3089
(I3
S'|'
p3090
NNNI2
I1
I0
tp3091
bS'P4'
p3092
tp3093
Rp3094
ag607
(g336
(S'S3'
p3095
I0
I1
tp3096
Rp3097
(I3
S'|'
p3098
NNNI3
I1
I0
tp3099
bS'P25'
p3100
tp3101
Rp3102
ag607
(g336
(S'S2'
p3103
I0
I1
tp3104
Rp3105
(I3
S'|'
p3106
NNNI2
I1
I0
tp3107
bS'P1'
p3108
tp3109
Rp3110
ag607
(g336
(S'S3'
p3111
I0
I1
tp3112
Rp3113
(I3
S'|'
p3114
NNNI3
I1
I0
tp3115
bS'P29'
p3116
tp3117
Rp3118
ag607
(g336
(S'S3'
p3119
I0
I1
tp3120
Rp3121
(I3
S'|'
p3122
NNNI3
I1
I0
tp3123
bS'P14'
p3124
tp3125
Rp3126
ag607
(g336
(S'S3'
p3127
I0
I1
tp3128
Rp3129
(I3
S'|'
p3130
NNNI3
I1
I0
tp3131
bS'P13'
p3132
tp3133
Rp3134
ag607
(g336
(S'S3'
p3135
I0
I1
tp3136
Rp3137
(I3
S'|'
p3138
NNNI3
I1
I0
tp3139
bS'P26'
p3140
tp3141
Rp3142
ag607
(g336
(S'S3'
p3143
I0
I1
tp3144
Rp3145
(I3
S'|'
p3146
NNNI3
I1
I0
tp3147
bS'P30'
p3148
tp3149
Rp3150
ag607
(g336
(S'S3'
p3151
I0
I1
tp3152
Rp3153
(I3
S'|'
p3154
NNNI3
I1
I0
tp3155
bS'P15'
p3156
tp3157
Rp3158
ag607
(g336
(S'S2'
p3159
I0
I1
tp3160
Rp3161
(I3
S'|'
p3162
NNNI2
I1
I0
tp3163
bS'P7'
p3164
tp3165
Rp3166
ag607
(g336
(S'S3'
p3167
I0
I1
tp3168
Rp3169
(I3
S'|'
p3170
NNNI3
I1
I0
tp3171
bS'P11'
p3172
tp3173
Rp3174
ag607
(g336
(S'S3'
p3175
I0
I1
tp3176
Rp3177
(I3
S'|'
p3178
NNNI3
I1
I0
tp3179
bS'P10'
p3180
tp3181
Rp3182
ag607
(g336
(S'S2'
p3183
I0
I1
tp3184
Rp3185
(I3
S'|'
p3186
NNNI2
I1
I0
tp3187
bS'P5'
p3188
tp3189
Rp3190
aa(lp3191
g607
(g336
(S'S2'
p3192
I0
I1
tp3193
Rp3194
(I3
S'|'
p3195
NNNI2
I1
I0
tp3196
bS'P3'
p3197
tp3198
Rp3199
aa(lp3200
g607
(g336
(S'S2'
p3201
I0
I1
tp3202
Rp3203
(I3
S'|'
p3204
NNNI2
I1
I0
tp3205
bS'P6'
p3206
tp3207
Rp3208
ag607
(g336
(S'S3'
p3209
I0
I1
tp3210
Rp3211
(I3
S'|'
p3212
NNNI3
I1
I0
tp3213
bS'P23'
p3214
tp3215
Rp3216
ag607
(g336
(S'S2'
p3217
I0
I1
tp3218
Rp3219
(I3
S'|'
p3220
NNNI2
I1
I0
tp3221
bS'P8'
p3222
tp3223
Rp3224
ag607
(g336
(S'S3'
p3225
I0
I1
tp3226
Rp3227
(I3
S'|'
p3228
NNNI3
I1
I0
tp3229
bS'P12'
p3230
tp3231
Rp3232
ag607
(g336
(S'S2'
p3233
I0
I1
tp3234
Rp3235
(I3
S'|'
p3236
NNNI2
I1
I0
tp3237
bS'P5'
p3238
tp3239
Rp3240
ag607
(g336
(S'S2'
p3241
I0
I1
tp3242
Rp3243
(I3
S'|'
p3244
NNNI2
I1
I0
tp3245
bS'P7'
p3246
tp3247
Rp3248
ag607
(g336
(S'S2'
p3249
I0
I1
tp3250
Rp3251
(I3
S'|'
p3252
NNNI2
I1
I0
tp3253
bS'P2'
p3254
tp3255
Rp3256
ag607
(g336
(S'S3'
p3257
I0
I1
tp3258
Rp3259
(I3
S'|'
p3260
NNNI3
I1
I0
tp3261
bS'P25'
p3262
tp3263
Rp3264
ag607
(g336
(S'S3'
p3265
I0
I1
tp3266
Rp3267
(I3
S'|'
p3268
NNNI3
I1
I0
tp3269
bS'P21'
p3270
tp3271
Rp3272
ag607
(g336
(S'S2'
p3273
I0
I1
tp3274
Rp3275
(I3
S'|'
p3276
NNNI2
I1
I0
tp3277
bS'P1'
p3278
tp3279
Rp3280
ag607
(g336
(S'S3'
p3281
I0
I1
tp3282
Rp3283
(I3
S'|'
p3284
NNNI3
I1
I0
tp3285
bS'P26'
p3286
tp3287
Rp3288
ag607
(g336
(S'S3'
p3289
I0
I1
tp3290
Rp3291
(I3
S'|'
p3292
NNNI3
I1
I0
tp3293
bS'P18'
p3294
tp3295
Rp3296
ag607
(g336
(S'S3'
p3297
I0
I1
tp3298
Rp3299
(I3
S'|'
p3300
NNNI3
I1
I0
tp3301
bS'P22'
p3302
tp3303
Rp3304
ag607
(g336
(S'S3'
p3305
I0
I1
tp3306
Rp3307
(I3
S'|'
p3308
NNNI3
I1
I0
tp3309
bS'P29'
p3310
tp3311
Rp3312
ag607
(g336
(S'S3'
p3313
I0
I1
tp3314
Rp3315
(I3
S'|'
p3316
NNNI3
I1
I0
tp3317
bS'P20'
p3318
tp3319
Rp3320
ag607
(g336
(S'S3'
p3321
I0
I1
tp3322
Rp3323
(I3
S'|'
p3324
NNNI3
I1
I0
tp3325
bS'P10'
p3326
tp3327
Rp3328
ag607
(g336
(S'S3'
p3329
I0
I1
tp3330
Rp3331
(I3
S'|'
p3332
NNNI3
I1
I0
tp3333
bS'P11'
p3334
tp3335
Rp3336
ag607
(g336
(S'S3'
p3337
I0
I1
tp3338
Rp3339
(I3
S'|'
p3340
NNNI3
I1
I0
tp3341
bS'P28'
p3342
tp3343
Rp3344
ag607
(g336
(S'S2'
p3345
I0
I1
tp3346
Rp3347
(I3
S'|'
p3348
NNNI2
I1
I0
tp3349
bS'P3'
p3350
tp3351
Rp3352
ag607
(g336
(S'S3'
p3353
I0
I1
tp3354
Rp3355
(I3
S'|'
p3356
NNNI3
I1
I0
tp3357
bS'P16'
p3358
tp3359
Rp3360
ag607
(g336
(S'S3'
p3361
I0
I1
tp3362
Rp3363
(I3
S'|'
p3364
NNNI3
I1
I0
tp3365
bS'P17'
p3366
tp3367
Rp3368
ag607
(g336
(S'S3'
p3369
I0
I1
tp3370
Rp3371
(I3
S'|'
p3372
NNNI3
I1
I0
tp3373
bS'P15'
p3374
tp3375
Rp3376
ag607
(g336
(S'S3'
p3377
I0
I1
tp3378
Rp3379
(I3
S'|'
p3380
NNNI3
I1
I0
tp3381
bS'P24'
p3382
tp3383
Rp3384
ag607
(g336
(S'S3'
p3385
I0
I1
tp3386
Rp3387
(I3
S'|'
p3388
NNNI3
I1
I0
tp3389
bS'P13'
p3390
tp3391
Rp3392
ag607
(g336
(S'S3'
p3393
I0
I1
tp3394
Rp3395
(I3
S'|'
p3396
NNNI3
I1
I0
tp3397
bS'P14'
p3398
tp3399
Rp3400
ag607
(g336
(S'S3'
p3401
I0
I1
tp3402
Rp3403
(I3
S'|'
p3404
NNNI3
I1
I0
tp3405
bS'P30'
p3406
tp3407
Rp3408
ag607
(g336
(S'S3'
p3409
I0
I1
tp3410
Rp3411
(I3
S'|'
p3412
NNNI3
I1
I0
tp3413
bS'P19'
p3414
tp3415
Rp3416
ag607
(g336
(S'S2'
p3417
I0
I1
tp3418
Rp3419
(I3
S'|'
p3420
NNNI2
I1
I0
tp3421
bS'P4'
p3422
tp3423
Rp3424
ag607
(g336
(S'S2'
p3425
I0
I1
tp3426
Rp3427
(I3
S'|'
p3428
NNNI2
I1
I0
tp3429
bS'P9'
p3430
tp3431
Rp3432
aa(lp3433
g607
(g336
(S'S3'
p3434
I0
I1
tp3435
Rp3436
(I3
S'|'
p3437
NNNI3
I1
I0
tp3438
bS'P27'
p3439
tp3440
Rp3441
ag607
(g336
(S'S3'
p3442
I0
I1
tp3443
Rp3444
(I3
S'|'
p3445
NNNI3
I1
I0
tp3446
bS'P18'
p3447
tp3448
Rp3449
ag607
(g336
(S'S2'
p3450
I0
I1
tp3451
Rp3452
(I3
S'|'
p3453
NNNI2
I1
I0
tp3454
bS'P6'
p3455
tp3456
Rp3457
ag607
(g336
(S'S3'
p3458
I0
I1
tp3459
Rp3460
(I3
S'|'
p3461
NNNI3
I1
I0
tp3462
bS'P15'
p3463
tp3464
Rp3465
ag607
(g336
(S'S3'
p3466
I0
I1
tp3467
Rp3468
(I3
S'|'
p3469
NNNI3
I1
I0
tp3470
bS'P24'
p3471
tp3472
Rp3473
ag607
(g336
(S'S2'
p3474
I0
I1
tp3475
Rp3476
(I3
S'|'
p3477
NNNI2
I1
I0
tp3478
bS'P4'
p3479
tp3480
Rp3481
ag607
(g336
(S'S3'
p3482
I0
I1
tp3483
Rp3484
(I3
S'|'
p3485
NNNI3
I1
I0
tp3486
bS'P16'
p3487
tp3488
Rp3489
ag607
(g336
(S'S3'
p3490
I0
I1
tp3491
Rp3492
(I3
S'|'
p3493
NNNI3
I1
I0
tp3494
bS'P26'
p3495
tp3496
Rp3497
ag607
(g336
(S'S3'
p3498
I0
I1
tp3499
Rp3500
(I3
S'|'
p3501
NNNI3
I1
I0
tp3502
bS'P22'
p3503
tp3504
Rp3505
ag607
(g336
(S'S2'
p3506
I0
I1
tp3507
Rp3508
(I3
S'|'
p3509
NNNI2
I1
I0
tp3510
bS'P7'
p3511
tp3512
Rp3513
aasS'delta_fix'
p3514
(lp3515
g607
(g336
(S'f8'
p3516
I0
I1
tp3517
Rp3518
(I3
S'<'
p3519
NNNI-1
I-1
I0
tp3520
bS'\xd0?]\xc1m\x8df@'
p3521
tp3522
Rp3523
ag607
(g3518
S's\x99J4\xbe\nb@'
p3524
tp3525
Rp3526
ag607
(g3518
S'\xd0?]\xc1m\x8df@'
p3527
tp3528
Rp3529
ag607
(g3518
S',\xe6oN\x1d\x10k@'
p3530
tp3531
Rp3532
ag607
(g3518
S',\xe6oN\x1d\x10k@'
p3533
tp3534
Rp3535
ag607
(g3518
S'\xa1\xec\xd3\xfa\x15Ld@'
p3536
tp3537
Rp3538
ag607
(g3518
S'\xfe\x92\xe6\x87\xc5\xceh@'
p3539
tp3540
Rp3541
ag607
(g3518
S'\xd0?]\xc1m\x8df@'
p3542
tp3543
Rp3544
ag607
(g3518
S'\xfe\x92\xe6\x87\xc5\xceh@'
p3545
tp3546
Rp3547
ag607
(g3518
S'\xa1\xec\xd3\xfa\x15Ld@'
p3548
tp3549
Rp3550
ag607
(g3518
S'\xa1\xec\xd3\xfa\x15Ld@'
p3551
tp3552
Rp3553
ag607
(g3518
S'\xfe\x92\xe6\x87\xc5\xceh@'
p3554
tp3555
Rp3556
ag607
(g3518
S'\xd0?]\xc1m\x8df@'
p3557
tp3558
Rp3559
ag607
(g3518
S'\xa1\xec\xd3\xfa\x15Ld@'
p3560
tp3561
Rp3562
ag607
(g3518
S'\xa1\xec\xd3\xfa\x15Ld@'
p3563
tp3564
Rp3565
asS'delta'
p3566
(lp3567
F0.015221264357872931
aF0.005563980030458084
aF0.0007133440670412327
aF0.010054903026559769
aF0.0102594537865568
aF0.009622131209451337
aF0.017015229175274614
aF0.00695186388781684
aF0.006223328263862614
aF0.01666318469788726
aF0.007885821658095302
aF0.005281257950921475
aF0.004293814752412834
aF0.015708403607382806
aF0.007374700695482653
asS'alpha'
p3568
(lp3569
(lp3570
S'18.07'
p3571
ag297
aS'22.55'
p3572
ag297
aS'5.63'
p3573
aS'13.13'
p3574
ag297
aS'1.01'
p3575
aS'10.61'
p3576
aS'4.69'
p3577
aS'8.51'
p3578
aS'5.11'
p3579
ag297
aS'11.84'
p3580
ag297
aa(lp3581
S'13.04'
p3582
ag297
aS'29.82'
p3583
ag297
aS'2.34'
p3584
ag297
ag297
aS'2.08'
p3585
aS'4.43'
p3586
aS'6.41'
p3587
aS'4.83'
p3588
aS'10.18'
p3589
ag297
aS'2.69'
p3590
ag297
aa(lp3591
S'3.03'
p3592
ag297
aS'24.55'
p3593
aS'3.64'
p3594
aS'4.35'
p3595
ag297
ag297
aS'24.00'
p3596
aS'21.42'
p3597
ag297
aS'5.82'
p3598
aS'2.36'
p3599
aS'10.16'
p3600
aS'19.12'
p3601
ag297
aa(lp3602
S'6.44'
p3603
ag297
aS'17.92'
p3604
aS'1.52'
p3605
aS'6.09'
p3606
aS'19.24'
p3607
ag297
aS'20.14'
p3608
ag297
ag297
aS'16.07'
p3609
aS'9.99'
p3610
ag297
aS'0.86'
p3611
aS'8.17'
p3612
aa(lp3613
S'5.23'
p3614
ag297
aS'9.75'
p3615
aS'3.65'
p3616
aS'10.50'
p3617
aS'4.74'
p3618
ag297
aS'19.55'
p3619
ag297
ag297
aS'17.70'
p3620
aS'6.23'
p3621
ag297
aS'6.37'
p3622
ag297
aa(lp3623
g297
ag297
aS'15.50'
p3624
ag297
aS'42.34'
p3625
ag297
ag297
aS'7.96'
p3626
aS'4.90'
p3627
aS'11.68'
p3628
aS'10.30'
p3629
aS'6.34'
p3630
ag297
aS'19.98'
p3631
aS'10.80'
p3632
aa(lp3633
g297
ag297
aS'11.54'
p3634
aS'3.97'
p3635
ag297
ag297
aS'29.13'
p3636
aS'1.29'
p3637
aS'3.79'
p3638
ag297
aS'13.99'
p3639
aS'9.38'
p3640
ag297
aS'11.59'
p3641
aS'6.55'
p3642
aa(lp3643
S'5.07'
p3644
ag297
aS'10.31'
p3645
ag297
aS'7.80'
p3646
aS'6.71'
p3647
ag297
aS'7.08'
p3648
ag297
ag297
ag297
aS'10.40'
p3649
ag297
aS'10.99'
p3650
ag297
aa(lp3651
g297
aS'18.99'
p3652
aS'7.02'
p3653
aS'4.54'
p3654
aS'11.05'
p3655
ag297
ag297
aS'6.61'
p3656
aS'4.13'
p3657
aS'21.45'
p3658
aS'2.87'
p3659
ag297
ag297
aS'2.89'
p3660
ag297
aa(lp3661
S'7.42'
p3662
ag297
aS'3.80'
p3663
ag297
aS'8.17'
p3664
ag297
ag297
aS'17.69'
p3665
aS'4.13'
p3666
ag297
aS'2.45'
p3667
aS'0.75'
p3668
ag297
aS'13.16'
p3669
ag297
aa(lp3670
S'25.00'
p3671
aS'20.49'
p3672
aS'6.17'
p3673
aS'8.67'
p3674
aS'22.24'
p3675
aS'9.31'
p3676
ag297
aS'7.27'
p3677
ag297
aS'6.63'
p3678
ag297
aS'1.93'
p3679
ag297
aS'5.97'
p3680
ag297
aa(lp3681
g297
ag297
aS'0.84'
p3682
aS'16.81'
p3683
aS'2.54'
p3684
ag297
ag297
aS'7.32'
p3685
aS'3.13'
p3686
aS'6.80'
p3687
aS'3.52'
p3688
ag297
ag297
aS'0.52'
p3689
ag297
aa(lp3690
S'6.97'
p3691
ag297
aS'18.29'
p3692
ag297
ag297
aS'2.02'
p3693
ag297
aS'1.53'
p3694
ag297
aS'5.39'
p3695
aS'19.75'
p3696
aS'7.78'
p3697
ag297
aS'9.35'
p3698
ag297
aa(lp3699
S'2.20'
p3700
ag297
aS'1.22'
p3701
ag297
aS'4.97'
p3702
aS'7.90'
p3703
ag297
aS'12.89'
p3704
ag297
ag297
aS'14.51'
p3705
aS'1.91'
p3706
ag297
aS'1.57'
p3707
ag297
aa(lp3708
S'3.70'
p3709
ag297
aS'12.07'
p3710
ag297
ag297
aS'9.12'
p3711
ag297
aS'13.75'
p3712
aS'10.39'
p3713
aS'11.82'
p3714
ag297
aS'3.81'
p3715
ag297
aS'4.54'
p3716
aS'1.85'
p3717
aa(lp3718
g297
aS'1.63'
p3719
aS'10.20'
p3720
ag297
aS'6.20'
p3721
ag297
ag297
ag297
aS'3.74'
p3722
aS'3.80'
p3723
aS'9.75'
p3724
aS'8.78'
p3725
ag297
aS'1.42'
p3726
aS'19.21'
p3727
aa(lp3728
g297
ag297
aS'1.63'
p3729
ag297
aS'6.71'
p3730
ag297
aS'30.21'
p3731
ag297
aS'1.71'
p3732
ag297
aS'7.25'
p3733
aS'7.52'
p3734
ag297
aS'20.85'
p3735
ag297
aa(lp3736
g297
aS'36.24'
p3737
aS'23.14'
p3738
aS'4.52'
p3739
aS'20.05'
p3740
aS'2.06'
p3741
ag297
aS'4.85'
p3742
ag297
ag297
aS'29.13'
p3743
ag297
ag297
aS'3.98'
p3744
aS'22.29'
p3745
aa(lp3746
S'10.51'
p3747
ag297
aS'11.90'
p3748
aS'9.60'
p3749
ag297
aS'35.17'
p3750
ag297
aS'22.85'
p3751
aS'24.06'
p3752
ag297
aS'1.69'
p3753
ag297
ag297
aS'8.14'
p3754
ag297
aa(lp3755
S'14.37'
p3756
ag297
aS'19.58'
p3757
ag297
aS'5.80'
p3758
ag297
aS'5.71'
p3759
aS'7.70'
p3760
ag297
aS'29.10'
p3761
ag297
aS'16.79'
p3762
ag297
aS'3.76'
p3763
ag297
aa(lp3764
g297
aS'2.59'
p3765
aS'6.87'
p3766
ag297
aS'7.13'
p3767
ag297
ag297
aS'4.14'
p3768
ag297
aS'17.99'
p3769
ag297
ag297
ag297
aS'18.20'
p3770
ag297
aa(lp3771
g297
ag297
aS'7.98'
p3772
ag297
aS'23.76'
p3773
ag297
ag297
aS'9.45'
p3774
ag297
ag297
aS'3.14'
p3775
aS'4.30'
p3776
ag297
aS'2.94'
p3777
aS'18.62'
p3778
aa(lp3779
S'28.11'
p3780
ag297
aS'8.80'
p3781
ag297
aS'6.65'
p3782
ag297
ag297
aS'0.65'
p3783
aS'17.57'
p3784
aS'25.97'
p3785
aS'8.53'
p3786
aS'1.77'
p3787
ag297
aS'25.85'
p3788
ag297
aa(lp3789
S'10.91'
p3790
ag297
aS'9.10'
p3791
aS'3.11'
p3792
aS'6.76'
p3793
aS'18.19'
p3794
ag297
aS'6.39'
p3795
aS'14.12'
p3796
aS'3.16'
p3797
aS'2.20'
p3798
ag297
ag297
aS'10.40'
p3799
aS'3.43'
p3800
aa(lp3801
S'8.87'
p3802
ag297
aS'8.47'
p3803
ag297
aS'13.17'
p3804
ag297
ag297
aS'2.09'
p3805
ag297
ag297
aS'2.73'
p3806
aS'10.32'
p3807
ag297
aS'10.34'
p3808
ag297
aa(lp3809
g297
aS'2.47'
p3810
aS'4.66'
p3811
ag297
aS'13.75'
p3812
aS'18.86'
p3813
ag297
ag297
aS'17.84'
p3814
aS'6.77'
p3815
aS'4.52'
p3816
aS'6.92'
p3817
ag297
aS'20.16'
p3818
aS'8.36'
p3819
aa(lp3820
S'2.25'
p3821
aS'4.90'
p3822
aS'4.83'
p3823
ag297
aS'4.03'
p3824
ag297
ag297
aS'9.01'
p3825
aS'12.77'
p3826
ag297
aS'1.05'
p3827
ag297
ag297
ag297
aS'7.21'
p3828
aa(lp3829
S'1.44'
p3830
aS'7.39'
p3831
aS'8.37'
p3832
ag297
aS'14.19'
p3833
aS'26.60'
p3834
ag297
aS'26.06'
p3835
aS'5.49'
p3836
ag297
aS'3.25'
p3837
aS'8.27'
p3838
ag297
aS'11.08'
p3839
ag297
aa(lp3840
g297
ag297
aS'11.73'
p3841
ag297
aS'1.61'
p3842
ag297
ag297
aS'4.22'
p3843
aS'4.96'
p3844
aS'19.49'
p3845
aS'2.91'
p3846
aS'14.90'
p3847
ag297
aS'5.25'
p3848
ag297
aa(lp3849
S'2.39'
p3850
aS'12.99'
p3851
aS'6.75'
p3852
aS'8.90'
p3853
aS'18.56'
p3854
ag297
ag297
ag297
aS'9.60'
p3855
aS'13.16'
p3856
aS'10.08'
p3857
aS'9.03'
p3858
ag297
aS'2.10'
p3859
ag297
aasS'fname2'
p3860
S'py_inst_p30f15t6_3.dat'
p3861
sS'sigma'
p3862
(lp3863
(lp3864
F112.41
ag297
aF113.83
ag297
aF112.35
aF125.42
ag297
aF111.16
aF117.44
aF120.05
aF114.07
aF111.36
ag297
aF120.8
ag297
aa(lp3865
F162.11
ag297
aF143.72
ag297
aF160.97
ag297
ag297
aF161.93
aF160.49
aF166.59
aF156.04
aF167.55
ag297
aF167.8
ag297
aa(lp3866
F7.58
ag297
aF8.61
aF8.9
aF9.13
ag297
ag297
aF8.49
aF8.65
ag297
aF8.54
aF8.69
aF9.13
aF9.0
ag297
aa(lp3867
F68.48
ag297
aF76.52
aF76.77
aF76.43
aF73.8
ag297
aF77.56
ag297
ag297
aF73.51
aF75.53
ag297
aF78.19
aF80.29
aa(lp3868
F176.44
ag297
aF176.37
aF186.78
aF186.29
aF172.58
ag297
aF175.61
ag297
ag297
aF199.91
aF181.59
ag297
aF191.2
ag297
aa(lp3869
g297
ag297
aF22.02
ag297
aF23.65
ag297
ag297
aF21.64
aF22.66
aF22.34
aF23.23
aF21.9
ag297
aF22.47
aF22.18
aa(lp3870
g297
ag297
aF23.84
aF23.49
ag297
ag297
aF23.89
aF25.76
aF24.28
ag297
aF24.5
aF23.08
ag297
aF24.23
aF23.63
aa(lp3871
F40.56
ag297
aF42.28
ag297
aF37.27
aF37.05
ag297
aF38.3
ag297
ag297
ag297
aF41.93
ag297
aF40.09
ag297
aa(lp3872
g297
aF19.47
aF19.49
aF20.03
aF20.89
ag297
ag297
aF17.95
aF19.03
aF18.79
aF19.19
ag297
ag297
aF20.64
ag297
aa(lp3873
F49.75
ag297
aF51.28
ag297
aF50.13
ag297
ag297
aF52.98
aF51.4
ag297
aF48.58
aF51.6
ag297
aF50.68
ag297
aa(lp3874
F42.07
aF41.39
aF42.99
aF43.09
aF41.8
aF40.75
ag297
aF43.13
ag297
aF45.88
ag297
aF41.55
ag297
aF40.51
ag297
aa(lp3875
g297
ag297
aF67.93
aF68.17
aF68.83
ag297
ag297
aF71.76
aF74.06
aF72.12
aF64.87
ag297
ag297
aF69.95
ag297
aa(lp3876
F56.07
ag297
aF56.5
ag297
ag297
aF55.34
ag297
aF55.78
ag297
aF53.35
aF57.29
aF51.69
ag297
aF53.52
ag297
aa(lp3877
F103.97
ag297
aF106.27
ag297
aF108.84
aF105.5
ag297
aF99.85
ag297
ag297
aF102.51
aF102.4
ag297
aF108.33
ag297
aa(lp3878
F143.05
ag297
aF138.06
ag297
ag297
aF137.81
ag297
aF140.34
aF136.26
aF136.13
ag297
aF134.42
ag297
aF134.98
aF135.94
aa(lp3879
g297
aF49.81
aF49.16
ag297
aF53.65
ag297
ag297
ag297
aF52.18
aF53.15
aF53.8
aF51.77
ag297
aF48.88
aF50.22
aa(lp3880
g297
ag297
aF153.13
ag297
aF159.28
ag297
aF163.77
ag297
aF153.22
ag297
aF155.03
aF164.78
ag297
aF159.89
ag297
aa(lp3881
g297
aF36.21
aF42.94
aF39.93
aF39.28
aF40.22
ag297
aF36.55
ag297
ag297
aF36.96
ag297
ag297
aF37.72
aF40.15
aa(lp3882
F40.27
ag297
aF47.49
aF43.9
ag297
aF42.37
ag297
aF46.7
aF41.76
ag297
aF44.26
ag297
ag297
aF43.95
ag297
aa(lp3883
F46.95
ag297
aF52.79
ag297
aF47.74
ag297
aF48.01
aF48.59
ag297
aF51.98
ag297
aF54.74
ag297
aF45.07
ag297
aa(lp3884
g297
aF41.52
aF40.74
ag297
aF43.37
ag297
ag297
aF39.16
ag297
aF42.27
ag297
ag297
ag297
aF44.12
ag297
aa(lp3885
g297
ag297
aF71.13
ag297
aF65.42
ag297
ag297
aF69.78
ag297
ag297
aF68.75
aF67.98
ag297
aF71.65
aF69.52
aa(lp3886
F87.92
ag297
aF89.69
ag297
aF92.37
ag297
ag297
aF94.93
aF93.02
aF95.8
aF90.28
aF84.81
ag297
aF93.22
ag297
aa(lp3887
F27.61
ag297
aF28.43
aF29.22
aF30.74
aF29.2
ag297
aF28.05
aF29.14
aF29.24
aF28.35
ag297
ag297
aF26.19
aF27.74
aa(lp3888
F125.51
ag297
aF124.8
ag297
aF131.17
ag297
ag297
aF122.85
ag297
ag297
aF123.44
aF135.98
ag297
aF125.55
ag297
aa(lp3889
g297
aF49.99
aF53.52
ag297
aF55.85
aF54.49
ag297
ag297
aF50.5
aF54.84
aF50.5
aF50.94
ag297
aF52.53
aF51.46
aa(lp3890
F33.3
aF34.83
aF36.3
ag297
aF33.09
ag297
ag297
aF34.06
aF35.86
ag297
aF32.59
ag297
ag297
ag297
aF35.19
aa(lp3891
F109.57
aF102.92
aF105.94
ag297
aF111.08
aF103.21
ag297
aF108.33
aF106.73
ag297
aF104.47
aF107.28
ag297
aF105.99
ag297
aa(lp3892
g297
ag297
aF116.72
ag297
aF114.91
ag297
ag297
aF112.08
aF109.88
aF117.84
aF116.37
aF117.37
ag297
aF109.31
ag297
aa(lp3893
F26.04
aF25.02
aF25.12
aF26.68
aF25.43
ag297
ag297
ag297
aF26.79
aF27.09
aF27.16
aF27.21
ag297
aF26.26
ag297
aasS'FM'
p3894
(lp3895
g607
(g3518
S'\xc3\x8f\xb41\xc90\x9c@'
p3896
tp3897
Rp3898
ag607
(g3518
S'\xcf?]\xc1m\x8d\x96@'
p3899
tp3900
Rp3901
ag607
(g3518
S'\xc3\x8f\xb41\xc90\x9c@'
p3902
tp3903
Rp3904
ag607
(g3518
S'\xdb\xef\x05Q\x12\xea\xa0@'
p3905
tp3906
Rp3907
ag607
(g3518
S'\xdb\xef\x05Q\x12\xea\xa0@'
p3908
tp3909
Rp3910
ag607
(g3518
S'\xc9\xe7\x88y\x1b_\x99@'
p3911
tp3912
Rp3913
ag607
(g3518
S'\xbd7\xe0\xe9v\x02\x9f@'
p3914
tp3915
Rp3916
ag607
(g3518
S'\xc3\x8f\xb41\xc90\x9c@'
p3917
tp3918
Rp3919
ag607
(g3518
S'\xbd7\xe0\xe9v\x02\x9f@'
p3920
tp3921
Rp3922
ag607
(g3518
S'\xc9\xe7\x88y\x1b_\x99@'
p3923
tp3924
Rp3925
ag607
(g3518
S'\xc9\xe7\x88y\x1b_\x99@'
p3926
tp3927
Rp3928
ag607
(g3518
S'\xbd7\xe0\xe9v\x02\x9f@'
p3929
tp3930
Rp3931
ag607
(g3518
S'\xc3\x8f\xb41\xc90\x9c@'
p3932
tp3933
Rp3934
ag607
(g3518
S'\xc9\xe7\x88y\x1b_\x99@'
p3935
tp3936
Rp3937
ag607
(g3518
S'\xc9\xe7\x88y\x1b_\x99@'
p3938
tp3939
Rp3940
asS'fname'
p3941
S'inst_p30f15t6_3.dat'
p3942
sb.